
build/main:     file format elf64-littleriscv


Disassembly of section .text:

ffffffc050202000 <_boot>:
ffffffc050202000:	10401073          	csrw	sie,zero
ffffffc050202004:	14401073          	csrw	sip,zero
ffffffc050202008:	50202137          	lui	sp,0x50202
ffffffc05020200c:	f1402573          	csrr	a0,mhartid
ffffffc050202010:	53e000ef          	jal	ra,ffffffc05020254e <boot_kernel>

ffffffc050202014 <loop>:
ffffffc050202014:	10500073          	wfi
ffffffc050202018:	bff5                	j	ffffffc050202014 <loop>
	...

ffffffc05020201c <enable_preempt>:
ffffffc05020201c:	10401073          	csrw	sie,zero
ffffffc050202020:	02200293          	li	t0,34
ffffffc050202024:	10429073          	csrw	sie,t0
ffffffc050202028:	8082                	ret
ffffffc05020202a:	0001                	nop

ffffffc05020202c <disable_preempt>:
ffffffc05020202c:	10401073          	csrw	sie,zero
ffffffc050202030:	8082                	ret
ffffffc050202032:	0001                	nop

ffffffc050202034 <enable_interrupt>:
ffffffc050202034:	4289                	li	t0,2
ffffffc050202036:	1002a073          	csrs	sstatus,t0
ffffffc05020203a:	8082                	ret

ffffffc05020203c <disable_interrupt>:
ffffffc05020203c:	4289                	li	t0,2
ffffffc05020203e:	1002b073          	csrc	sstatus,t0
ffffffc050202042:	8082                	ret

ffffffc050202044 <switch_to>:
ffffffc050202044:	7159                	addi	sp,sp,-112
ffffffc050202046:	e006                	sd	ra,0(sp)
ffffffc050202048:	e40a                	sd	sp,8(sp)
ffffffc05020204a:	e822                	sd	s0,16(sp)
ffffffc05020204c:	ec26                	sd	s1,24(sp)
ffffffc05020204e:	f04a                	sd	s2,32(sp)
ffffffc050202050:	f44e                	sd	s3,40(sp)
ffffffc050202052:	f852                	sd	s4,48(sp)
ffffffc050202054:	fc56                	sd	s5,56(sp)
ffffffc050202056:	e0da                	sd	s6,64(sp)
ffffffc050202058:	e4de                	sd	s7,72(sp)
ffffffc05020205a:	e8e2                	sd	s8,80(sp)
ffffffc05020205c:	ece6                	sd	s9,88(sp)
ffffffc05020205e:	f0ea                	sd	s10,96(sp)
ffffffc050202060:	f4ee                	sd	s11,104(sp)
ffffffc050202062:	00253023          	sd	sp,0(a0)
ffffffc050202066:	0005b103          	ld	sp,0(a1)
ffffffc05020206a:	6082                	ld	ra,0(sp)
ffffffc05020206c:	6442                	ld	s0,16(sp)
ffffffc05020206e:	64e2                	ld	s1,24(sp)
ffffffc050202070:	7902                	ld	s2,32(sp)
ffffffc050202072:	79a2                	ld	s3,40(sp)
ffffffc050202074:	7a42                	ld	s4,48(sp)
ffffffc050202076:	7ae2                	ld	s5,56(sp)
ffffffc050202078:	6b06                	ld	s6,64(sp)
ffffffc05020207a:	6ba6                	ld	s7,72(sp)
ffffffc05020207c:	6c46                	ld	s8,80(sp)
ffffffc05020207e:	6ce6                	ld	s9,88(sp)
ffffffc050202080:	7d06                	ld	s10,96(sp)
ffffffc050202082:	7da6                	ld	s11,104(sp)
ffffffc050202084:	00058213          	mv	tp,a1
ffffffc050202088:	6165                	addi	sp,sp,112
ffffffc05020208a:	8082                	ret

ffffffc05020208c <ret_from_exception>:
ffffffc05020208c:	02a050ef          	jal	ra,ffffffc0502070b6 <unlock_kernel>
ffffffc050202090:	12010293          	addi	t0,sp,288 # 50202120 <boot_stack_top_base+0x120>
ffffffc050202094:	00523023          	sd	t0,0(tp) # 0 <boot_stack_top_base-0x50202000>
ffffffc050202098:	6432                	ld	s0,264(sp)
ffffffc05020209a:	14141073          	csrw	sepc,s0
ffffffc05020209e:	6412                	ld	s0,256(sp)
ffffffc0502020a0:	10041073          	csrw	sstatus,s0
ffffffc0502020a4:	00013003          	ld	zero,0(sp)
ffffffc0502020a8:	60a2                	ld	ra,8(sp)
ffffffc0502020aa:	61e2                	ld	gp,24(sp)
ffffffc0502020ac:	7202                	ld	tp,32(sp)
ffffffc0502020ae:	72a2                	ld	t0,40(sp)
ffffffc0502020b0:	7342                	ld	t1,48(sp)
ffffffc0502020b2:	73e2                	ld	t2,56(sp)
ffffffc0502020b4:	6406                	ld	s0,64(sp)
ffffffc0502020b6:	64a6                	ld	s1,72(sp)
ffffffc0502020b8:	6546                	ld	a0,80(sp)
ffffffc0502020ba:	65e6                	ld	a1,88(sp)
ffffffc0502020bc:	7606                	ld	a2,96(sp)
ffffffc0502020be:	76a6                	ld	a3,104(sp)
ffffffc0502020c0:	7746                	ld	a4,112(sp)
ffffffc0502020c2:	77e6                	ld	a5,120(sp)
ffffffc0502020c4:	680a                	ld	a6,128(sp)
ffffffc0502020c6:	68aa                	ld	a7,136(sp)
ffffffc0502020c8:	694a                	ld	s2,144(sp)
ffffffc0502020ca:	69ea                	ld	s3,152(sp)
ffffffc0502020cc:	7a0a                	ld	s4,160(sp)
ffffffc0502020ce:	7aaa                	ld	s5,168(sp)
ffffffc0502020d0:	7b4a                	ld	s6,176(sp)
ffffffc0502020d2:	7bea                	ld	s7,184(sp)
ffffffc0502020d4:	6c0e                	ld	s8,192(sp)
ffffffc0502020d6:	6cae                	ld	s9,200(sp)
ffffffc0502020d8:	6d4e                	ld	s10,208(sp)
ffffffc0502020da:	6dee                	ld	s11,216(sp)
ffffffc0502020dc:	7e0e                	ld	t3,224(sp)
ffffffc0502020de:	7eae                	ld	t4,232(sp)
ffffffc0502020e0:	7f4e                	ld	t5,240(sp)
ffffffc0502020e2:	7fee                	ld	t6,248(sp)
ffffffc0502020e4:	6142                	ld	sp,16(sp)
ffffffc0502020e6:	10200073          	sret
ffffffc0502020ea:	0001                	nop

ffffffc0502020ec <exception_handler_entry>:
ffffffc0502020ec:	00223423          	sd	sp,8(tp) # 8 <boot_stack_top_base-0x50201ff8>
ffffffc0502020f0:	00023103          	ld	sp,0(tp) # 0 <boot_stack_top_base-0x50202000>
ffffffc0502020f4:	712d                	addi	sp,sp,-288
ffffffc0502020f6:	e002                	sd	zero,0(sp)
ffffffc0502020f8:	e406                	sd	ra,8(sp)
ffffffc0502020fa:	ec0e                	sd	gp,24(sp)
ffffffc0502020fc:	f012                	sd	tp,32(sp)
ffffffc0502020fe:	f416                	sd	t0,40(sp)
ffffffc050202100:	f81a                	sd	t1,48(sp)
ffffffc050202102:	fc1e                	sd	t2,56(sp)
ffffffc050202104:	e0a2                	sd	s0,64(sp)
ffffffc050202106:	e4a6                	sd	s1,72(sp)
ffffffc050202108:	e8aa                	sd	a0,80(sp)
ffffffc05020210a:	ecae                	sd	a1,88(sp)
ffffffc05020210c:	f0b2                	sd	a2,96(sp)
ffffffc05020210e:	f4b6                	sd	a3,104(sp)
ffffffc050202110:	f8ba                	sd	a4,112(sp)
ffffffc050202112:	fcbe                	sd	a5,120(sp)
ffffffc050202114:	e142                	sd	a6,128(sp)
ffffffc050202116:	e546                	sd	a7,136(sp)
ffffffc050202118:	e94a                	sd	s2,144(sp)
ffffffc05020211a:	ed4e                	sd	s3,152(sp)
ffffffc05020211c:	f152                	sd	s4,160(sp)
ffffffc05020211e:	f556                	sd	s5,168(sp)
ffffffc050202120:	f95a                	sd	s6,176(sp)
ffffffc050202122:	fd5e                	sd	s7,184(sp)
ffffffc050202124:	e1e2                	sd	s8,192(sp)
ffffffc050202126:	e5e6                	sd	s9,200(sp)
ffffffc050202128:	e9ea                	sd	s10,208(sp)
ffffffc05020212a:	edee                	sd	s11,216(sp)
ffffffc05020212c:	f1f2                	sd	t3,224(sp)
ffffffc05020212e:	f5f6                	sd	t4,232(sp)
ffffffc050202130:	f9fa                	sd	t5,240(sp)
ffffffc050202132:	fdfe                	sd	t6,248(sp)
ffffffc050202134:	00823283          	ld	t0,8(tp) # 8 <boot_stack_top_base-0x50201ff8>
ffffffc050202138:	e816                	sd	t0,16(sp)
ffffffc05020213a:	000462b7          	lui	t0,0x46
ffffffc05020213e:	10002473          	csrr	s0,sstatus
ffffffc050202142:	e222                	sd	s0,256(sp)
ffffffc050202144:	14102473          	csrr	s0,sepc
ffffffc050202148:	e622                	sd	s0,264(sp)
ffffffc05020214a:	14302473          	csrr	s0,stval
ffffffc05020214e:	ea22                	sd	s0,272(sp)
ffffffc050202150:	14202473          	csrr	s0,scause
ffffffc050202154:	ee22                	sd	s0,280(sp)
ffffffc050202156:	00040437          	lui	s0,0x40
ffffffc05020215a:	10041073          	csrw	sstatus,s0
ffffffc05020215e:	72d040ef          	jal	ra,ffffffc05020708a <lock_kernel>
ffffffc050202162:	850a                	mv	a0,sp
ffffffc050202164:	143025f3          	csrr	a1,stval
ffffffc050202168:	14202673          	csrr	a2,scause
ffffffc05020216c:	4c4020ef          	jal	ra,ffffffc050204630 <interrupt_helper>
ffffffc050202170:	00000097          	auipc	ra,0x0
ffffffc050202174:	f1c08093          	addi	ra,ra,-228 # ffffffc05020208c <ret_from_exception>
ffffffc050202178:	8082                	ret
	...

ffffffc05020217c <setup_exception>:
ffffffc05020217c:	00000297          	auipc	t0,0x0
ffffffc050202180:	f7028293          	addi	t0,t0,-144 # ffffffc0502020ec <exception_handler_entry>
ffffffc050202184:	10529073          	csrw	stvec,t0
ffffffc050202188:	000402b7          	lui	t0,0x40
ffffffc05020218c:	0022829b          	addiw	t0,t0,2
ffffffc050202190:	10029073          	csrw	sstatus,t0
ffffffc050202194:	02200293          	li	t0,34
ffffffc050202198:	10429073          	csrw	sie,t0
ffffffc05020219c:	8082                	ret
ffffffc05020219e:	0001                	nop

ffffffc0502021a0 <let_ipi_go>:
ffffffc0502021a0:	4281                	li	t0,0
ffffffc0502021a2:	14429073          	csrw	sip,t0
ffffffc0502021a6:	8082                	ret
ffffffc0502021a8:	0000                	unimp
	...

ffffffc0502021ac <get_current_cpu_id>:
ffffffc0502021ac:	f1402573          	csrr	a0,mhartid
ffffffc0502021b0:	8082                	ret
	...

ffffffc0502021b4 <_start>:
ffffffc0502021b4:	10401073          	csrw	sie,zero
ffffffc0502021b8:	14401073          	csrw	sip,zero
ffffffc0502021bc:	f14022f3          	csrr	t0,mhartid
ffffffc0502021c0:	02029b63          	bnez	t0,ffffffc0502021f6 <slave_init_stack>
ffffffc0502021c4:	00008417          	auipc	s0,0x8
ffffffc0502021c8:	7e840413          	addi	s0,s0,2024 # ffffffc05020a9ac <_edata>
ffffffc0502021cc:	00052497          	auipc	s1,0x52
ffffffc0502021d0:	b2c48493          	addi	s1,s1,-1236 # ffffffc050253cf8 <__BSS_END__>
ffffffc0502021d4:	4901                	li	s2,0

ffffffc0502021d6 <bss_loop>:
ffffffc0502021d6:	01242023          	sw	s2,0(s0)
ffffffc0502021da:	0405                	addi	s0,s0,1
ffffffc0502021dc:	fe944de3          	blt	s0,s1,ffffffc0502021d6 <bss_loop>
ffffffc0502021e0:	fc052137          	lui	sp,0xfc052
ffffffc0502021e4:	0011011b          	addiw	sp,sp,1
ffffffc0502021e8:	00c11113          	slli	sp,sp,0xc
ffffffc0502021ec:	00008217          	auipc	tp,0x8
ffffffc0502021f0:	4b420213          	addi	tp,tp,1204 # ffffffc05020a6a0 <pid0_pcb>
ffffffc0502021f4:	a819                	j	ffffffc05020220a <slave_stack_finish>

ffffffc0502021f6 <slave_init_stack>:
ffffffc0502021f6:	fe029137          	lui	sp,0xfe029
ffffffc0502021fa:	0011011b          	addiw	sp,sp,1
ffffffc0502021fe:	00d11113          	slli	sp,sp,0xd
ffffffc050202202:	00008217          	auipc	tp,0x8
ffffffc050202206:	5de20213          	addi	tp,tp,1502 # ffffffc05020a7e0 <pid0_pcb_slave>

ffffffc05020220a <slave_stack_finish>:
ffffffc05020220a:	795000ef          	jal	ra,ffffffc05020319e <main>

ffffffc05020220e <loop>:
ffffffc05020220e:	10500073          	wfi
ffffffc050202212:	bff5                	j	ffffffc05020220e <loop>
	...

ffffffc050202216 <local_flush_tlb_all>:
ffffffc050202216:	1141                	addi	sp,sp,-16
ffffffc050202218:	e422                	sd	s0,8(sp)
ffffffc05020221a:	0800                	addi	s0,sp,16
ffffffc05020221c:	12000073          	sfence.vma
ffffffc050202220:	0001                	nop
ffffffc050202222:	6422                	ld	s0,8(sp)
ffffffc050202224:	0141                	addi	sp,sp,16
ffffffc050202226:	8082                	ret

ffffffc050202228 <set_satp>:
ffffffc050202228:	7179                	addi	sp,sp,-48
ffffffc05020222a:	f422                	sd	s0,40(sp)
ffffffc05020222c:	1800                	addi	s0,sp,48
ffffffc05020222e:	87aa                	mv	a5,a0
ffffffc050202230:	872e                	mv	a4,a1
ffffffc050202232:	fcc43823          	sd	a2,-48(s0)
ffffffc050202236:	fcf42e23          	sw	a5,-36(s0)
ffffffc05020223a:	87ba                	mv	a5,a4
ffffffc05020223c:	fcf42c23          	sw	a5,-40(s0)
ffffffc050202240:	fdc46783          	lwu	a5,-36(s0)
ffffffc050202244:	03c79713          	slli	a4,a5,0x3c
ffffffc050202248:	fd846783          	lwu	a5,-40(s0)
ffffffc05020224c:	17b2                	slli	a5,a5,0x2c
ffffffc05020224e:	8fd9                	or	a5,a5,a4
ffffffc050202250:	fd043703          	ld	a4,-48(s0)
ffffffc050202254:	8fd9                	or	a5,a5,a4
ffffffc050202256:	fef43423          	sd	a5,-24(s0)
ffffffc05020225a:	fe843783          	ld	a5,-24(s0)
ffffffc05020225e:	12000073          	sfence.vma
ffffffc050202262:	18079073          	csrw	satp,a5
ffffffc050202266:	0001                	nop
ffffffc050202268:	7422                	ld	s0,40(sp)
ffffffc05020226a:	6145                	addi	sp,sp,48
ffffffc05020226c:	8082                	ret

ffffffc05020226e <kva2pa>:
ffffffc05020226e:	1101                	addi	sp,sp,-32
ffffffc050202270:	ec22                	sd	s0,24(sp)
ffffffc050202272:	1000                	addi	s0,sp,32
ffffffc050202274:	fea43423          	sd	a0,-24(s0)
ffffffc050202278:	fe843703          	ld	a4,-24(s0)
ffffffc05020227c:	4785                	li	a5,1
ffffffc05020227e:	179a                	slli	a5,a5,0x26
ffffffc050202280:	97ba                	add	a5,a5,a4
ffffffc050202282:	853e                	mv	a0,a5
ffffffc050202284:	6462                	ld	s0,24(sp)
ffffffc050202286:	6105                	addi	sp,sp,32
ffffffc050202288:	8082                	ret

ffffffc05020228a <pa2kva>:
ffffffc05020228a:	1101                	addi	sp,sp,-32
ffffffc05020228c:	ec22                	sd	s0,24(sp)
ffffffc05020228e:	1000                	addi	s0,sp,32
ffffffc050202290:	fea43423          	sd	a0,-24(s0)
ffffffc050202294:	fe843703          	ld	a4,-24(s0)
ffffffc050202298:	57fd                	li	a5,-1
ffffffc05020229a:	179a                	slli	a5,a5,0x26
ffffffc05020229c:	97ba                	add	a5,a5,a4
ffffffc05020229e:	853e                	mv	a0,a5
ffffffc0502022a0:	6462                	ld	s0,24(sp)
ffffffc0502022a2:	6105                	addi	sp,sp,32
ffffffc0502022a4:	8082                	ret

ffffffc0502022a6 <get_pa>:
ffffffc0502022a6:	7179                	addi	sp,sp,-48
ffffffc0502022a8:	f422                	sd	s0,40(sp)
ffffffc0502022aa:	1800                	addi	s0,sp,48
ffffffc0502022ac:	fca43c23          	sd	a0,-40(s0)
ffffffc0502022b0:	57fd                	li	a5,-1
ffffffc0502022b2:	fef43423          	sd	a5,-24(s0)
ffffffc0502022b6:	fd843703          	ld	a4,-40(s0)
ffffffc0502022ba:	fe843783          	ld	a5,-24(s0)
ffffffc0502022be:	8ff9                	and	a5,a5,a4
ffffffc0502022c0:	83a9                	srli	a5,a5,0xa
ffffffc0502022c2:	07b2                	slli	a5,a5,0xc
ffffffc0502022c4:	fef43023          	sd	a5,-32(s0)
ffffffc0502022c8:	fe043783          	ld	a5,-32(s0)
ffffffc0502022cc:	853e                	mv	a0,a5
ffffffc0502022ce:	7422                	ld	s0,40(sp)
ffffffc0502022d0:	6145                	addi	sp,sp,48
ffffffc0502022d2:	8082                	ret

ffffffc0502022d4 <set_pfn>:
ffffffc0502022d4:	7179                	addi	sp,sp,-48
ffffffc0502022d6:	f422                	sd	s0,40(sp)
ffffffc0502022d8:	1800                	addi	s0,sp,48
ffffffc0502022da:	fca43c23          	sd	a0,-40(s0)
ffffffc0502022de:	fcb43823          	sd	a1,-48(s0)
ffffffc0502022e2:	c0000793          	li	a5,-1024
ffffffc0502022e6:	fef43423          	sd	a5,-24(s0)
ffffffc0502022ea:	fd043783          	ld	a5,-48(s0)
ffffffc0502022ee:	00a79713          	slli	a4,a5,0xa
ffffffc0502022f2:	fe843783          	ld	a5,-24(s0)
ffffffc0502022f6:	8f7d                	and	a4,a4,a5
ffffffc0502022f8:	fd843783          	ld	a5,-40(s0)
ffffffc0502022fc:	e398                	sd	a4,0(a5)
ffffffc0502022fe:	0001                	nop
ffffffc050202300:	7422                	ld	s0,40(sp)
ffffffc050202302:	6145                	addi	sp,sp,48
ffffffc050202304:	8082                	ret

ffffffc050202306 <set_attribute>:
ffffffc050202306:	1101                	addi	sp,sp,-32
ffffffc050202308:	ec22                	sd	s0,24(sp)
ffffffc05020230a:	1000                	addi	s0,sp,32
ffffffc05020230c:	fea43423          	sd	a0,-24(s0)
ffffffc050202310:	feb43023          	sd	a1,-32(s0)
ffffffc050202314:	fe843783          	ld	a5,-24(s0)
ffffffc050202318:	6398                	ld	a4,0(a5)
ffffffc05020231a:	fe043783          	ld	a5,-32(s0)
ffffffc05020231e:	8f5d                	or	a4,a4,a5
ffffffc050202320:	fe843783          	ld	a5,-24(s0)
ffffffc050202324:	e398                	sd	a4,0(a5)
ffffffc050202326:	0001                	nop
ffffffc050202328:	6462                	ld	s0,24(sp)
ffffffc05020232a:	6105                	addi	sp,sp,32
ffffffc05020232c:	8082                	ret

ffffffc05020232e <clear_pgdir>:
ffffffc05020232e:	7179                	addi	sp,sp,-48
ffffffc050202330:	f422                	sd	s0,40(sp)
ffffffc050202332:	1800                	addi	s0,sp,48
ffffffc050202334:	fca43c23          	sd	a0,-40(s0)
ffffffc050202338:	fe042623          	sw	zero,-20(s0)
ffffffc05020233c:	a829                	j	ffffffc050202356 <clear_pgdir+0x28>
ffffffc05020233e:	fec42703          	lw	a4,-20(s0)
ffffffc050202342:	fd843783          	ld	a5,-40(s0)
ffffffc050202346:	97ba                	add	a5,a5,a4
ffffffc050202348:	0007b023          	sd	zero,0(a5)
ffffffc05020234c:	fec42783          	lw	a5,-20(s0)
ffffffc050202350:	27a1                	addiw	a5,a5,8
ffffffc050202352:	fef42623          	sw	a5,-20(s0)
ffffffc050202356:	fec42783          	lw	a5,-20(s0)
ffffffc05020235a:	873e                	mv	a4,a5
ffffffc05020235c:	6785                	lui	a5,0x1
ffffffc05020235e:	fef760e3          	bltu	a4,a5,ffffffc05020233e <clear_pgdir+0x10>
ffffffc050202362:	0001                	nop
ffffffc050202364:	0001                	nop
ffffffc050202366:	7422                	ld	s0,40(sp)
ffffffc050202368:	6145                	addi	sp,sp,48
ffffffc05020236a:	8082                	ret

ffffffc05020236c <alloc_page>:
ffffffc05020236c:	1141                	addi	sp,sp,-16
ffffffc05020236e:	e422                	sd	s0,8(sp)
ffffffc050202370:	0800                	addi	s0,sp,16
ffffffc050202372:	00008797          	auipc	a5,0x8
ffffffc050202376:	60678793          	addi	a5,a5,1542 # ffffffc05020a978 <pg_base.1051>
ffffffc05020237a:	6398                	ld	a4,0(a5)
ffffffc05020237c:	6785                	lui	a5,0x1
ffffffc05020237e:	973e                	add	a4,a4,a5
ffffffc050202380:	00008797          	auipc	a5,0x8
ffffffc050202384:	5f878793          	addi	a5,a5,1528 # ffffffc05020a978 <pg_base.1051>
ffffffc050202388:	e398                	sd	a4,0(a5)
ffffffc05020238a:	00008797          	auipc	a5,0x8
ffffffc05020238e:	5ee78793          	addi	a5,a5,1518 # ffffffc05020a978 <pg_base.1051>
ffffffc050202392:	639c                	ld	a5,0(a5)
ffffffc050202394:	853e                	mv	a0,a5
ffffffc050202396:	6422                	ld	s0,8(sp)
ffffffc050202398:	0141                	addi	sp,sp,16
ffffffc05020239a:	8082                	ret

ffffffc05020239c <map_page>:
ffffffc05020239c:	711d                	addi	sp,sp,-96
ffffffc05020239e:	ec86                	sd	ra,88(sp)
ffffffc0502023a0:	e8a2                	sd	s0,80(sp)
ffffffc0502023a2:	e4a6                	sd	s1,72(sp)
ffffffc0502023a4:	1080                	addi	s0,sp,96
ffffffc0502023a6:	faa43c23          	sd	a0,-72(s0)
ffffffc0502023aa:	fab43823          	sd	a1,-80(s0)
ffffffc0502023ae:	fac43423          	sd	a2,-88(s0)
ffffffc0502023b2:	fb843703          	ld	a4,-72(s0)
ffffffc0502023b6:	57fd                	li	a5,-1
ffffffc0502023b8:	83e5                	srli	a5,a5,0x19
ffffffc0502023ba:	8ff9                	and	a5,a5,a4
ffffffc0502023bc:	faf43c23          	sd	a5,-72(s0)
ffffffc0502023c0:	fb843783          	ld	a5,-72(s0)
ffffffc0502023c4:	83f9                	srli	a5,a5,0x1e
ffffffc0502023c6:	fcf43c23          	sd	a5,-40(s0)
ffffffc0502023ca:	fd843783          	ld	a5,-40(s0)
ffffffc0502023ce:	00979713          	slli	a4,a5,0x9
ffffffc0502023d2:	fb843783          	ld	a5,-72(s0)
ffffffc0502023d6:	83d5                	srli	a5,a5,0x15
ffffffc0502023d8:	8fb9                	xor	a5,a5,a4
ffffffc0502023da:	fcf43823          	sd	a5,-48(s0)
ffffffc0502023de:	fd843783          	ld	a5,-40(s0)
ffffffc0502023e2:	078e                	slli	a5,a5,0x3
ffffffc0502023e4:	fa843703          	ld	a4,-88(s0)
ffffffc0502023e8:	97ba                	add	a5,a5,a4
ffffffc0502023ea:	639c                	ld	a5,0(a5)
ffffffc0502023ec:	eba1                	bnez	a5,ffffffc05020243c <map_page+0xa0>
ffffffc0502023ee:	fd843783          	ld	a5,-40(s0)
ffffffc0502023f2:	078e                	slli	a5,a5,0x3
ffffffc0502023f4:	fa843703          	ld	a4,-88(s0)
ffffffc0502023f8:	00f704b3          	add	s1,a4,a5
ffffffc0502023fc:	f71ff0ef          	jal	ra,ffffffc05020236c <alloc_page>
ffffffc050202400:	87aa                	mv	a5,a0
ffffffc050202402:	83b1                	srli	a5,a5,0xc
ffffffc050202404:	85be                	mv	a1,a5
ffffffc050202406:	8526                	mv	a0,s1
ffffffc050202408:	ecdff0ef          	jal	ra,ffffffc0502022d4 <set_pfn>
ffffffc05020240c:	fd843783          	ld	a5,-40(s0)
ffffffc050202410:	078e                	slli	a5,a5,0x3
ffffffc050202412:	fa843703          	ld	a4,-88(s0)
ffffffc050202416:	97ba                	add	a5,a5,a4
ffffffc050202418:	4585                	li	a1,1
ffffffc05020241a:	853e                	mv	a0,a5
ffffffc05020241c:	eebff0ef          	jal	ra,ffffffc050202306 <set_attribute>
ffffffc050202420:	fd843783          	ld	a5,-40(s0)
ffffffc050202424:	078e                	slli	a5,a5,0x3
ffffffc050202426:	fa843703          	ld	a4,-88(s0)
ffffffc05020242a:	97ba                	add	a5,a5,a4
ffffffc05020242c:	639c                	ld	a5,0(a5)
ffffffc05020242e:	853e                	mv	a0,a5
ffffffc050202430:	e77ff0ef          	jal	ra,ffffffc0502022a6 <get_pa>
ffffffc050202434:	87aa                	mv	a5,a0
ffffffc050202436:	853e                	mv	a0,a5
ffffffc050202438:	ef7ff0ef          	jal	ra,ffffffc05020232e <clear_pgdir>
ffffffc05020243c:	fd843783          	ld	a5,-40(s0)
ffffffc050202440:	078e                	slli	a5,a5,0x3
ffffffc050202442:	fa843703          	ld	a4,-88(s0)
ffffffc050202446:	97ba                	add	a5,a5,a4
ffffffc050202448:	639c                	ld	a5,0(a5)
ffffffc05020244a:	853e                	mv	a0,a5
ffffffc05020244c:	e5bff0ef          	jal	ra,ffffffc0502022a6 <get_pa>
ffffffc050202450:	87aa                	mv	a5,a0
ffffffc050202452:	fcf43423          	sd	a5,-56(s0)
ffffffc050202456:	fd043783          	ld	a5,-48(s0)
ffffffc05020245a:	078e                	slli	a5,a5,0x3
ffffffc05020245c:	fc843703          	ld	a4,-56(s0)
ffffffc050202460:	973e                	add	a4,a4,a5
ffffffc050202462:	fb043783          	ld	a5,-80(s0)
ffffffc050202466:	83b1                	srli	a5,a5,0xc
ffffffc050202468:	85be                	mv	a1,a5
ffffffc05020246a:	853a                	mv	a0,a4
ffffffc05020246c:	e69ff0ef          	jal	ra,ffffffc0502022d4 <set_pfn>
ffffffc050202470:	fd043783          	ld	a5,-48(s0)
ffffffc050202474:	078e                	slli	a5,a5,0x3
ffffffc050202476:	fc843703          	ld	a4,-56(s0)
ffffffc05020247a:	97ba                	add	a5,a5,a4
ffffffc05020247c:	0cf00593          	li	a1,207
ffffffc050202480:	853e                	mv	a0,a5
ffffffc050202482:	e85ff0ef          	jal	ra,ffffffc050202306 <set_attribute>
ffffffc050202486:	0001                	nop
ffffffc050202488:	60e6                	ld	ra,88(sp)
ffffffc05020248a:	6446                	ld	s0,80(sp)
ffffffc05020248c:	64a6                	ld	s1,72(sp)
ffffffc05020248e:	6125                	addi	sp,sp,96
ffffffc050202490:	8082                	ret

ffffffc050202492 <enable_vm>:
ffffffc050202492:	1141                	addi	sp,sp,-16
ffffffc050202494:	e406                	sd	ra,8(sp)
ffffffc050202496:	e022                	sd	s0,0(sp)
ffffffc050202498:	0800                	addi	s0,sp,16
ffffffc05020249a:	00051637          	lui	a2,0x51
ffffffc05020249e:	4581                	li	a1,0
ffffffc0502024a0:	4521                	li	a0,8
ffffffc0502024a2:	d87ff0ef          	jal	ra,ffffffc050202228 <set_satp>
ffffffc0502024a6:	d71ff0ef          	jal	ra,ffffffc050202216 <local_flush_tlb_all>
ffffffc0502024aa:	0001                	nop
ffffffc0502024ac:	60a2                	ld	ra,8(sp)
ffffffc0502024ae:	6402                	ld	s0,0(sp)
ffffffc0502024b0:	0141                	addi	sp,sp,16
ffffffc0502024b2:	8082                	ret

ffffffc0502024b4 <setup_vm>:
ffffffc0502024b4:	7179                	addi	sp,sp,-48
ffffffc0502024b6:	f406                	sd	ra,40(sp)
ffffffc0502024b8:	f022                	sd	s0,32(sp)
ffffffc0502024ba:	1800                	addi	s0,sp,48
ffffffc0502024bc:	51000537          	lui	a0,0x51000
ffffffc0502024c0:	e6fff0ef          	jal	ra,ffffffc05020232e <clear_pgdir>
ffffffc0502024c4:	510007b7          	lui	a5,0x51000
ffffffc0502024c8:	fcf43c23          	sd	a5,-40(s0)
ffffffc0502024cc:	c0500793          	li	a5,-1019
ffffffc0502024d0:	07f2                	slli	a5,a5,0x1c
ffffffc0502024d2:	fef43423          	sd	a5,-24(s0)
ffffffc0502024d6:	a025                	j	ffffffc0502024fe <setup_vm+0x4a>
ffffffc0502024d8:	fe843503          	ld	a0,-24(s0)
ffffffc0502024dc:	d93ff0ef          	jal	ra,ffffffc05020226e <kva2pa>
ffffffc0502024e0:	87aa                	mv	a5,a0
ffffffc0502024e2:	fd843603          	ld	a2,-40(s0)
ffffffc0502024e6:	85be                	mv	a1,a5
ffffffc0502024e8:	fe843503          	ld	a0,-24(s0)
ffffffc0502024ec:	eb1ff0ef          	jal	ra,ffffffc05020239c <map_page>
ffffffc0502024f0:	fe843703          	ld	a4,-24(s0)
ffffffc0502024f4:	002007b7          	lui	a5,0x200
ffffffc0502024f8:	97ba                	add	a5,a5,a4
ffffffc0502024fa:	fef43423          	sd	a5,-24(s0)
ffffffc0502024fe:	fe843703          	ld	a4,-24(s0)
ffffffc050202502:	e0300793          	li	a5,-509
ffffffc050202506:	07f6                	slli	a5,a5,0x1d
ffffffc050202508:	fcf768e3          	bltu	a4,a5,ffffffc0502024d8 <setup_vm+0x24>
ffffffc05020250c:	500007b7          	lui	a5,0x50000
ffffffc050202510:	fef43023          	sd	a5,-32(s0)
ffffffc050202514:	a005                	j	ffffffc050202534 <setup_vm+0x80>
ffffffc050202516:	fd843603          	ld	a2,-40(s0)
ffffffc05020251a:	fe043583          	ld	a1,-32(s0)
ffffffc05020251e:	fe043503          	ld	a0,-32(s0)
ffffffc050202522:	e7bff0ef          	jal	ra,ffffffc05020239c <map_page>
ffffffc050202526:	fe043703          	ld	a4,-32(s0)
ffffffc05020252a:	002007b7          	lui	a5,0x200
ffffffc05020252e:	97ba                	add	a5,a5,a4
ffffffc050202530:	fef43023          	sd	a5,-32(s0)
ffffffc050202534:	fe043703          	ld	a4,-32(s0)
ffffffc050202538:	510007b7          	lui	a5,0x51000
ffffffc05020253c:	fcf76de3          	bltu	a4,a5,ffffffc050202516 <setup_vm+0x62>
ffffffc050202540:	f53ff0ef          	jal	ra,ffffffc050202492 <enable_vm>
ffffffc050202544:	0001                	nop
ffffffc050202546:	70a2                	ld	ra,40(sp)
ffffffc050202548:	7402                	ld	s0,32(sp)
ffffffc05020254a:	6145                	addi	sp,sp,48
ffffffc05020254c:	8082                	ret

ffffffc05020254e <boot_kernel>:
ffffffc05020254e:	1101                	addi	sp,sp,-32
ffffffc050202550:	ec06                	sd	ra,24(sp)
ffffffc050202552:	e822                	sd	s0,16(sp)
ffffffc050202554:	1000                	addi	s0,sp,32
ffffffc050202556:	fea43423          	sd	a0,-24(s0)
ffffffc05020255a:	fe843783          	ld	a5,-24(s0)
ffffffc05020255e:	e781                	bnez	a5,ffffffc050202566 <boot_kernel+0x18>
ffffffc050202560:	f55ff0ef          	jal	ra,ffffffc0502024b4 <setup_vm>
ffffffc050202564:	a019                	j	ffffffc05020256a <boot_kernel+0x1c>
ffffffc050202566:	f2dff0ef          	jal	ra,ffffffc050202492 <enable_vm>
ffffffc05020256a:	00000797          	auipc	a5,0x0
ffffffc05020256e:	c4a78793          	addi	a5,a5,-950 # ffffffc0502021b4 <_start>
ffffffc050202572:	853e                	mv	a0,a5
ffffffc050202574:	d17ff0ef          	jal	ra,ffffffc05020228a <pa2kva>
ffffffc050202578:	87aa                	mv	a5,a0
ffffffc05020257a:	fe843503          	ld	a0,-24(s0)
ffffffc05020257e:	9782                	jalr	a5
ffffffc050202580:	4781                	li	a5,0
ffffffc050202582:	853e                	mv	a0,a5
ffffffc050202584:	60e2                	ld	ra,24(sp)
ffffffc050202586:	6442                	ld	s0,16(sp)
ffffffc050202588:	6105                	addi	sp,sp,32
ffffffc05020258a:	8082                	ret

ffffffc05020258c <kva2pa>:
ffffffc05020258c:	1101                	addi	sp,sp,-32
ffffffc05020258e:	ec22                	sd	s0,24(sp)
ffffffc050202590:	1000                	addi	s0,sp,32
ffffffc050202592:	fea43423          	sd	a0,-24(s0)
ffffffc050202596:	fe843703          	ld	a4,-24(s0)
ffffffc05020259a:	4785                	li	a5,1
ffffffc05020259c:	179a                	slli	a5,a5,0x26
ffffffc05020259e:	97ba                	add	a5,a5,a4
ffffffc0502025a0:	853e                	mv	a0,a5
ffffffc0502025a2:	6462                	ld	s0,24(sp)
ffffffc0502025a4:	6105                	addi	sp,sp,32
ffffffc0502025a6:	8082                	ret

ffffffc0502025a8 <pa2kva>:
ffffffc0502025a8:	1101                	addi	sp,sp,-32
ffffffc0502025aa:	ec22                	sd	s0,24(sp)
ffffffc0502025ac:	1000                	addi	s0,sp,32
ffffffc0502025ae:	fea43423          	sd	a0,-24(s0)
ffffffc0502025b2:	fe843703          	ld	a4,-24(s0)
ffffffc0502025b6:	57fd                	li	a5,-1
ffffffc0502025b8:	179a                	slli	a5,a5,0x26
ffffffc0502025ba:	97ba                	add	a5,a5,a4
ffffffc0502025bc:	853e                	mv	a0,a5
ffffffc0502025be:	6462                	ld	s0,24(sp)
ffffffc0502025c0:	6105                	addi	sp,sp,32
ffffffc0502025c2:	8082                	ret

ffffffc0502025c4 <get_pa>:
ffffffc0502025c4:	7179                	addi	sp,sp,-48
ffffffc0502025c6:	f422                	sd	s0,40(sp)
ffffffc0502025c8:	1800                	addi	s0,sp,48
ffffffc0502025ca:	fca43c23          	sd	a0,-40(s0)
ffffffc0502025ce:	57fd                	li	a5,-1
ffffffc0502025d0:	fef43423          	sd	a5,-24(s0)
ffffffc0502025d4:	fd843703          	ld	a4,-40(s0)
ffffffc0502025d8:	fe843783          	ld	a5,-24(s0)
ffffffc0502025dc:	8ff9                	and	a5,a5,a4
ffffffc0502025de:	83a9                	srli	a5,a5,0xa
ffffffc0502025e0:	07b2                	slli	a5,a5,0xc
ffffffc0502025e2:	fef43023          	sd	a5,-32(s0)
ffffffc0502025e6:	fe043783          	ld	a5,-32(s0)
ffffffc0502025ea:	853e                	mv	a0,a5
ffffffc0502025ec:	7422                	ld	s0,40(sp)
ffffffc0502025ee:	6145                	addi	sp,sp,48
ffffffc0502025f0:	8082                	ret

ffffffc0502025f2 <call_jmptab>:
ffffffc0502025f2:	7139                	addi	sp,sp,-64
ffffffc0502025f4:	fc06                	sd	ra,56(sp)
ffffffc0502025f6:	f822                	sd	s0,48(sp)
ffffffc0502025f8:	0080                	addi	s0,sp,64
ffffffc0502025fa:	fca43c23          	sd	a0,-40(s0)
ffffffc0502025fe:	fcb43823          	sd	a1,-48(s0)
ffffffc050202602:	fcc43423          	sd	a2,-56(s0)
ffffffc050202606:	fcd43023          	sd	a3,-64(s0)
ffffffc05020260a:	fd843783          	ld	a5,-40(s0)
ffffffc05020260e:	00379713          	slli	a4,a5,0x3
ffffffc050202612:	fe0297b7          	lui	a5,0xfe029
ffffffc050202616:	07b6                	slli	a5,a5,0xd
ffffffc050202618:	f0078793          	addi	a5,a5,-256 # fffffffffe028f00 <__BSS_END__+0x3faddd5208>
ffffffc05020261c:	97ba                	add	a5,a5,a4
ffffffc05020261e:	639c                	ld	a5,0(a5)
ffffffc050202620:	fef43423          	sd	a5,-24(s0)
ffffffc050202624:	fe843783          	ld	a5,-24(s0)
ffffffc050202628:	fef43023          	sd	a5,-32(s0)
ffffffc05020262c:	fe043783          	ld	a5,-32(s0)
ffffffc050202630:	fc043603          	ld	a2,-64(s0)
ffffffc050202634:	fc843583          	ld	a1,-56(s0)
ffffffc050202638:	fd043503          	ld	a0,-48(s0)
ffffffc05020263c:	9782                	jalr	a5
ffffffc05020263e:	87aa                	mv	a5,a0
ffffffc050202640:	853e                	mv	a0,a5
ffffffc050202642:	70e2                	ld	ra,56(sp)
ffffffc050202644:	7442                	ld	s0,48(sp)
ffffffc050202646:	6121                	addi	sp,sp,64
ffffffc050202648:	8082                	ret

ffffffc05020264a <bios_putchar>:
ffffffc05020264a:	1101                	addi	sp,sp,-32
ffffffc05020264c:	ec06                	sd	ra,24(sp)
ffffffc05020264e:	e822                	sd	s0,16(sp)
ffffffc050202650:	1000                	addi	s0,sp,32
ffffffc050202652:	87aa                	mv	a5,a0
ffffffc050202654:	fef42623          	sw	a5,-20(s0)
ffffffc050202658:	fec42783          	lw	a5,-20(s0)
ffffffc05020265c:	4681                	li	a3,0
ffffffc05020265e:	4601                	li	a2,0
ffffffc050202660:	85be                	mv	a1,a5
ffffffc050202662:	4505                	li	a0,1
ffffffc050202664:	f8fff0ef          	jal	ra,ffffffc0502025f2 <call_jmptab>
ffffffc050202668:	0001                	nop
ffffffc05020266a:	60e2                	ld	ra,24(sp)
ffffffc05020266c:	6442                	ld	s0,16(sp)
ffffffc05020266e:	6105                	addi	sp,sp,32
ffffffc050202670:	8082                	ret

ffffffc050202672 <bios_getchar>:
ffffffc050202672:	1141                	addi	sp,sp,-16
ffffffc050202674:	e406                	sd	ra,8(sp)
ffffffc050202676:	e022                	sd	s0,0(sp)
ffffffc050202678:	0800                	addi	s0,sp,16
ffffffc05020267a:	4681                	li	a3,0
ffffffc05020267c:	4601                	li	a2,0
ffffffc05020267e:	4581                	li	a1,0
ffffffc050202680:	4509                	li	a0,2
ffffffc050202682:	f71ff0ef          	jal	ra,ffffffc0502025f2 <call_jmptab>
ffffffc050202686:	87aa                	mv	a5,a0
ffffffc050202688:	2781                	sext.w	a5,a5
ffffffc05020268a:	853e                	mv	a0,a5
ffffffc05020268c:	60a2                	ld	ra,8(sp)
ffffffc05020268e:	6402                	ld	s0,0(sp)
ffffffc050202690:	0141                	addi	sp,sp,16
ffffffc050202692:	8082                	ret

ffffffc050202694 <bios_sdread>:
ffffffc050202694:	1101                	addi	sp,sp,-32
ffffffc050202696:	ec06                	sd	ra,24(sp)
ffffffc050202698:	e822                	sd	s0,16(sp)
ffffffc05020269a:	1000                	addi	s0,sp,32
ffffffc05020269c:	87aa                	mv	a5,a0
ffffffc05020269e:	86ae                	mv	a3,a1
ffffffc0502026a0:	8732                	mv	a4,a2
ffffffc0502026a2:	fef42623          	sw	a5,-20(s0)
ffffffc0502026a6:	87b6                	mv	a5,a3
ffffffc0502026a8:	fef42423          	sw	a5,-24(s0)
ffffffc0502026ac:	87ba                	mv	a5,a4
ffffffc0502026ae:	fef42223          	sw	a5,-28(s0)
ffffffc0502026b2:	fec46783          	lwu	a5,-20(s0)
ffffffc0502026b6:	fe846703          	lwu	a4,-24(s0)
ffffffc0502026ba:	fe446683          	lwu	a3,-28(s0)
ffffffc0502026be:	863a                	mv	a2,a4
ffffffc0502026c0:	85be                	mv	a1,a5
ffffffc0502026c2:	450d                	li	a0,3
ffffffc0502026c4:	f2fff0ef          	jal	ra,ffffffc0502025f2 <call_jmptab>
ffffffc0502026c8:	87aa                	mv	a5,a0
ffffffc0502026ca:	2781                	sext.w	a5,a5
ffffffc0502026cc:	853e                	mv	a0,a5
ffffffc0502026ce:	60e2                	ld	ra,24(sp)
ffffffc0502026d0:	6442                	ld	s0,16(sp)
ffffffc0502026d2:	6105                	addi	sp,sp,32
ffffffc0502026d4:	8082                	ret

ffffffc0502026d6 <bios_read_fdt>:
ffffffc0502026d6:	1101                	addi	sp,sp,-32
ffffffc0502026d8:	ec06                	sd	ra,24(sp)
ffffffc0502026da:	e822                	sd	s0,16(sp)
ffffffc0502026dc:	1000                	addi	s0,sp,32
ffffffc0502026de:	87aa                	mv	a5,a0
ffffffc0502026e0:	fef42623          	sw	a5,-20(s0)
ffffffc0502026e4:	fec46783          	lwu	a5,-20(s0)
ffffffc0502026e8:	4681                	li	a3,0
ffffffc0502026ea:	4601                	li	a2,0
ffffffc0502026ec:	85be                	mv	a1,a5
ffffffc0502026ee:	451d                	li	a0,7
ffffffc0502026f0:	f03ff0ef          	jal	ra,ffffffc0502025f2 <call_jmptab>
ffffffc0502026f4:	87aa                	mv	a5,a0
ffffffc0502026f6:	853e                	mv	a0,a5
ffffffc0502026f8:	60e2                	ld	ra,24(sp)
ffffffc0502026fa:	6442                	ld	s0,16(sp)
ffffffc0502026fc:	6105                	addi	sp,sp,32
ffffffc0502026fe:	8082                	ret

ffffffc050202700 <init_jmptab>:
ffffffc050202700:	1101                	addi	sp,sp,-32
ffffffc050202702:	ec22                	sd	s0,24(sp)
ffffffc050202704:	1000                	addi	s0,sp,32
ffffffc050202706:	fe0297b7          	lui	a5,0xfe029
ffffffc05020270a:	07b6                	slli	a5,a5,0xd
ffffffc05020270c:	f0078793          	addi	a5,a5,-256 # fffffffffe028f00 <__BSS_END__+0x3faddd5208>
ffffffc050202710:	fef43423          	sd	a5,-24(s0)
ffffffc050202714:	fe843783          	ld	a5,-24(s0)
ffffffc050202718:	00001717          	auipc	a4,0x1
ffffffc05020271c:	c9e70713          	addi	a4,a4,-866 # ffffffc0502033b6 <port_write>
ffffffc050202720:	e398                	sd	a4,0(a5)
ffffffc050202722:	fe843783          	ld	a5,-24(s0)
ffffffc050202726:	07a1                	addi	a5,a5,8
ffffffc050202728:	00001717          	auipc	a4,0x1
ffffffc05020272c:	c6470713          	addi	a4,a4,-924 # ffffffc05020338c <port_write_ch>
ffffffc050202730:	e398                	sd	a4,0(a5)
ffffffc050202732:	fe843783          	ld	a5,-24(s0)
ffffffc050202736:	07c1                	addi	a5,a5,16
ffffffc050202738:	00001717          	auipc	a4,0x1
ffffffc05020273c:	ca670713          	addi	a4,a4,-858 # ffffffc0502033de <port_read_ch>
ffffffc050202740:	e398                	sd	a4,0(a5)
ffffffc050202742:	fe843783          	ld	a5,-24(s0)
ffffffc050202746:	07e1                	addi	a5,a5,24
ffffffc050202748:	00001717          	auipc	a4,0x1
ffffffc05020274c:	cbc70713          	addi	a4,a4,-836 # ffffffc050203404 <sd_read>
ffffffc050202750:	e398                	sd	a4,0(a5)
ffffffc050202752:	fe843783          	ld	a5,-24(s0)
ffffffc050202756:	02078793          	addi	a5,a5,32
ffffffc05020275a:	00001717          	auipc	a4,0x1
ffffffc05020275e:	cec70713          	addi	a4,a4,-788 # ffffffc050203446 <sd_write>
ffffffc050202762:	e398                	sd	a4,0(a5)
ffffffc050202764:	fe843783          	ld	a5,-24(s0)
ffffffc050202768:	02878793          	addi	a5,a5,40
ffffffc05020276c:	00001717          	auipc	a4,0x1
ffffffc050202770:	d7070713          	addi	a4,a4,-656 # ffffffc0502034dc <qemu_logging>
ffffffc050202774:	e398                	sd	a4,0(a5)
ffffffc050202776:	fe843783          	ld	a5,-24(s0)
ffffffc05020277a:	03078793          	addi	a5,a5,48
ffffffc05020277e:	00001717          	auipc	a4,0x1
ffffffc050202782:	d0a70713          	addi	a4,a4,-758 # ffffffc050203488 <set_timer>
ffffffc050202786:	e398                	sd	a4,0(a5)
ffffffc050202788:	fe843783          	ld	a5,-24(s0)
ffffffc05020278c:	03878793          	addi	a5,a5,56
ffffffc050202790:	00001717          	auipc	a4,0x1
ffffffc050202794:	d2070713          	addi	a4,a4,-736 # ffffffc0502034b0 <read_fdt>
ffffffc050202798:	e398                	sd	a4,0(a5)
ffffffc05020279a:	fe843783          	ld	a5,-24(s0)
ffffffc05020279e:	04078793          	addi	a5,a5,64
ffffffc0502027a2:	00001717          	auipc	a4,0x1
ffffffc0502027a6:	02e70713          	addi	a4,a4,46 # ffffffc0502037d0 <screen_move_cursor>
ffffffc0502027aa:	e398                	sd	a4,0(a5)
ffffffc0502027ac:	fe843783          	ld	a5,-24(s0)
ffffffc0502027b0:	04878793          	addi	a5,a5,72
ffffffc0502027b4:	00007717          	auipc	a4,0x7
ffffffc0502027b8:	29270713          	addi	a4,a4,658 # ffffffc050209a46 <printk>
ffffffc0502027bc:	e398                	sd	a4,0(a5)
ffffffc0502027be:	fe843783          	ld	a5,-24(s0)
ffffffc0502027c2:	05078793          	addi	a5,a5,80
ffffffc0502027c6:	00005717          	auipc	a4,0x5
ffffffc0502027ca:	ad670713          	addi	a4,a4,-1322 # ffffffc05020729c <do_scheduler>
ffffffc0502027ce:	e398                	sd	a4,0(a5)
ffffffc0502027d0:	fe843783          	ld	a5,-24(s0)
ffffffc0502027d4:	05878793          	addi	a5,a5,88
ffffffc0502027d8:	00003717          	auipc	a4,0x3
ffffffc0502027dc:	7ea70713          	addi	a4,a4,2026 # ffffffc050205fc2 <do_mutex_lock_init>
ffffffc0502027e0:	e398                	sd	a4,0(a5)
ffffffc0502027e2:	fe843783          	ld	a5,-24(s0)
ffffffc0502027e6:	06078793          	addi	a5,a5,96
ffffffc0502027ea:	00003717          	auipc	a4,0x3
ffffffc0502027ee:	7fe70713          	addi	a4,a4,2046 # ffffffc050205fe8 <do_mutex_lock_acquire>
ffffffc0502027f2:	e398                	sd	a4,0(a5)
ffffffc0502027f4:	fe843783          	ld	a5,-24(s0)
ffffffc0502027f8:	06878793          	addi	a5,a5,104
ffffffc0502027fc:	00004717          	auipc	a4,0x4
ffffffc050202800:	8ca70713          	addi	a4,a4,-1846 # ffffffc0502060c6 <do_mutex_lock_release>
ffffffc050202804:	e398                	sd	a4,0(a5)
ffffffc050202806:	0001                	nop
ffffffc050202808:	6462                	ld	s0,24(sp)
ffffffc05020280a:	6105                	addi	sp,sp,32
ffffffc05020280c:	8082                	ret

ffffffc05020280e <init_task_info>:
ffffffc05020280e:	7179                	addi	sp,sp,-48
ffffffc050202810:	f406                	sd	ra,40(sp)
ffffffc050202812:	f022                	sd	s0,32(sp)
ffffffc050202814:	1800                	addi	s0,sp,48
ffffffc050202816:	e02817b7          	lui	a5,0xe0281
ffffffc05020281a:	07a6                	slli	a5,a5,0x9
ffffffc05020281c:	1fa78793          	addi	a5,a5,506 # ffffffffe02811fa <__BSS_END__+0x3f9002d502>
ffffffc050202820:	0007d783          	lhu	a5,0(a5)
ffffffc050202824:	fef41323          	sh	a5,-26(s0)
ffffffc050202828:	c05037b7          	lui	a5,0xc0503
ffffffc05020282c:	00879513          	slli	a0,a5,0x8
ffffffc050202830:	d5dff0ef          	jal	ra,ffffffc05020258c <kva2pa>
ffffffc050202834:	87aa                	mv	a5,a0
ffffffc050202836:	2781                	sext.w	a5,a5
ffffffc050202838:	fe641703          	lh	a4,-26(s0)
ffffffc05020283c:	2701                	sext.w	a4,a4
ffffffc05020283e:	863a                	mv	a2,a4
ffffffc050202840:	4585                	li	a1,1
ffffffc050202842:	853e                	mv	a0,a5
ffffffc050202844:	e51ff0ef          	jal	ra,ffffffc050202694 <bios_sdread>
ffffffc050202848:	c05037b7          	lui	a5,0xc0503
ffffffc05020284c:	07a2                	slli	a5,a5,0x8
ffffffc05020284e:	fcf43c23          	sd	a5,-40(s0)
ffffffc050202852:	fe042623          	sw	zero,-20(s0)
ffffffc050202856:	a205                	j	ffffffc050202976 <init_task_info+0x168>
ffffffc050202858:	fe042423          	sw	zero,-24(s0)
ffffffc05020285c:	a0a9                	j	ffffffc0502028a6 <init_task_info+0x98>
ffffffc05020285e:	fec42703          	lw	a4,-20(s0)
ffffffc050202862:	87ba                	mv	a5,a4
ffffffc050202864:	078a                	slli	a5,a5,0x2
ffffffc050202866:	97ba                	add	a5,a5,a4
ffffffc050202868:	078e                	slli	a5,a5,0x3
ffffffc05020286a:	873e                	mv	a4,a5
ffffffc05020286c:	fd843783          	ld	a5,-40(s0)
ffffffc050202870:	973e                	add	a4,a4,a5
ffffffc050202872:	fe842783          	lw	a5,-24(s0)
ffffffc050202876:	97ba                	add	a5,a5,a4
ffffffc050202878:	0007c683          	lbu	a3,0(a5) # ffffffffc0503000 <__BSS_END__+0x3f702af308>
ffffffc05020287c:	0004a597          	auipc	a1,0x4a
ffffffc050202880:	09c58593          	addi	a1,a1,156 # ffffffc05024c918 <tasks>
ffffffc050202884:	fe842603          	lw	a2,-24(s0)
ffffffc050202888:	fec42703          	lw	a4,-20(s0)
ffffffc05020288c:	87ba                	mv	a5,a4
ffffffc05020288e:	078a                	slli	a5,a5,0x2
ffffffc050202890:	97ba                	add	a5,a5,a4
ffffffc050202892:	078e                	slli	a5,a5,0x3
ffffffc050202894:	97ae                	add	a5,a5,a1
ffffffc050202896:	97b2                	add	a5,a5,a2
ffffffc050202898:	00d78023          	sb	a3,0(a5)
ffffffc05020289c:	fe842783          	lw	a5,-24(s0)
ffffffc0502028a0:	2785                	addiw	a5,a5,1
ffffffc0502028a2:	fef42423          	sw	a5,-24(s0)
ffffffc0502028a6:	fe842783          	lw	a5,-24(s0)
ffffffc0502028aa:	0007871b          	sext.w	a4,a5
ffffffc0502028ae:	47bd                	li	a5,15
ffffffc0502028b0:	fae7d7e3          	bge	a5,a4,ffffffc05020285e <init_task_info+0x50>
ffffffc0502028b4:	fec42703          	lw	a4,-20(s0)
ffffffc0502028b8:	87ba                	mv	a5,a4
ffffffc0502028ba:	078a                	slli	a5,a5,0x2
ffffffc0502028bc:	97ba                	add	a5,a5,a4
ffffffc0502028be:	078e                	slli	a5,a5,0x3
ffffffc0502028c0:	873e                	mv	a4,a5
ffffffc0502028c2:	fd843783          	ld	a5,-40(s0)
ffffffc0502028c6:	97ba                	add	a5,a5,a4
ffffffc0502028c8:	4b94                	lw	a3,16(a5)
ffffffc0502028ca:	0004a617          	auipc	a2,0x4a
ffffffc0502028ce:	04e60613          	addi	a2,a2,78 # ffffffc05024c918 <tasks>
ffffffc0502028d2:	fec42703          	lw	a4,-20(s0)
ffffffc0502028d6:	87ba                	mv	a5,a4
ffffffc0502028d8:	078a                	slli	a5,a5,0x2
ffffffc0502028da:	97ba                	add	a5,a5,a4
ffffffc0502028dc:	078e                	slli	a5,a5,0x3
ffffffc0502028de:	97b2                	add	a5,a5,a2
ffffffc0502028e0:	cb94                	sw	a3,16(a5)
ffffffc0502028e2:	fec42703          	lw	a4,-20(s0)
ffffffc0502028e6:	87ba                	mv	a5,a4
ffffffc0502028e8:	078a                	slli	a5,a5,0x2
ffffffc0502028ea:	97ba                	add	a5,a5,a4
ffffffc0502028ec:	078e                	slli	a5,a5,0x3
ffffffc0502028ee:	873e                	mv	a4,a5
ffffffc0502028f0:	fd843783          	ld	a5,-40(s0)
ffffffc0502028f4:	97ba                	add	a5,a5,a4
ffffffc0502028f6:	4bd4                	lw	a3,20(a5)
ffffffc0502028f8:	0004a617          	auipc	a2,0x4a
ffffffc0502028fc:	02060613          	addi	a2,a2,32 # ffffffc05024c918 <tasks>
ffffffc050202900:	fec42703          	lw	a4,-20(s0)
ffffffc050202904:	87ba                	mv	a5,a4
ffffffc050202906:	078a                	slli	a5,a5,0x2
ffffffc050202908:	97ba                	add	a5,a5,a4
ffffffc05020290a:	078e                	slli	a5,a5,0x3
ffffffc05020290c:	97b2                	add	a5,a5,a2
ffffffc05020290e:	cbd4                	sw	a3,20(a5)
ffffffc050202910:	fec42703          	lw	a4,-20(s0)
ffffffc050202914:	87ba                	mv	a5,a4
ffffffc050202916:	078a                	slli	a5,a5,0x2
ffffffc050202918:	97ba                	add	a5,a5,a4
ffffffc05020291a:	078e                	slli	a5,a5,0x3
ffffffc05020291c:	873e                	mv	a4,a5
ffffffc05020291e:	fd843783          	ld	a5,-40(s0)
ffffffc050202922:	97ba                	add	a5,a5,a4
ffffffc050202924:	7394                	ld	a3,32(a5)
ffffffc050202926:	0004a617          	auipc	a2,0x4a
ffffffc05020292a:	ff260613          	addi	a2,a2,-14 # ffffffc05024c918 <tasks>
ffffffc05020292e:	fec42703          	lw	a4,-20(s0)
ffffffc050202932:	87ba                	mv	a5,a4
ffffffc050202934:	078a                	slli	a5,a5,0x2
ffffffc050202936:	97ba                	add	a5,a5,a4
ffffffc050202938:	078e                	slli	a5,a5,0x3
ffffffc05020293a:	97b2                	add	a5,a5,a2
ffffffc05020293c:	f394                	sd	a3,32(a5)
ffffffc05020293e:	fec42703          	lw	a4,-20(s0)
ffffffc050202942:	87ba                	mv	a5,a4
ffffffc050202944:	078a                	slli	a5,a5,0x2
ffffffc050202946:	97ba                	add	a5,a5,a4
ffffffc050202948:	078e                	slli	a5,a5,0x3
ffffffc05020294a:	873e                	mv	a4,a5
ffffffc05020294c:	fd843783          	ld	a5,-40(s0)
ffffffc050202950:	97ba                	add	a5,a5,a4
ffffffc050202952:	4f94                	lw	a3,24(a5)
ffffffc050202954:	0004a617          	auipc	a2,0x4a
ffffffc050202958:	fc460613          	addi	a2,a2,-60 # ffffffc05024c918 <tasks>
ffffffc05020295c:	fec42703          	lw	a4,-20(s0)
ffffffc050202960:	87ba                	mv	a5,a4
ffffffc050202962:	078a                	slli	a5,a5,0x2
ffffffc050202964:	97ba                	add	a5,a5,a4
ffffffc050202966:	078e                	slli	a5,a5,0x3
ffffffc050202968:	97b2                	add	a5,a5,a2
ffffffc05020296a:	cf94                	sw	a3,24(a5)
ffffffc05020296c:	fec42783          	lw	a5,-20(s0)
ffffffc050202970:	2785                	addiw	a5,a5,1
ffffffc050202972:	fef42623          	sw	a5,-20(s0)
ffffffc050202976:	fec42783          	lw	a5,-20(s0)
ffffffc05020297a:	0007871b          	sext.w	a4,a5
ffffffc05020297e:	47fd                	li	a5,31
ffffffc050202980:	ece7dce3          	bge	a5,a4,ffffffc050202858 <init_task_info+0x4a>
ffffffc050202984:	0001                	nop
ffffffc050202986:	0001                	nop
ffffffc050202988:	70a2                	ld	ra,40(sp)
ffffffc05020298a:	7402                	ld	s0,32(sp)
ffffffc05020298c:	6145                	addi	sp,sp,48
ffffffc05020298e:	8082                	ret

ffffffc050202990 <init_pcb_stack>:
ffffffc050202990:	715d                	addi	sp,sp,-80
ffffffc050202992:	e4a2                	sd	s0,72(sp)
ffffffc050202994:	0880                	addi	s0,sp,80
ffffffc050202996:	fca43423          	sd	a0,-56(s0)
ffffffc05020299a:	fcb43023          	sd	a1,-64(s0)
ffffffc05020299e:	fac43c23          	sd	a2,-72(s0)
ffffffc0502029a2:	fad43823          	sd	a3,-80(s0)
ffffffc0502029a6:	fc843783          	ld	a5,-56(s0)
ffffffc0502029aa:	ee078793          	addi	a5,a5,-288
ffffffc0502029ae:	fef43023          	sd	a5,-32(s0)
ffffffc0502029b2:	fe042623          	sw	zero,-20(s0)
ffffffc0502029b6:	a831                	j	ffffffc0502029d2 <init_pcb_stack+0x42>
ffffffc0502029b8:	fe043703          	ld	a4,-32(s0)
ffffffc0502029bc:	fec42783          	lw	a5,-20(s0)
ffffffc0502029c0:	078e                	slli	a5,a5,0x3
ffffffc0502029c2:	97ba                	add	a5,a5,a4
ffffffc0502029c4:	0007b023          	sd	zero,0(a5)
ffffffc0502029c8:	fec42783          	lw	a5,-20(s0)
ffffffc0502029cc:	2785                	addiw	a5,a5,1
ffffffc0502029ce:	fef42623          	sw	a5,-20(s0)
ffffffc0502029d2:	fec42783          	lw	a5,-20(s0)
ffffffc0502029d6:	0007871b          	sext.w	a4,a5
ffffffc0502029da:	47fd                	li	a5,31
ffffffc0502029dc:	fce7dee3          	bge	a5,a4,ffffffc0502029b8 <init_pcb_stack+0x28>
ffffffc0502029e0:	fe043783          	ld	a5,-32(s0)
ffffffc0502029e4:	fb843703          	ld	a4,-72(s0)
ffffffc0502029e8:	e798                	sd	a4,8(a5)
ffffffc0502029ea:	fe043783          	ld	a5,-32(s0)
ffffffc0502029ee:	000f0737          	lui	a4,0xf0
ffffffc0502029f2:	0705                	addi	a4,a4,1
ffffffc0502029f4:	0742                	slli	a4,a4,0x10
ffffffc0502029f6:	eb98                	sd	a4,16(a5)
ffffffc0502029f8:	fb043703          	ld	a4,-80(s0)
ffffffc0502029fc:	fe043783          	ld	a5,-32(s0)
ffffffc050202a00:	f398                	sd	a4,32(a5)
ffffffc050202a02:	fe043783          	ld	a5,-32(s0)
ffffffc050202a06:	fb843703          	ld	a4,-72(s0)
ffffffc050202a0a:	10e7b423          	sd	a4,264(a5)
ffffffc050202a0e:	fe043783          	ld	a5,-32(s0)
ffffffc050202a12:	4709                	li	a4,2
ffffffc050202a14:	10e7b023          	sd	a4,256(a5)
ffffffc050202a18:	fe043783          	ld	a5,-32(s0)
ffffffc050202a1c:	f9078793          	addi	a5,a5,-112
ffffffc050202a20:	fcf43c23          	sd	a5,-40(s0)
ffffffc050202a24:	fffff717          	auipc	a4,0xfffff
ffffffc050202a28:	66870713          	addi	a4,a4,1640 # ffffffc05020208c <ret_from_exception>
ffffffc050202a2c:	fd843783          	ld	a5,-40(s0)
ffffffc050202a30:	e398                	sd	a4,0(a5)
ffffffc050202a32:	fd843783          	ld	a5,-40(s0)
ffffffc050202a36:	000f0737          	lui	a4,0xf0
ffffffc050202a3a:	0705                	addi	a4,a4,1
ffffffc050202a3c:	0742                	slli	a4,a4,0x10
ffffffc050202a3e:	e798                	sd	a4,8(a5)
ffffffc050202a40:	fc843783          	ld	a5,-56(s0)
ffffffc050202a44:	e7078713          	addi	a4,a5,-400
ffffffc050202a48:	fb043783          	ld	a5,-80(s0)
ffffffc050202a4c:	e398                	sd	a4,0(a5)
ffffffc050202a4e:	fb043783          	ld	a5,-80(s0)
ffffffc050202a52:	000f0737          	lui	a4,0xf0
ffffffc050202a56:	0705                	addi	a4,a4,1
ffffffc050202a58:	0742                	slli	a4,a4,0x10
ffffffc050202a5a:	e798                	sd	a4,8(a5)
ffffffc050202a5c:	fb043783          	ld	a5,-80(s0)
ffffffc050202a60:	fb843703          	ld	a4,-72(s0)
ffffffc050202a64:	efb8                	sd	a4,88(a5)
ffffffc050202a66:	0001                	nop
ffffffc050202a68:	6426                	ld	s0,72(sp)
ffffffc050202a6a:	6161                	addi	sp,sp,80
ffffffc050202a6c:	8082                	ret

ffffffc050202a6e <init_pcb>:
ffffffc050202a6e:	7139                	addi	sp,sp,-64
ffffffc050202a70:	fc06                	sd	ra,56(sp)
ffffffc050202a72:	f822                	sd	s0,48(sp)
ffffffc050202a74:	f426                	sd	s1,40(sp)
ffffffc050202a76:	0080                	addi	s0,sp,64
ffffffc050202a78:	00008517          	auipc	a0,0x8
ffffffc050202a7c:	ea850513          	addi	a0,a0,-344 # ffffffc05020a920 <ready_queue>
ffffffc050202a80:	1e4060ef          	jal	ra,ffffffc050208c64 <init_list_head>
ffffffc050202a84:	fc042e23          	sw	zero,-36(s0)
ffffffc050202a88:	fc042c23          	sw	zero,-40(s0)
ffffffc050202a8c:	ae19                	j	ffffffc050202da2 <init_pcb+0x334>
ffffffc050202a8e:	fd842783          	lw	a5,-40(s0)
ffffffc050202a92:	2781                	sext.w	a5,a5
ffffffc050202a94:	20079463          	bnez	a5,ffffffc050202c9c <init_pcb+0x22e>
ffffffc050202a98:	fd842783          	lw	a5,-40(s0)
ffffffc050202a9c:	2785                	addiw	a5,a5,1
ffffffc050202a9e:	0007869b          	sext.w	a3,a5
ffffffc050202aa2:	0004f617          	auipc	a2,0x4f
ffffffc050202aa6:	85660613          	addi	a2,a2,-1962 # ffffffc0502512f8 <pcb>
ffffffc050202aaa:	fd842703          	lw	a4,-40(s0)
ffffffc050202aae:	87ba                	mv	a5,a4
ffffffc050202ab0:	078a                	slli	a5,a5,0x2
ffffffc050202ab2:	97ba                	add	a5,a5,a4
ffffffc050202ab4:	079a                	slli	a5,a5,0x6
ffffffc050202ab6:	97b2                	add	a5,a5,a2
ffffffc050202ab8:	0ed7a823          	sw	a3,240(a5)
ffffffc050202abc:	0004f697          	auipc	a3,0x4f
ffffffc050202ac0:	83c68693          	addi	a3,a3,-1988 # ffffffc0502512f8 <pcb>
ffffffc050202ac4:	fd842703          	lw	a4,-40(s0)
ffffffc050202ac8:	87ba                	mv	a5,a4
ffffffc050202aca:	078a                	slli	a5,a5,0x2
ffffffc050202acc:	97ba                	add	a5,a5,a4
ffffffc050202ace:	079a                	slli	a5,a5,0x6
ffffffc050202ad0:	97b6                	add	a5,a5,a3
ffffffc050202ad2:	1007bc23          	sd	zero,280(a5)
ffffffc050202ad6:	0004f697          	auipc	a3,0x4f
ffffffc050202ada:	82268693          	addi	a3,a3,-2014 # ffffffc0502512f8 <pcb>
ffffffc050202ade:	fd842703          	lw	a4,-40(s0)
ffffffc050202ae2:	87ba                	mv	a5,a4
ffffffc050202ae4:	078a                	slli	a5,a5,0x2
ffffffc050202ae6:	97ba                	add	a5,a5,a4
ffffffc050202ae8:	079a                	slli	a5,a5,0x6
ffffffc050202aea:	97b6                	add	a5,a5,a3
ffffffc050202aec:	1207a023          	sw	zero,288(a5)
ffffffc050202af0:	0004f697          	auipc	a3,0x4f
ffffffc050202af4:	80868693          	addi	a3,a3,-2040 # ffffffc0502512f8 <pcb>
ffffffc050202af8:	fd842703          	lw	a4,-40(s0)
ffffffc050202afc:	87ba                	mv	a5,a4
ffffffc050202afe:	078a                	slli	a5,a5,0x2
ffffffc050202b00:	97ba                	add	a5,a5,a4
ffffffc050202b02:	079a                	slli	a5,a5,0x6
ffffffc050202b04:	97b6                	add	a5,a5,a3
ffffffc050202b06:	4709                	li	a4,2
ffffffc050202b08:	10e7a823          	sw	a4,272(a5)
ffffffc050202b0c:	fd842703          	lw	a4,-40(s0)
ffffffc050202b10:	87ba                	mv	a5,a4
ffffffc050202b12:	078a                	slli	a5,a5,0x2
ffffffc050202b14:	97ba                	add	a5,a5,a4
ffffffc050202b16:	078e                	slli	a5,a5,0x3
ffffffc050202b18:	0004a717          	auipc	a4,0x4a
ffffffc050202b1c:	e0070713          	addi	a4,a4,-512 # ffffffc05024c918 <tasks>
ffffffc050202b20:	00e786b3          	add	a3,a5,a4
ffffffc050202b24:	0004e617          	auipc	a2,0x4e
ffffffc050202b28:	7d460613          	addi	a2,a2,2004 # ffffffc0502512f8 <pcb>
ffffffc050202b2c:	fd842703          	lw	a4,-40(s0)
ffffffc050202b30:	87ba                	mv	a5,a4
ffffffc050202b32:	078a                	slli	a5,a5,0x2
ffffffc050202b34:	97ba                	add	a5,a5,a4
ffffffc050202b36:	079a                	slli	a5,a5,0x6
ffffffc050202b38:	97b2                	add	a5,a5,a2
ffffffc050202b3a:	12d7b823          	sd	a3,304(a5)
ffffffc050202b3e:	76e020ef          	jal	ra,ffffffc0502052ac <allocPage>
ffffffc050202b42:	862a                	mv	a2,a0
ffffffc050202b44:	0004e697          	auipc	a3,0x4e
ffffffc050202b48:	7b468693          	addi	a3,a3,1972 # ffffffc0502512f8 <pcb>
ffffffc050202b4c:	fd842703          	lw	a4,-40(s0)
ffffffc050202b50:	87ba                	mv	a5,a4
ffffffc050202b52:	078a                	slli	a5,a5,0x2
ffffffc050202b54:	97ba                	add	a5,a5,a4
ffffffc050202b56:	079a                	slli	a5,a5,0x6
ffffffc050202b58:	97b6                	add	a5,a5,a3
ffffffc050202b5a:	f7f0                	sd	a2,232(a5)
ffffffc050202b5c:	0004e697          	auipc	a3,0x4e
ffffffc050202b60:	79c68693          	addi	a3,a3,1948 # ffffffc0502512f8 <pcb>
ffffffc050202b64:	fd842703          	lw	a4,-40(s0)
ffffffc050202b68:	87ba                	mv	a5,a4
ffffffc050202b6a:	078a                	slli	a5,a5,0x2
ffffffc050202b6c:	97ba                	add	a5,a5,a4
ffffffc050202b6e:	079a                	slli	a5,a5,0x6
ffffffc050202b70:	97b6                	add	a5,a5,a3
ffffffc050202b72:	77fc                	ld	a5,232(a5)
ffffffc050202b74:	84be                	mv	s1,a5
ffffffc050202b76:	51000537          	lui	a0,0x51000
ffffffc050202b7a:	a2fff0ef          	jal	ra,ffffffc0502025a8 <pa2kva>
ffffffc050202b7e:	87aa                	mv	a5,a0
ffffffc050202b80:	6605                	lui	a2,0x1
ffffffc050202b82:	85be                	mv	a1,a5
ffffffc050202b84:	8526                	mv	a0,s1
ffffffc050202b86:	028070ef          	jal	ra,ffffffc050209bae <memcpy>
ffffffc050202b8a:	722020ef          	jal	ra,ffffffc0502052ac <allocPage>
ffffffc050202b8e:	872a                	mv	a4,a0
ffffffc050202b90:	6785                	lui	a5,0x1
ffffffc050202b92:	97ba                	add	a5,a5,a4
ffffffc050202b94:	fcf43823          	sd	a5,-48(s0)
ffffffc050202b98:	0004e697          	auipc	a3,0x4e
ffffffc050202b9c:	76068693          	addi	a3,a3,1888 # ffffffc0502512f8 <pcb>
ffffffc050202ba0:	fd842703          	lw	a4,-40(s0)
ffffffc050202ba4:	87ba                	mv	a5,a4
ffffffc050202ba6:	078a                	slli	a5,a5,0x2
ffffffc050202ba8:	97ba                	add	a5,a5,a4
ffffffc050202baa:	079a                	slli	a5,a5,0x6
ffffffc050202bac:	97b6                	add	a5,a5,a3
ffffffc050202bae:	77fc                	ld	a5,232(a5)
ffffffc050202bb0:	85be                	mv	a1,a5
ffffffc050202bb2:	00f007b7          	lui	a5,0xf00
ffffffc050202bb6:	07bd                	addi	a5,a5,15
ffffffc050202bb8:	00c79513          	slli	a0,a5,0xc
ffffffc050202bbc:	073020ef          	jal	ra,ffffffc05020542e <alloc_page_helper>
ffffffc050202bc0:	872a                	mv	a4,a0
ffffffc050202bc2:	6785                	lui	a5,0x1
ffffffc050202bc4:	97ba                	add	a5,a5,a4
ffffffc050202bc6:	fcf43423          	sd	a5,-56(s0)
ffffffc050202bca:	0004e697          	auipc	a3,0x4e
ffffffc050202bce:	72e68693          	addi	a3,a3,1838 # ffffffc0502512f8 <pcb>
ffffffc050202bd2:	fd842703          	lw	a4,-40(s0)
ffffffc050202bd6:	87ba                	mv	a5,a4
ffffffc050202bd8:	078a                	slli	a5,a5,0x2
ffffffc050202bda:	97ba                	add	a5,a5,a4
ffffffc050202bdc:	079a                	slli	a5,a5,0x6
ffffffc050202bde:	97b6                	add	a5,a5,a3
ffffffc050202be0:	77f8                	ld	a4,232(a5)
ffffffc050202be2:	fd842783          	lw	a5,-40(s0)
ffffffc050202be6:	85ba                	mv	a1,a4
ffffffc050202be8:	853e                	mv	a0,a5
ffffffc050202bea:	458020ef          	jal	ra,ffffffc050205042 <load_task_img>
ffffffc050202bee:	fca43023          	sd	a0,-64(s0)
ffffffc050202bf2:	fd842703          	lw	a4,-40(s0)
ffffffc050202bf6:	87ba                	mv	a5,a4
ffffffc050202bf8:	078a                	slli	a5,a5,0x2
ffffffc050202bfa:	97ba                	add	a5,a5,a4
ffffffc050202bfc:	079a                	slli	a5,a5,0x6
ffffffc050202bfe:	03078713          	addi	a4,a5,48 # 1030 <boot_stack_top_base-0x50200fd0>
ffffffc050202c02:	0004e797          	auipc	a5,0x4e
ffffffc050202c06:	6f678793          	addi	a5,a5,1782 # ffffffc0502512f8 <pcb>
ffffffc050202c0a:	97ba                	add	a5,a5,a4
ffffffc050202c0c:	853e                	mv	a0,a5
ffffffc050202c0e:	056060ef          	jal	ra,ffffffc050208c64 <init_list_head>
ffffffc050202c12:	fd842703          	lw	a4,-40(s0)
ffffffc050202c16:	87ba                	mv	a5,a4
ffffffc050202c18:	078a                	slli	a5,a5,0x2
ffffffc050202c1a:	97ba                	add	a5,a5,a4
ffffffc050202c1c:	079a                	slli	a5,a5,0x6
ffffffc050202c1e:	02078713          	addi	a4,a5,32
ffffffc050202c22:	0004e797          	auipc	a5,0x4e
ffffffc050202c26:	6d678793          	addi	a5,a5,1750 # ffffffc0502512f8 <pcb>
ffffffc050202c2a:	97ba                	add	a5,a5,a4
ffffffc050202c2c:	00008597          	auipc	a1,0x8
ffffffc050202c30:	cf458593          	addi	a1,a1,-780 # ffffffc05020a920 <ready_queue>
ffffffc050202c34:	853e                	mv	a0,a5
ffffffc050202c36:	138060ef          	jal	ra,ffffffc050208d6e <list_add_tail>
ffffffc050202c3a:	fd842703          	lw	a4,-40(s0)
ffffffc050202c3e:	87ba                	mv	a5,a4
ffffffc050202c40:	078a                	slli	a5,a5,0x2
ffffffc050202c42:	97ba                	add	a5,a5,a4
ffffffc050202c44:	079a                	slli	a5,a5,0x6
ffffffc050202c46:	0004e717          	auipc	a4,0x4e
ffffffc050202c4a:	6b270713          	addi	a4,a4,1714 # ffffffc0502512f8 <pcb>
ffffffc050202c4e:	97ba                	add	a5,a5,a4
ffffffc050202c50:	86be                	mv	a3,a5
ffffffc050202c52:	fc043603          	ld	a2,-64(s0)
ffffffc050202c56:	fc843583          	ld	a1,-56(s0)
ffffffc050202c5a:	fd043503          	ld	a0,-48(s0)
ffffffc050202c5e:	d33ff0ef          	jal	ra,ffffffc050202990 <init_pcb_stack>
ffffffc050202c62:	0004e697          	auipc	a3,0x4e
ffffffc050202c66:	69668693          	addi	a3,a3,1686 # ffffffc0502512f8 <pcb>
ffffffc050202c6a:	fd842703          	lw	a4,-40(s0)
ffffffc050202c6e:	87ba                	mv	a5,a4
ffffffc050202c70:	078a                	slli	a5,a5,0x2
ffffffc050202c72:	97ba                	add	a5,a5,a4
ffffffc050202c74:	079a                	slli	a5,a5,0x6
ffffffc050202c76:	97b6                	add	a5,a5,a3
ffffffc050202c78:	77fc                	ld	a5,232(a5)
ffffffc050202c7a:	853e                	mv	a0,a5
ffffffc050202c7c:	911ff0ef          	jal	ra,ffffffc05020258c <kva2pa>
ffffffc050202c80:	862a                	mv	a2,a0
ffffffc050202c82:	0004e697          	auipc	a3,0x4e
ffffffc050202c86:	67668693          	addi	a3,a3,1654 # ffffffc0502512f8 <pcb>
ffffffc050202c8a:	fd842703          	lw	a4,-40(s0)
ffffffc050202c8e:	87ba                	mv	a5,a4
ffffffc050202c90:	078a                	slli	a5,a5,0x2
ffffffc050202c92:	97ba                	add	a5,a5,a4
ffffffc050202c94:	079a                	slli	a5,a5,0x6
ffffffc050202c96:	97b6                	add	a5,a5,a3
ffffffc050202c98:	f7f0                	sd	a2,232(a5)
ffffffc050202c9a:	a825                	j	ffffffc050202cd2 <init_pcb+0x264>
ffffffc050202c9c:	0004e697          	auipc	a3,0x4e
ffffffc050202ca0:	65c68693          	addi	a3,a3,1628 # ffffffc0502512f8 <pcb>
ffffffc050202ca4:	fd842703          	lw	a4,-40(s0)
ffffffc050202ca8:	87ba                	mv	a5,a4
ffffffc050202caa:	078a                	slli	a5,a5,0x2
ffffffc050202cac:	97ba                	add	a5,a5,a4
ffffffc050202cae:	079a                	slli	a5,a5,0x6
ffffffc050202cb0:	97b6                	add	a5,a5,a3
ffffffc050202cb2:	0e07a823          	sw	zero,240(a5)
ffffffc050202cb6:	0004e697          	auipc	a3,0x4e
ffffffc050202cba:	64268693          	addi	a3,a3,1602 # ffffffc0502512f8 <pcb>
ffffffc050202cbe:	fd842703          	lw	a4,-40(s0)
ffffffc050202cc2:	87ba                	mv	a5,a4
ffffffc050202cc4:	078a                	slli	a5,a5,0x2
ffffffc050202cc6:	97ba                	add	a5,a5,a4
ffffffc050202cc8:	079a                	slli	a5,a5,0x6
ffffffc050202cca:	97b6                	add	a5,a5,a3
ffffffc050202ccc:	470d                	li	a4,3
ffffffc050202cce:	10e7a823          	sw	a4,272(a5)
ffffffc050202cd2:	0004e697          	auipc	a3,0x4e
ffffffc050202cd6:	62668693          	addi	a3,a3,1574 # ffffffc0502512f8 <pcb>
ffffffc050202cda:	fd842703          	lw	a4,-40(s0)
ffffffc050202cde:	87ba                	mv	a5,a4
ffffffc050202ce0:	078a                	slli	a5,a5,0x2
ffffffc050202ce2:	97ba                	add	a5,a5,a4
ffffffc050202ce4:	079a                	slli	a5,a5,0x6
ffffffc050202ce6:	97b6                	add	a5,a5,a3
ffffffc050202ce8:	0e07aa23          	sw	zero,244(a5)
ffffffc050202cec:	0004e697          	auipc	a3,0x4e
ffffffc050202cf0:	60c68693          	addi	a3,a3,1548 # ffffffc0502512f8 <pcb>
ffffffc050202cf4:	fd842703          	lw	a4,-40(s0)
ffffffc050202cf8:	87ba                	mv	a5,a4
ffffffc050202cfa:	078a                	slli	a5,a5,0x2
ffffffc050202cfc:	97ba                	add	a5,a5,a4
ffffffc050202cfe:	079a                	slli	a5,a5,0x6
ffffffc050202d00:	97b6                	add	a5,a5,a3
ffffffc050202d02:	0607a023          	sw	zero,96(a5)
ffffffc050202d06:	0004e697          	auipc	a3,0x4e
ffffffc050202d0a:	5f268693          	addi	a3,a3,1522 # ffffffc0502512f8 <pcb>
ffffffc050202d0e:	fd842703          	lw	a4,-40(s0)
ffffffc050202d12:	87ba                	mv	a5,a4
ffffffc050202d14:	078a                	slli	a5,a5,0x2
ffffffc050202d16:	97ba                	add	a5,a5,a4
ffffffc050202d18:	079a                	slli	a5,a5,0x6
ffffffc050202d1a:	97b6                	add	a5,a5,a3
ffffffc050202d1c:	0e07ac23          	sw	zero,248(a5)
ffffffc050202d20:	fc042e23          	sw	zero,-36(s0)
ffffffc050202d24:	a80d                	j	ffffffc050202d56 <init_pcb+0x2e8>
ffffffc050202d26:	0004e697          	auipc	a3,0x4e
ffffffc050202d2a:	5d268693          	addi	a3,a3,1490 # ffffffc0502512f8 <pcb>
ffffffc050202d2e:	fdc42603          	lw	a2,-36(s0)
ffffffc050202d32:	fd842703          	lw	a4,-40(s0)
ffffffc050202d36:	87ba                	mv	a5,a4
ffffffc050202d38:	078a                	slli	a5,a5,0x2
ffffffc050202d3a:	97ba                	add	a5,a5,a4
ffffffc050202d3c:	0792                	slli	a5,a5,0x4
ffffffc050202d3e:	97b2                	add	a5,a5,a2
ffffffc050202d40:	03c78793          	addi	a5,a5,60
ffffffc050202d44:	078a                	slli	a5,a5,0x2
ffffffc050202d46:	97b6                	add	a5,a5,a3
ffffffc050202d48:	0007a623          	sw	zero,12(a5)
ffffffc050202d4c:	fdc42783          	lw	a5,-36(s0)
ffffffc050202d50:	2785                	addiw	a5,a5,1
ffffffc050202d52:	fcf42e23          	sw	a5,-36(s0)
ffffffc050202d56:	fdc42783          	lw	a5,-36(s0)
ffffffc050202d5a:	0007871b          	sext.w	a4,a5
ffffffc050202d5e:	4791                	li	a5,4
ffffffc050202d60:	fce7d3e3          	bge	a5,a4,ffffffc050202d26 <init_pcb+0x2b8>
ffffffc050202d64:	0004e697          	auipc	a3,0x4e
ffffffc050202d68:	59468693          	addi	a3,a3,1428 # ffffffc0502512f8 <pcb>
ffffffc050202d6c:	fd842703          	lw	a4,-40(s0)
ffffffc050202d70:	87ba                	mv	a5,a4
ffffffc050202d72:	078a                	slli	a5,a5,0x2
ffffffc050202d74:	97ba                	add	a5,a5,a4
ffffffc050202d76:	079a                	slli	a5,a5,0x6
ffffffc050202d78:	97b6                	add	a5,a5,a3
ffffffc050202d7a:	1207a023          	sw	zero,288(a5)
ffffffc050202d7e:	0004e697          	auipc	a3,0x4e
ffffffc050202d82:	57a68693          	addi	a3,a3,1402 # ffffffc0502512f8 <pcb>
ffffffc050202d86:	fd842703          	lw	a4,-40(s0)
ffffffc050202d8a:	87ba                	mv	a5,a4
ffffffc050202d8c:	078a                	slli	a5,a5,0x2
ffffffc050202d8e:	97ba                	add	a5,a5,a4
ffffffc050202d90:	079a                	slli	a5,a5,0x6
ffffffc050202d92:	97b6                	add	a5,a5,a3
ffffffc050202d94:	1007aa23          	sw	zero,276(a5)
ffffffc050202d98:	fd842783          	lw	a5,-40(s0)
ffffffc050202d9c:	2785                	addiw	a5,a5,1
ffffffc050202d9e:	fcf42c23          	sw	a5,-40(s0)
ffffffc050202da2:	fd842783          	lw	a5,-40(s0)
ffffffc050202da6:	0007871b          	sext.w	a4,a5
ffffffc050202daa:	47b9                	li	a5,14
ffffffc050202dac:	cee7d1e3          	bge	a5,a4,ffffffc050202a8e <init_pcb+0x20>
ffffffc050202db0:	0004e797          	auipc	a5,0x4e
ffffffc050202db4:	52878793          	addi	a5,a5,1320 # ffffffc0502512d8 <current_running>
ffffffc050202db8:	00008717          	auipc	a4,0x8
ffffffc050202dbc:	8e870713          	addi	a4,a4,-1816 # ffffffc05020a6a0 <pid0_pcb>
ffffffc050202dc0:	e398                	sd	a4,0(a5)
ffffffc050202dc2:	0004e797          	auipc	a5,0x4e
ffffffc050202dc6:	52678793          	addi	a5,a5,1318 # ffffffc0502512e8 <next_running>
ffffffc050202dca:	00008717          	auipc	a4,0x8
ffffffc050202dce:	8d670713          	addi	a4,a4,-1834 # ffffffc05020a6a0 <pid0_pcb>
ffffffc050202dd2:	e398                	sd	a4,0(a5)
ffffffc050202dd4:	0001                	nop
ffffffc050202dd6:	70e2                	ld	ra,56(sp)
ffffffc050202dd8:	7442                	ld	s0,48(sp)
ffffffc050202dda:	74a2                	ld	s1,40(sp)
ffffffc050202ddc:	6121                	addi	sp,sp,64
ffffffc050202dde:	8082                	ret

ffffffc050202de0 <init_syscall>:
ffffffc050202de0:	1101                	addi	sp,sp,-32
ffffffc050202de2:	ec22                	sd	s0,24(sp)
ffffffc050202de4:	1000                	addi	s0,sp,32
ffffffc050202de6:	fe042623          	sw	zero,-20(s0)
ffffffc050202dea:	a01d                	j	ffffffc050202e10 <init_syscall+0x30>
ffffffc050202dec:	00051717          	auipc	a4,0x51
ffffffc050202df0:	d0c70713          	addi	a4,a4,-756 # ffffffc050253af8 <syscall>
ffffffc050202df4:	fec42783          	lw	a5,-20(s0)
ffffffc050202df8:	078e                	slli	a5,a5,0x3
ffffffc050202dfa:	97ba                	add	a5,a5,a4
ffffffc050202dfc:	00002717          	auipc	a4,0x2
ffffffc050202e00:	9ea70713          	addi	a4,a4,-1558 # ffffffc0502047e6 <handle_other>
ffffffc050202e04:	e398                	sd	a4,0(a5)
ffffffc050202e06:	fec42783          	lw	a5,-20(s0)
ffffffc050202e0a:	2785                	addiw	a5,a5,1
ffffffc050202e0c:	fef42623          	sw	a5,-20(s0)
ffffffc050202e10:	fec42783          	lw	a5,-20(s0)
ffffffc050202e14:	0007871b          	sext.w	a4,a5
ffffffc050202e18:	03f00793          	li	a5,63
ffffffc050202e1c:	fce7d8e3          	bge	a5,a4,ffffffc050202dec <init_syscall+0xc>
ffffffc050202e20:	00051797          	auipc	a5,0x51
ffffffc050202e24:	cd878793          	addi	a5,a5,-808 # ffffffc050253af8 <syscall>
ffffffc050202e28:	00005717          	auipc	a4,0x5
ffffffc050202e2c:	82470713          	addi	a4,a4,-2012 # ffffffc05020764c <do_sleep>
ffffffc050202e30:	eb98                	sd	a4,16(a5)
ffffffc050202e32:	00051797          	auipc	a5,0x51
ffffffc050202e36:	cc678793          	addi	a5,a5,-826 # ffffffc050253af8 <syscall>
ffffffc050202e3a:	00004717          	auipc	a4,0x4
ffffffc050202e3e:	46270713          	addi	a4,a4,1122 # ffffffc05020729c <do_scheduler>
ffffffc050202e42:	ff98                	sd	a4,56(a5)
ffffffc050202e44:	00051797          	auipc	a5,0x51
ffffffc050202e48:	cb478793          	addi	a5,a5,-844 # ffffffc050253af8 <syscall>
ffffffc050202e4c:	00001717          	auipc	a4,0x1
ffffffc050202e50:	a8670713          	addi	a4,a4,-1402 # ffffffc0502038d2 <screen_write>
ffffffc050202e54:	f3d8                	sd	a4,160(a5)
ffffffc050202e56:	00051797          	auipc	a5,0x51
ffffffc050202e5a:	ca278793          	addi	a5,a5,-862 # ffffffc050253af8 <syscall>
ffffffc050202e5e:	00001717          	auipc	a4,0x1
ffffffc050202e62:	97270713          	addi	a4,a4,-1678 # ffffffc0502037d0 <screen_move_cursor>
ffffffc050202e66:	fbd8                	sd	a4,176(a5)
ffffffc050202e68:	00051797          	auipc	a5,0x51
ffffffc050202e6c:	c9078793          	addi	a5,a5,-880 # ffffffc050253af8 <syscall>
ffffffc050202e70:	00001717          	auipc	a4,0x1
ffffffc050202e74:	ac070713          	addi	a4,a4,-1344 # ffffffc050203930 <screen_reflush>
ffffffc050202e78:	ffd8                	sd	a4,184(a5)
ffffffc050202e7a:	00051797          	auipc	a5,0x51
ffffffc050202e7e:	c7e78793          	addi	a5,a5,-898 # ffffffc050253af8 <syscall>
ffffffc050202e82:	00004717          	auipc	a4,0x4
ffffffc050202e86:	29a70713          	addi	a4,a4,666 # ffffffc05020711c <get_time_base>
ffffffc050202e8a:	fbf8                	sd	a4,240(a5)
ffffffc050202e8c:	00051797          	auipc	a5,0x51
ffffffc050202e90:	c6c78793          	addi	a5,a5,-916 # ffffffc050253af8 <syscall>
ffffffc050202e94:	00004717          	auipc	a4,0x4
ffffffc050202e98:	23c70713          	addi	a4,a4,572 # ffffffc0502070d0 <get_ticks>
ffffffc050202e9c:	fff8                	sd	a4,248(a5)
ffffffc050202e9e:	00051797          	auipc	a5,0x51
ffffffc050202ea2:	c5a78793          	addi	a5,a5,-934 # ffffffc050253af8 <syscall>
ffffffc050202ea6:	00003717          	auipc	a4,0x3
ffffffc050202eaa:	11c70713          	addi	a4,a4,284 # ffffffc050205fc2 <do_mutex_lock_init>
ffffffc050202eae:	14e7b023          	sd	a4,320(a5)
ffffffc050202eb2:	00051797          	auipc	a5,0x51
ffffffc050202eb6:	c4678793          	addi	a5,a5,-954 # ffffffc050253af8 <syscall>
ffffffc050202eba:	00003717          	auipc	a4,0x3
ffffffc050202ebe:	12e70713          	addi	a4,a4,302 # ffffffc050205fe8 <do_mutex_lock_acquire>
ffffffc050202ec2:	14e7b423          	sd	a4,328(a5)
ffffffc050202ec6:	00051797          	auipc	a5,0x51
ffffffc050202eca:	c3278793          	addi	a5,a5,-974 # ffffffc050253af8 <syscall>
ffffffc050202ece:	00003717          	auipc	a4,0x3
ffffffc050202ed2:	1f870713          	addi	a4,a4,504 # ffffffc0502060c6 <do_mutex_lock_release>
ffffffc050202ed6:	14e7b823          	sd	a4,336(a5)
ffffffc050202eda:	00051797          	auipc	a5,0x51
ffffffc050202ede:	c1e78793          	addi	a5,a5,-994 # ffffffc050253af8 <syscall>
ffffffc050202ee2:	fffff717          	auipc	a4,0xfffff
ffffffc050202ee6:	79070713          	addi	a4,a4,1936 # ffffffc050202672 <bios_getchar>
ffffffc050202eea:	e7f8                	sd	a4,200(a5)
ffffffc050202eec:	00051797          	auipc	a5,0x51
ffffffc050202ef0:	c0c78793          	addi	a5,a5,-1012 # ffffffc050253af8 <syscall>
ffffffc050202ef4:	fffff717          	auipc	a4,0xfffff
ffffffc050202ef8:	75670713          	addi	a4,a4,1878 # ffffffc05020264a <bios_putchar>
ffffffc050202efc:	e7b8                	sd	a4,72(a5)
ffffffc050202efe:	00051797          	auipc	a5,0x51
ffffffc050202f02:	bfa78793          	addi	a5,a5,-1030 # ffffffc050253af8 <syscall>
ffffffc050202f06:	00005717          	auipc	a4,0x5
ffffffc050202f0a:	88a70713          	addi	a4,a4,-1910 # ffffffc050207790 <do_process_show>
ffffffc050202f0e:	f798                	sd	a4,40(a5)
ffffffc050202f10:	00051797          	auipc	a5,0x51
ffffffc050202f14:	be878793          	addi	a5,a5,-1048 # ffffffc050253af8 <syscall>
ffffffc050202f18:	00001717          	auipc	a4,0x1
ffffffc050202f1c:	80270713          	addi	a4,a4,-2046 # ffffffc05020371a <screen_clear>
ffffffc050202f20:	e3f8                	sd	a4,192(a5)
ffffffc050202f22:	00051797          	auipc	a5,0x51
ffffffc050202f26:	bd678793          	addi	a5,a5,-1066 # ffffffc050253af8 <syscall>
ffffffc050202f2a:	00005717          	auipc	a4,0x5
ffffffc050202f2e:	d4c70713          	addi	a4,a4,-692 # ffffffc050207c76 <do_kill>
ffffffc050202f32:	ef98                	sd	a4,24(a5)
ffffffc050202f34:	00051797          	auipc	a5,0x51
ffffffc050202f38:	bc478793          	addi	a5,a5,-1084 # ffffffc050253af8 <syscall>
ffffffc050202f3c:	00005717          	auipc	a4,0x5
ffffffc050202f40:	fca70713          	addi	a4,a4,-54 # ffffffc050207f06 <do_exit>
ffffffc050202f44:	e798                	sd	a4,8(a5)
ffffffc050202f46:	00051797          	auipc	a5,0x51
ffffffc050202f4a:	bb278793          	addi	a5,a5,-1102 # ffffffc050253af8 <syscall>
ffffffc050202f4e:	00005717          	auipc	a4,0x5
ffffffc050202f52:	15670713          	addi	a4,a4,342 # ffffffc0502080a4 <do_waitpid>
ffffffc050202f56:	f398                	sd	a4,32(a5)
ffffffc050202f58:	00051797          	auipc	a5,0x51
ffffffc050202f5c:	ba078793          	addi	a5,a5,-1120 # ffffffc050253af8 <syscall>
ffffffc050202f60:	00005717          	auipc	a4,0x5
ffffffc050202f64:	23470713          	addi	a4,a4,564 # ffffffc050208194 <do_getpid>
ffffffc050202f68:	fb98                	sd	a4,48(a5)
ffffffc050202f6a:	00051797          	auipc	a5,0x51
ffffffc050202f6e:	b8e78793          	addi	a5,a5,-1138 # ffffffc050253af8 <syscall>
ffffffc050202f72:	00005717          	auipc	a4,0x5
ffffffc050202f76:	25a70713          	addi	a4,a4,602 # ffffffc0502081cc <do_exec>
ffffffc050202f7a:	e398                	sd	a4,0(a5)
ffffffc050202f7c:	00051797          	auipc	a5,0x51
ffffffc050202f80:	b7c78793          	addi	a5,a5,-1156 # ffffffc050253af8 <syscall>
ffffffc050202f84:	00003717          	auipc	a4,0x3
ffffffc050202f88:	32a70713          	addi	a4,a4,810 # ffffffc0502062ae <do_barrier_init>
ffffffc050202f8c:	16e7b023          	sd	a4,352(a5)
ffffffc050202f90:	00051797          	auipc	a5,0x51
ffffffc050202f94:	b6878793          	addi	a5,a5,-1176 # ffffffc050253af8 <syscall>
ffffffc050202f98:	00003717          	auipc	a4,0x3
ffffffc050202f9c:	36070713          	addi	a4,a4,864 # ffffffc0502062f8 <do_barrier_wait>
ffffffc050202fa0:	16e7b423          	sd	a4,360(a5)
ffffffc050202fa4:	00051797          	auipc	a5,0x51
ffffffc050202fa8:	b5478793          	addi	a5,a5,-1196 # ffffffc050253af8 <syscall>
ffffffc050202fac:	00003717          	auipc	a4,0x3
ffffffc050202fb0:	46a70713          	addi	a4,a4,1130 # ffffffc050206416 <do_barrier_destroy>
ffffffc050202fb4:	16e7b823          	sd	a4,368(a5)
ffffffc050202fb8:	00051797          	auipc	a5,0x51
ffffffc050202fbc:	b4078793          	addi	a5,a5,-1216 # ffffffc050253af8 <syscall>
ffffffc050202fc0:	00003717          	auipc	a4,0x3
ffffffc050202fc4:	55070713          	addi	a4,a4,1360 # ffffffc050206510 <do_condition_init>
ffffffc050202fc8:	16e7bc23          	sd	a4,376(a5)
ffffffc050202fcc:	00051797          	auipc	a5,0x51
ffffffc050202fd0:	b2c78793          	addi	a5,a5,-1236 # ffffffc050253af8 <syscall>
ffffffc050202fd4:	00003717          	auipc	a4,0x3
ffffffc050202fd8:	59670713          	addi	a4,a4,1430 # ffffffc05020656a <do_condition_wait>
ffffffc050202fdc:	18e7b023          	sd	a4,384(a5)
ffffffc050202fe0:	00051797          	auipc	a5,0x51
ffffffc050202fe4:	b1878793          	addi	a5,a5,-1256 # ffffffc050253af8 <syscall>
ffffffc050202fe8:	00003717          	auipc	a4,0x3
ffffffc050202fec:	5f470713          	addi	a4,a4,1524 # ffffffc0502065dc <do_condition_signal>
ffffffc050202ff0:	18e7b423          	sd	a4,392(a5)
ffffffc050202ff4:	00051797          	auipc	a5,0x51
ffffffc050202ff8:	b0478793          	addi	a5,a5,-1276 # ffffffc050253af8 <syscall>
ffffffc050202ffc:	00003717          	auipc	a4,0x3
ffffffc050203000:	61670713          	addi	a4,a4,1558 # ffffffc050206612 <do_condition_broadcast>
ffffffc050203004:	18e7b823          	sd	a4,400(a5)
ffffffc050203008:	00051797          	auipc	a5,0x51
ffffffc05020300c:	af078793          	addi	a5,a5,-1296 # ffffffc050253af8 <syscall>
ffffffc050203010:	00003717          	auipc	a4,0x3
ffffffc050203014:	65e70713          	addi	a4,a4,1630 # ffffffc05020666e <do_condition_destroy>
ffffffc050203018:	18e7bc23          	sd	a4,408(a5)
ffffffc05020301c:	00051797          	auipc	a5,0x51
ffffffc050203020:	adc78793          	addi	a5,a5,-1316 # ffffffc050253af8 <syscall>
ffffffc050203024:	00003717          	auipc	a4,0x3
ffffffc050203028:	75470713          	addi	a4,a4,1876 # ffffffc050206778 <do_mbox_open>
ffffffc05020302c:	1ae7b023          	sd	a4,416(a5)
ffffffc050203030:	00051797          	auipc	a5,0x51
ffffffc050203034:	ac878793          	addi	a5,a5,-1336 # ffffffc050253af8 <syscall>
ffffffc050203038:	00004717          	auipc	a4,0x4
ffffffc05020303c:	9bc70713          	addi	a4,a4,-1604 # ffffffc0502069f4 <do_mbox_close>
ffffffc050203040:	1ae7b423          	sd	a4,424(a5)
ffffffc050203044:	00051797          	auipc	a5,0x51
ffffffc050203048:	ab478793          	addi	a5,a5,-1356 # ffffffc050253af8 <syscall>
ffffffc05020304c:	00004717          	auipc	a4,0x4
ffffffc050203050:	aa470713          	addi	a4,a4,-1372 # ffffffc050206af0 <do_mbox_send>
ffffffc050203054:	1ae7b823          	sd	a4,432(a5)
ffffffc050203058:	00051797          	auipc	a5,0x51
ffffffc05020305c:	aa078793          	addi	a5,a5,-1376 # ffffffc050253af8 <syscall>
ffffffc050203060:	00004717          	auipc	a4,0x4
ffffffc050203064:	d3070713          	addi	a4,a4,-720 # ffffffc050206d90 <do_mbox_recv>
ffffffc050203068:	1ae7bc23          	sd	a4,440(a5)
ffffffc05020306c:	00051797          	auipc	a5,0x51
ffffffc050203070:	a8c78793          	addi	a5,a5,-1396 # ffffffc050253af8 <syscall>
ffffffc050203074:	00000717          	auipc	a4,0x0
ffffffc050203078:	7c870713          	addi	a4,a4,1992 # ffffffc05020383c <screen_backspace>
ffffffc05020307c:	26e7bc23          	sd	a4,632(a5)
ffffffc050203080:	00051797          	auipc	a5,0x51
ffffffc050203084:	a7878793          	addi	a5,a5,-1416 # ffffffc050253af8 <syscall>
ffffffc050203088:	00005717          	auipc	a4,0x5
ffffffc05020308c:	6d670713          	addi	a4,a4,1750 # ffffffc05020875e <do_taskset>
ffffffc050203090:	28e7b023          	sd	a4,640(a5)
ffffffc050203094:	00051797          	auipc	a5,0x51
ffffffc050203098:	a6478793          	addi	a5,a5,-1436 # ffffffc050253af8 <syscall>
ffffffc05020309c:	00005717          	auipc	a4,0x5
ffffffc0502030a0:	78270713          	addi	a4,a4,1922 # ffffffc05020881e <do_tasksetrun>
ffffffc0502030a4:	28e7b423          	sd	a4,648(a5)
ffffffc0502030a8:	00051797          	auipc	a5,0x51
ffffffc0502030ac:	a5078793          	addi	a5,a5,-1456 # ffffffc050253af8 <syscall>
ffffffc0502030b0:	00006717          	auipc	a4,0x6
ffffffc0502030b4:	82870713          	addi	a4,a4,-2008 # ffffffc0502088d8 <pthread_create>
ffffffc0502030b8:	28e7b823          	sd	a4,656(a5)
ffffffc0502030bc:	00051797          	auipc	a5,0x51
ffffffc0502030c0:	a3c78793          	addi	a5,a5,-1476 # ffffffc050253af8 <syscall>
ffffffc0502030c4:	00002717          	auipc	a4,0x2
ffffffc0502030c8:	61e70713          	addi	a4,a4,1566 # ffffffc0502056e2 <shm_page_get>
ffffffc0502030cc:	1ce7b023          	sd	a4,448(a5)
ffffffc0502030d0:	00051797          	auipc	a5,0x51
ffffffc0502030d4:	a2878793          	addi	a5,a5,-1496 # ffffffc050253af8 <syscall>
ffffffc0502030d8:	00003717          	auipc	a4,0x3
ffffffc0502030dc:	96c70713          	addi	a4,a4,-1684 # ffffffc050205a44 <shm_page_dt>
ffffffc0502030e0:	1ce7b423          	sd	a4,456(a5)
ffffffc0502030e4:	00051797          	auipc	a5,0x51
ffffffc0502030e8:	a1478793          	addi	a5,a5,-1516 # ffffffc050253af8 <syscall>
ffffffc0502030ec:	00006717          	auipc	a4,0x6
ffffffc0502030f0:	ddc70713          	addi	a4,a4,-548 # ffffffc050208ec8 <do_net_send>
ffffffc0502030f4:	1ee7bc23          	sd	a4,504(a5)
ffffffc0502030f8:	00051797          	auipc	a5,0x51
ffffffc0502030fc:	a0078793          	addi	a5,a5,-1536 # ffffffc050253af8 <syscall>
ffffffc050203100:	00006717          	auipc	a4,0x6
ffffffc050203104:	e6070713          	addi	a4,a4,-416 # ffffffc050208f60 <do_net_recv>
ffffffc050203108:	20e7b023          	sd	a4,512(a5)
ffffffc05020310c:	0001                	nop
ffffffc05020310e:	6462                	ld	s0,24(sp)
ffffffc050203110:	6105                	addi	sp,sp,32
ffffffc050203112:	8082                	ret

ffffffc050203114 <cancel_mapping>:
ffffffc050203114:	715d                	addi	sp,sp,-80
ffffffc050203116:	e486                	sd	ra,72(sp)
ffffffc050203118:	e0a2                	sd	s0,64(sp)
ffffffc05020311a:	fc26                	sd	s1,56(sp)
ffffffc05020311c:	0880                	addi	s0,sp,80
ffffffc05020311e:	fc0517b7          	lui	a5,0xfc051
ffffffc050203122:	07b2                	slli	a5,a5,0xc
ffffffc050203124:	fcf43c23          	sd	a5,-40(s0)
ffffffc050203128:	502007b7          	lui	a5,0x50200
ffffffc05020312c:	fcf43823          	sd	a5,-48(s0)
ffffffc050203130:	fd043783          	ld	a5,-48(s0)
ffffffc050203134:	83f9                	srli	a5,a5,0x1e
ffffffc050203136:	1ff7f793          	andi	a5,a5,511
ffffffc05020313a:	fcf43423          	sd	a5,-56(s0)
ffffffc05020313e:	fd043783          	ld	a5,-48(s0)
ffffffc050203142:	83d5                	srli	a5,a5,0x15
ffffffc050203144:	1ff7f793          	andi	a5,a5,511
ffffffc050203148:	fcf43023          	sd	a5,-64(s0)
ffffffc05020314c:	fc843783          	ld	a5,-56(s0)
ffffffc050203150:	00379713          	slli	a4,a5,0x3
ffffffc050203154:	fd843783          	ld	a5,-40(s0)
ffffffc050203158:	97ba                	add	a5,a5,a4
ffffffc05020315a:	faf43c23          	sd	a5,-72(s0)
ffffffc05020315e:	fc043783          	ld	a5,-64(s0)
ffffffc050203162:	00379493          	slli	s1,a5,0x3
ffffffc050203166:	fb843783          	ld	a5,-72(s0)
ffffffc05020316a:	639c                	ld	a5,0(a5)
ffffffc05020316c:	853e                	mv	a0,a5
ffffffc05020316e:	c56ff0ef          	jal	ra,ffffffc0502025c4 <get_pa>
ffffffc050203172:	87aa                	mv	a5,a0
ffffffc050203174:	853e                	mv	a0,a5
ffffffc050203176:	c32ff0ef          	jal	ra,ffffffc0502025a8 <pa2kva>
ffffffc05020317a:	87aa                	mv	a5,a0
ffffffc05020317c:	97a6                	add	a5,a5,s1
ffffffc05020317e:	faf43823          	sd	a5,-80(s0)
ffffffc050203182:	fb843783          	ld	a5,-72(s0)
ffffffc050203186:	0007b023          	sd	zero,0(a5) # 50200000 <boot_stack_top_base-0x2000>
ffffffc05020318a:	fb043783          	ld	a5,-80(s0)
ffffffc05020318e:	0007b023          	sd	zero,0(a5)
ffffffc050203192:	0001                	nop
ffffffc050203194:	60a6                	ld	ra,72(sp)
ffffffc050203196:	6406                	ld	s0,64(sp)
ffffffc050203198:	74e2                	ld	s1,56(sp)
ffffffc05020319a:	6161                	addi	sp,sp,80
ffffffc05020319c:	8082                	ret

ffffffc05020319e <main>:
ffffffc05020319e:	7179                	addi	sp,sp,-48
ffffffc0502031a0:	f406                	sd	ra,40(sp)
ffffffc0502031a2:	f022                	sd	s0,32(sp)
ffffffc0502031a4:	1800                	addi	s0,sp,48
ffffffc0502031a6:	806ff0ef          	jal	ra,ffffffc0502021ac <get_current_cpu_id>
ffffffc0502031aa:	fea43423          	sd	a0,-24(s0)
ffffffc0502031ae:	fe843783          	ld	a5,-24(s0)
ffffffc0502031b2:	12079963          	bnez	a5,ffffffc0502032e4 <main+0x146>
ffffffc0502031b6:	6a3030ef          	jal	ra,ffffffc050207058 <smp_init>
ffffffc0502031ba:	6d1030ef          	jal	ra,ffffffc05020708a <lock_kernel>
ffffffc0502031be:	6b5030ef          	jal	ra,ffffffc050207072 <wakeup_other_hart>
ffffffc0502031c2:	0001                	nop
ffffffc0502031c4:	00007797          	auipc	a5,0x7
ffffffc0502031c8:	7ec78793          	addi	a5,a5,2028 # ffffffc05020a9b0 <flag>
ffffffc0502031cc:	439c                	lw	a5,0(a5)
ffffffc0502031ce:	dbfd                	beqz	a5,ffffffc0502031c4 <main+0x26>
ffffffc0502031d0:	f45ff0ef          	jal	ra,ffffffc050203114 <cancel_mapping>
ffffffc0502031d4:	d2cff0ef          	jal	ra,ffffffc050202700 <init_jmptab>
ffffffc0502031d8:	e36ff0ef          	jal	ra,ffffffc05020280e <init_task_info>
ffffffc0502031dc:	4501                	li	a0,0
ffffffc0502031de:	cf8ff0ef          	jal	ra,ffffffc0502026d6 <bios_read_fdt>
ffffffc0502031e2:	872a                	mv	a4,a0
ffffffc0502031e4:	00007797          	auipc	a5,0x7
ffffffc0502031e8:	7dc78793          	addi	a5,a5,2012 # ffffffc05020a9c0 <time_base>
ffffffc0502031ec:	e398                	sd	a4,0(a5)
ffffffc0502031ee:	4509                	li	a0,2
ffffffc0502031f0:	ce6ff0ef          	jal	ra,ffffffc0502026d6 <bios_read_fdt>
ffffffc0502031f4:	87aa                	mv	a5,a0
ffffffc0502031f6:	873e                	mv	a4,a5
ffffffc0502031f8:	0004a797          	auipc	a5,0x4a
ffffffc0502031fc:	42878793          	addi	a5,a5,1064 # ffffffc05024d620 <e1000>
ffffffc050203200:	e398                	sd	a4,0(a5)
ffffffc050203202:	450d                	li	a0,3
ffffffc050203204:	cd2ff0ef          	jal	ra,ffffffc0502026d6 <bios_read_fdt>
ffffffc050203208:	fea43023          	sd	a0,-32(s0)
ffffffc05020320c:	4511                	li	a0,4
ffffffc05020320e:	cc8ff0ef          	jal	ra,ffffffc0502026d6 <bios_read_fdt>
ffffffc050203212:	87aa                	mv	a5,a0
ffffffc050203214:	fcf42e23          	sw	a5,-36(s0)
ffffffc050203218:	040005b7          	lui	a1,0x4000
ffffffc05020321c:	fe043503          	ld	a0,-32(s0)
ffffffc050203220:	2b9020ef          	jal	ra,ffffffc050205cd8 <ioremap>
ffffffc050203224:	87aa                	mv	a5,a0
ffffffc050203226:	fef43023          	sd	a5,-32(s0)
ffffffc05020322a:	0004a797          	auipc	a5,0x4a
ffffffc05020322e:	3f678793          	addi	a5,a5,1014 # ffffffc05024d620 <e1000>
ffffffc050203232:	639c                	ld	a5,0(a5)
ffffffc050203234:	65a1                	lui	a1,0x8
ffffffc050203236:	853e                	mv	a0,a5
ffffffc050203238:	2a1020ef          	jal	ra,ffffffc050205cd8 <ioremap>
ffffffc05020323c:	872a                	mv	a4,a0
ffffffc05020323e:	0004a797          	auipc	a5,0x4a
ffffffc050203242:	3e278793          	addi	a5,a5,994 # ffffffc05024d620 <e1000>
ffffffc050203246:	e398                	sd	a4,0(a5)
ffffffc050203248:	827ff0ef          	jal	ra,ffffffc050202a6e <init_pcb>
ffffffc05020324c:	f55fe0ef          	jal	ra,ffffffc0502021a0 <let_ipi_go>
ffffffc050203250:	00007517          	auipc	a0,0x7
ffffffc050203254:	ce050513          	addi	a0,a0,-800 # ffffffc050209f30 <strcat+0x6e>
ffffffc050203258:	7ee060ef          	jal	ra,ffffffc050209a46 <printk>
ffffffc05020325c:	00007517          	auipc	a0,0x7
ffffffc050203260:	d0450513          	addi	a0,a0,-764 # ffffffc050209f60 <strcat+0x9e>
ffffffc050203264:	7e2060ef          	jal	ra,ffffffc050209a46 <printk>
ffffffc050203268:	4b1020ef          	jal	ra,ffffffc050205f18 <init_locks>
ffffffc05020326c:	00007517          	auipc	a0,0x7
ffffffc050203270:	d1c50513          	addi	a0,a0,-740 # ffffffc050209f88 <strcat+0xc6>
ffffffc050203274:	7d2060ef          	jal	ra,ffffffc050209a46 <printk>
ffffffc050203278:	7b3020ef          	jal	ra,ffffffc05020622a <init_barriers>
ffffffc05020327c:	22a030ef          	jal	ra,ffffffc0502064a6 <init_conditions>
ffffffc050203280:	462030ef          	jal	ra,ffffffc0502066e2 <init_mbox>
ffffffc050203284:	48a010ef          	jal	ra,ffffffc05020470e <init_exception>
ffffffc050203288:	00007517          	auipc	a0,0x7
ffffffc05020328c:	d3850513          	addi	a0,a0,-712 # ffffffc050209fc0 <strcat+0xfe>
ffffffc050203290:	7b6060ef          	jal	ra,ffffffc050209a46 <printk>
ffffffc050203294:	fdc42783          	lw	a5,-36(s0)
ffffffc050203298:	85be                	mv	a1,a5
ffffffc05020329a:	fe043503          	ld	a0,-32(s0)
ffffffc05020329e:	100010ef          	jal	ra,ffffffc05020439e <plic_init>
ffffffc0502032a2:	441000ef          	jal	ra,ffffffc050203ee2 <e1000_init>
ffffffc0502032a6:	00007517          	auipc	a0,0x7
ffffffc0502032aa:	d5a50513          	addi	a0,a0,-678 # ffffffc05020a000 <strcat+0x13e>
ffffffc0502032ae:	798060ef          	jal	ra,ffffffc050209a46 <printk>
ffffffc0502032b2:	b2fff0ef          	jal	ra,ffffffc050202de0 <init_syscall>
ffffffc0502032b6:	00007517          	auipc	a0,0x7
ffffffc0502032ba:	d8250513          	addi	a0,a0,-638 # ffffffc05020a038 <strcat+0x176>
ffffffc0502032be:	788060ef          	jal	ra,ffffffc050209a46 <printk>
ffffffc0502032c2:	43a000ef          	jal	ra,ffffffc0502036fc <init_screen>
ffffffc0502032c6:	00007517          	auipc	a0,0x7
ffffffc0502032ca:	da250513          	addi	a0,a0,-606 # ffffffc05020a068 <strcat+0x1a6>
ffffffc0502032ce:	778060ef          	jal	ra,ffffffc050209a46 <printk>
ffffffc0502032d2:	00007517          	auipc	a0,0x7
ffffffc0502032d6:	dc650513          	addi	a0,a0,-570 # ffffffc05020a098 <strcat+0x1d6>
ffffffc0502032da:	76c060ef          	jal	ra,ffffffc050209a46 <printk>
ffffffc0502032de:	e9ffe0ef          	jal	ra,ffffffc05020217c <setup_exception>
ffffffc0502032e2:	a099                	j	ffffffc050203328 <main+0x18a>
ffffffc0502032e4:	00007797          	auipc	a5,0x7
ffffffc0502032e8:	6cc78793          	addi	a5,a5,1740 # ffffffc05020a9b0 <flag>
ffffffc0502032ec:	4705                	li	a4,1
ffffffc0502032ee:	c398                	sw	a4,0(a5)
ffffffc0502032f0:	59b030ef          	jal	ra,ffffffc05020708a <lock_kernel>
ffffffc0502032f4:	0004e797          	auipc	a5,0x4e
ffffffc0502032f8:	fe478793          	addi	a5,a5,-28 # ffffffc0502512d8 <current_running>
ffffffc0502032fc:	00007717          	auipc	a4,0x7
ffffffc050203300:	4e470713          	addi	a4,a4,1252 # ffffffc05020a7e0 <pid0_pcb_slave>
ffffffc050203304:	e798                	sd	a4,8(a5)
ffffffc050203306:	0004e797          	auipc	a5,0x4e
ffffffc05020330a:	fe278793          	addi	a5,a5,-30 # ffffffc0502512e8 <next_running>
ffffffc05020330e:	00007717          	auipc	a4,0x7
ffffffc050203312:	4d270713          	addi	a4,a4,1234 # ffffffc05020a7e0 <pid0_pcb_slave>
ffffffc050203316:	e798                	sd	a4,8(a5)
ffffffc050203318:	e65fe0ef          	jal	ra,ffffffc05020217c <setup_exception>
ffffffc05020331c:	00007517          	auipc	a0,0x7
ffffffc050203320:	d9450513          	addi	a0,a0,-620 # ffffffc05020a0b0 <strcat+0x1ee>
ffffffc050203324:	722060ef          	jal	ra,ffffffc050209a46 <printk>
ffffffc050203328:	396010ef          	jal	ra,ffffffc0502046be <reset_timer>
ffffffc05020332c:	58b030ef          	jal	ra,ffffffc0502070b6 <unlock_kernel>
ffffffc050203330:	d05fe0ef          	jal	ra,ffffffc050202034 <enable_interrupt>
ffffffc050203334:	a001                	j	ffffffc050203334 <main+0x196>

ffffffc050203336 <call_bios>:
ffffffc050203336:	715d                	addi	sp,sp,-80
ffffffc050203338:	e486                	sd	ra,72(sp)
ffffffc05020333a:	e0a2                	sd	s0,64(sp)
ffffffc05020333c:	0880                	addi	s0,sp,80
ffffffc05020333e:	fca43c23          	sd	a0,-40(s0)
ffffffc050203342:	fcb43823          	sd	a1,-48(s0)
ffffffc050203346:	fcc43423          	sd	a2,-56(s0)
ffffffc05020334a:	fcd43023          	sd	a3,-64(s0)
ffffffc05020334e:	fae43c23          	sd	a4,-72(s0)
ffffffc050203352:	faf43823          	sd	a5,-80(s0)
ffffffc050203356:	ffc057b7          	lui	a5,0xffc05
ffffffc05020335a:	07d5                	addi	a5,a5,21
ffffffc05020335c:	07c2                	slli	a5,a5,0x10
ffffffc05020335e:	fef43423          	sd	a5,-24(s0)
ffffffc050203362:	fe843803          	ld	a6,-24(s0)
ffffffc050203366:	fb043783          	ld	a5,-80(s0)
ffffffc05020336a:	fb843703          	ld	a4,-72(s0)
ffffffc05020336e:	fc043683          	ld	a3,-64(s0)
ffffffc050203372:	fc843603          	ld	a2,-56(s0)
ffffffc050203376:	fd043583          	ld	a1,-48(s0)
ffffffc05020337a:	fd843503          	ld	a0,-40(s0)
ffffffc05020337e:	9802                	jalr	a6
ffffffc050203380:	87aa                	mv	a5,a0
ffffffc050203382:	853e                	mv	a0,a5
ffffffc050203384:	60a6                	ld	ra,72(sp)
ffffffc050203386:	6406                	ld	s0,64(sp)
ffffffc050203388:	6161                	addi	sp,sp,80
ffffffc05020338a:	8082                	ret

ffffffc05020338c <port_write_ch>:
ffffffc05020338c:	1101                	addi	sp,sp,-32
ffffffc05020338e:	ec06                	sd	ra,24(sp)
ffffffc050203390:	e822                	sd	s0,16(sp)
ffffffc050203392:	1000                	addi	s0,sp,32
ffffffc050203394:	87aa                	mv	a5,a0
ffffffc050203396:	fef407a3          	sb	a5,-17(s0)
ffffffc05020339a:	fef44583          	lbu	a1,-17(s0)
ffffffc05020339e:	4781                	li	a5,0
ffffffc0502033a0:	4701                	li	a4,0
ffffffc0502033a2:	4681                	li	a3,0
ffffffc0502033a4:	4601                	li	a2,0
ffffffc0502033a6:	4505                	li	a0,1
ffffffc0502033a8:	f8fff0ef          	jal	ra,ffffffc050203336 <call_bios>
ffffffc0502033ac:	0001                	nop
ffffffc0502033ae:	60e2                	ld	ra,24(sp)
ffffffc0502033b0:	6442                	ld	s0,16(sp)
ffffffc0502033b2:	6105                	addi	sp,sp,32
ffffffc0502033b4:	8082                	ret

ffffffc0502033b6 <port_write>:
ffffffc0502033b6:	1101                	addi	sp,sp,-32
ffffffc0502033b8:	ec06                	sd	ra,24(sp)
ffffffc0502033ba:	e822                	sd	s0,16(sp)
ffffffc0502033bc:	1000                	addi	s0,sp,32
ffffffc0502033be:	fea43423          	sd	a0,-24(s0)
ffffffc0502033c2:	fe843583          	ld	a1,-24(s0)
ffffffc0502033c6:	4781                	li	a5,0
ffffffc0502033c8:	4701                	li	a4,0
ffffffc0502033ca:	4681                	li	a3,0
ffffffc0502033cc:	4601                	li	a2,0
ffffffc0502033ce:	4525                	li	a0,9
ffffffc0502033d0:	f67ff0ef          	jal	ra,ffffffc050203336 <call_bios>
ffffffc0502033d4:	0001                	nop
ffffffc0502033d6:	60e2                	ld	ra,24(sp)
ffffffc0502033d8:	6442                	ld	s0,16(sp)
ffffffc0502033da:	6105                	addi	sp,sp,32
ffffffc0502033dc:	8082                	ret

ffffffc0502033de <port_read_ch>:
ffffffc0502033de:	1141                	addi	sp,sp,-16
ffffffc0502033e0:	e406                	sd	ra,8(sp)
ffffffc0502033e2:	e022                	sd	s0,0(sp)
ffffffc0502033e4:	0800                	addi	s0,sp,16
ffffffc0502033e6:	4781                	li	a5,0
ffffffc0502033e8:	4701                	li	a4,0
ffffffc0502033ea:	4681                	li	a3,0
ffffffc0502033ec:	4601                	li	a2,0
ffffffc0502033ee:	4581                	li	a1,0
ffffffc0502033f0:	4509                	li	a0,2
ffffffc0502033f2:	f45ff0ef          	jal	ra,ffffffc050203336 <call_bios>
ffffffc0502033f6:	87aa                	mv	a5,a0
ffffffc0502033f8:	2781                	sext.w	a5,a5
ffffffc0502033fa:	853e                	mv	a0,a5
ffffffc0502033fc:	60a2                	ld	ra,8(sp)
ffffffc0502033fe:	6402                	ld	s0,0(sp)
ffffffc050203400:	0141                	addi	sp,sp,16
ffffffc050203402:	8082                	ret

ffffffc050203404 <sd_read>:
ffffffc050203404:	1101                	addi	sp,sp,-32
ffffffc050203406:	ec06                	sd	ra,24(sp)
ffffffc050203408:	e822                	sd	s0,16(sp)
ffffffc05020340a:	1000                	addi	s0,sp,32
ffffffc05020340c:	87aa                	mv	a5,a0
ffffffc05020340e:	86ae                	mv	a3,a1
ffffffc050203410:	8732                	mv	a4,a2
ffffffc050203412:	fef42623          	sw	a5,-20(s0)
ffffffc050203416:	87b6                	mv	a5,a3
ffffffc050203418:	fef42423          	sw	a5,-24(s0)
ffffffc05020341c:	87ba                	mv	a5,a4
ffffffc05020341e:	fef42223          	sw	a5,-28(s0)
ffffffc050203422:	fec46583          	lwu	a1,-20(s0)
ffffffc050203426:	fe846603          	lwu	a2,-24(s0)
ffffffc05020342a:	fe446683          	lwu	a3,-28(s0)
ffffffc05020342e:	4781                	li	a5,0
ffffffc050203430:	4701                	li	a4,0
ffffffc050203432:	452d                	li	a0,11
ffffffc050203434:	f03ff0ef          	jal	ra,ffffffc050203336 <call_bios>
ffffffc050203438:	87aa                	mv	a5,a0
ffffffc05020343a:	2781                	sext.w	a5,a5
ffffffc05020343c:	853e                	mv	a0,a5
ffffffc05020343e:	60e2                	ld	ra,24(sp)
ffffffc050203440:	6442                	ld	s0,16(sp)
ffffffc050203442:	6105                	addi	sp,sp,32
ffffffc050203444:	8082                	ret

ffffffc050203446 <sd_write>:
ffffffc050203446:	1101                	addi	sp,sp,-32
ffffffc050203448:	ec06                	sd	ra,24(sp)
ffffffc05020344a:	e822                	sd	s0,16(sp)
ffffffc05020344c:	1000                	addi	s0,sp,32
ffffffc05020344e:	87aa                	mv	a5,a0
ffffffc050203450:	86ae                	mv	a3,a1
ffffffc050203452:	8732                	mv	a4,a2
ffffffc050203454:	fef42623          	sw	a5,-20(s0)
ffffffc050203458:	87b6                	mv	a5,a3
ffffffc05020345a:	fef42423          	sw	a5,-24(s0)
ffffffc05020345e:	87ba                	mv	a5,a4
ffffffc050203460:	fef42223          	sw	a5,-28(s0)
ffffffc050203464:	fec46583          	lwu	a1,-20(s0)
ffffffc050203468:	fe846603          	lwu	a2,-24(s0)
ffffffc05020346c:	fe446683          	lwu	a3,-28(s0)
ffffffc050203470:	4781                	li	a5,0
ffffffc050203472:	4701                	li	a4,0
ffffffc050203474:	4529                	li	a0,10
ffffffc050203476:	ec1ff0ef          	jal	ra,ffffffc050203336 <call_bios>
ffffffc05020347a:	87aa                	mv	a5,a0
ffffffc05020347c:	2781                	sext.w	a5,a5
ffffffc05020347e:	853e                	mv	a0,a5
ffffffc050203480:	60e2                	ld	ra,24(sp)
ffffffc050203482:	6442                	ld	s0,16(sp)
ffffffc050203484:	6105                	addi	sp,sp,32
ffffffc050203486:	8082                	ret

ffffffc050203488 <set_timer>:
ffffffc050203488:	1101                	addi	sp,sp,-32
ffffffc05020348a:	ec06                	sd	ra,24(sp)
ffffffc05020348c:	e822                	sd	s0,16(sp)
ffffffc05020348e:	1000                	addi	s0,sp,32
ffffffc050203490:	fea43423          	sd	a0,-24(s0)
ffffffc050203494:	fe843583          	ld	a1,-24(s0)
ffffffc050203498:	4781                	li	a5,0
ffffffc05020349a:	4701                	li	a4,0
ffffffc05020349c:	4681                	li	a3,0
ffffffc05020349e:	4601                	li	a2,0
ffffffc0502034a0:	4501                	li	a0,0
ffffffc0502034a2:	e95ff0ef          	jal	ra,ffffffc050203336 <call_bios>
ffffffc0502034a6:	0001                	nop
ffffffc0502034a8:	60e2                	ld	ra,24(sp)
ffffffc0502034aa:	6442                	ld	s0,16(sp)
ffffffc0502034ac:	6105                	addi	sp,sp,32
ffffffc0502034ae:	8082                	ret

ffffffc0502034b0 <read_fdt>:
ffffffc0502034b0:	1101                	addi	sp,sp,-32
ffffffc0502034b2:	ec06                	sd	ra,24(sp)
ffffffc0502034b4:	e822                	sd	s0,16(sp)
ffffffc0502034b6:	1000                	addi	s0,sp,32
ffffffc0502034b8:	87aa                	mv	a5,a0
ffffffc0502034ba:	fef42623          	sw	a5,-20(s0)
ffffffc0502034be:	fec46583          	lwu	a1,-20(s0)
ffffffc0502034c2:	4781                	li	a5,0
ffffffc0502034c4:	4701                	li	a4,0
ffffffc0502034c6:	4681                	li	a3,0
ffffffc0502034c8:	4601                	li	a2,0
ffffffc0502034ca:	4531                	li	a0,12
ffffffc0502034cc:	e6bff0ef          	jal	ra,ffffffc050203336 <call_bios>
ffffffc0502034d0:	87aa                	mv	a5,a0
ffffffc0502034d2:	853e                	mv	a0,a5
ffffffc0502034d4:	60e2                	ld	ra,24(sp)
ffffffc0502034d6:	6442                	ld	s0,16(sp)
ffffffc0502034d8:	6105                	addi	sp,sp,32
ffffffc0502034da:	8082                	ret

ffffffc0502034dc <qemu_logging>:
ffffffc0502034dc:	1101                	addi	sp,sp,-32
ffffffc0502034de:	ec06                	sd	ra,24(sp)
ffffffc0502034e0:	e822                	sd	s0,16(sp)
ffffffc0502034e2:	1000                	addi	s0,sp,32
ffffffc0502034e4:	fea43423          	sd	a0,-24(s0)
ffffffc0502034e8:	fe843583          	ld	a1,-24(s0)
ffffffc0502034ec:	4781                	li	a5,0
ffffffc0502034ee:	4701                	li	a4,0
ffffffc0502034f0:	4681                	li	a3,0
ffffffc0502034f2:	4601                	li	a2,0
ffffffc0502034f4:	4539                	li	a0,14
ffffffc0502034f6:	e41ff0ef          	jal	ra,ffffffc050203336 <call_bios>
ffffffc0502034fa:	0001                	nop
ffffffc0502034fc:	60e2                	ld	ra,24(sp)
ffffffc0502034fe:	6442                	ld	s0,16(sp)
ffffffc050203500:	6105                	addi	sp,sp,32
ffffffc050203502:	8082                	ret

ffffffc050203504 <send_ipi>:
ffffffc050203504:	1101                	addi	sp,sp,-32
ffffffc050203506:	ec06                	sd	ra,24(sp)
ffffffc050203508:	e822                	sd	s0,16(sp)
ffffffc05020350a:	1000                	addi	s0,sp,32
ffffffc05020350c:	fea43423          	sd	a0,-24(s0)
ffffffc050203510:	fe843583          	ld	a1,-24(s0)
ffffffc050203514:	4781                	li	a5,0
ffffffc050203516:	4701                	li	a4,0
ffffffc050203518:	4681                	li	a3,0
ffffffc05020351a:	4601                	li	a2,0
ffffffc05020351c:	4511                	li	a0,4
ffffffc05020351e:	e19ff0ef          	jal	ra,ffffffc050203336 <call_bios>
ffffffc050203522:	0001                	nop
ffffffc050203524:	60e2                	ld	ra,24(sp)
ffffffc050203526:	6442                	ld	s0,16(sp)
ffffffc050203528:	6105                	addi	sp,sp,32
ffffffc05020352a:	8082                	ret

ffffffc05020352c <call_jmptab>:
ffffffc05020352c:	7139                	addi	sp,sp,-64
ffffffc05020352e:	fc06                	sd	ra,56(sp)
ffffffc050203530:	f822                	sd	s0,48(sp)
ffffffc050203532:	0080                	addi	s0,sp,64
ffffffc050203534:	fca43c23          	sd	a0,-40(s0)
ffffffc050203538:	fcb43823          	sd	a1,-48(s0)
ffffffc05020353c:	fcc43423          	sd	a2,-56(s0)
ffffffc050203540:	fcd43023          	sd	a3,-64(s0)
ffffffc050203544:	fd843783          	ld	a5,-40(s0)
ffffffc050203548:	00379713          	slli	a4,a5,0x3
ffffffc05020354c:	fe0297b7          	lui	a5,0xfe029
ffffffc050203550:	07b6                	slli	a5,a5,0xd
ffffffc050203552:	f0078793          	addi	a5,a5,-256 # fffffffffe028f00 <__BSS_END__+0x3faddd5208>
ffffffc050203556:	97ba                	add	a5,a5,a4
ffffffc050203558:	639c                	ld	a5,0(a5)
ffffffc05020355a:	fef43423          	sd	a5,-24(s0)
ffffffc05020355e:	fe843783          	ld	a5,-24(s0)
ffffffc050203562:	fef43023          	sd	a5,-32(s0)
ffffffc050203566:	fe043783          	ld	a5,-32(s0)
ffffffc05020356a:	fc043603          	ld	a2,-64(s0)
ffffffc05020356e:	fc843583          	ld	a1,-56(s0)
ffffffc050203572:	fd043503          	ld	a0,-48(s0)
ffffffc050203576:	9782                	jalr	a5
ffffffc050203578:	87aa                	mv	a5,a0
ffffffc05020357a:	853e                	mv	a0,a5
ffffffc05020357c:	70e2                	ld	ra,56(sp)
ffffffc05020357e:	7442                	ld	s0,48(sp)
ffffffc050203580:	6121                	addi	sp,sp,64
ffffffc050203582:	8082                	ret

ffffffc050203584 <bios_putchar>:
ffffffc050203584:	1101                	addi	sp,sp,-32
ffffffc050203586:	ec06                	sd	ra,24(sp)
ffffffc050203588:	e822                	sd	s0,16(sp)
ffffffc05020358a:	1000                	addi	s0,sp,32
ffffffc05020358c:	87aa                	mv	a5,a0
ffffffc05020358e:	fef42623          	sw	a5,-20(s0)
ffffffc050203592:	fec42783          	lw	a5,-20(s0)
ffffffc050203596:	4681                	li	a3,0
ffffffc050203598:	4601                	li	a2,0
ffffffc05020359a:	85be                	mv	a1,a5
ffffffc05020359c:	4505                	li	a0,1
ffffffc05020359e:	f8fff0ef          	jal	ra,ffffffc05020352c <call_jmptab>
ffffffc0502035a2:	0001                	nop
ffffffc0502035a4:	60e2                	ld	ra,24(sp)
ffffffc0502035a6:	6442                	ld	s0,16(sp)
ffffffc0502035a8:	6105                	addi	sp,sp,32
ffffffc0502035aa:	8082                	ret

ffffffc0502035ac <vt100_move_cursor>:
ffffffc0502035ac:	1101                	addi	sp,sp,-32
ffffffc0502035ae:	ec06                	sd	ra,24(sp)
ffffffc0502035b0:	e822                	sd	s0,16(sp)
ffffffc0502035b2:	1000                	addi	s0,sp,32
ffffffc0502035b4:	87aa                	mv	a5,a0
ffffffc0502035b6:	872e                	mv	a4,a1
ffffffc0502035b8:	fef42623          	sw	a5,-20(s0)
ffffffc0502035bc:	87ba                	mv	a5,a4
ffffffc0502035be:	fef42423          	sw	a5,-24(s0)
ffffffc0502035c2:	fec42703          	lw	a4,-20(s0)
ffffffc0502035c6:	fe842783          	lw	a5,-24(s0)
ffffffc0502035ca:	86ba                	mv	a3,a4
ffffffc0502035cc:	863e                	mv	a2,a5
ffffffc0502035ce:	45ed                	li	a1,27
ffffffc0502035d0:	00007517          	auipc	a0,0x7
ffffffc0502035d4:	af850513          	addi	a0,a0,-1288 # ffffffc05020a0c8 <strcat+0x206>
ffffffc0502035d8:	4f6060ef          	jal	ra,ffffffc050209ace <printv>
ffffffc0502035dc:	0001                	nop
ffffffc0502035de:	60e2                	ld	ra,24(sp)
ffffffc0502035e0:	6442                	ld	s0,16(sp)
ffffffc0502035e2:	6105                	addi	sp,sp,32
ffffffc0502035e4:	8082                	ret

ffffffc0502035e6 <vt100_clear>:
ffffffc0502035e6:	1141                	addi	sp,sp,-16
ffffffc0502035e8:	e406                	sd	ra,8(sp)
ffffffc0502035ea:	e022                	sd	s0,0(sp)
ffffffc0502035ec:	0800                	addi	s0,sp,16
ffffffc0502035ee:	45ed                	li	a1,27
ffffffc0502035f0:	00007517          	auipc	a0,0x7
ffffffc0502035f4:	ae850513          	addi	a0,a0,-1304 # ffffffc05020a0d8 <strcat+0x216>
ffffffc0502035f8:	4d6060ef          	jal	ra,ffffffc050209ace <printv>
ffffffc0502035fc:	0001                	nop
ffffffc0502035fe:	60a2                	ld	ra,8(sp)
ffffffc050203600:	6402                	ld	s0,0(sp)
ffffffc050203602:	0141                	addi	sp,sp,16
ffffffc050203604:	8082                	ret

ffffffc050203606 <vt100_hidden_cursor>:
ffffffc050203606:	1141                	addi	sp,sp,-16
ffffffc050203608:	e406                	sd	ra,8(sp)
ffffffc05020360a:	e022                	sd	s0,0(sp)
ffffffc05020360c:	0800                	addi	s0,sp,16
ffffffc05020360e:	45ed                	li	a1,27
ffffffc050203610:	00007517          	auipc	a0,0x7
ffffffc050203614:	ad050513          	addi	a0,a0,-1328 # ffffffc05020a0e0 <strcat+0x21e>
ffffffc050203618:	4b6060ef          	jal	ra,ffffffc050209ace <printv>
ffffffc05020361c:	0001                	nop
ffffffc05020361e:	60a2                	ld	ra,8(sp)
ffffffc050203620:	6402                	ld	s0,0(sp)
ffffffc050203622:	0141                	addi	sp,sp,16
ffffffc050203624:	8082                	ret

ffffffc050203626 <screen_write_ch>:
ffffffc050203626:	7179                	addi	sp,sp,-48
ffffffc050203628:	f406                	sd	ra,40(sp)
ffffffc05020362a:	f022                	sd	s0,32(sp)
ffffffc05020362c:	1800                	addi	s0,sp,48
ffffffc05020362e:	87aa                	mv	a5,a0
ffffffc050203630:	fcf40fa3          	sb	a5,-33(s0)
ffffffc050203634:	b79fe0ef          	jal	ra,ffffffc0502021ac <get_current_cpu_id>
ffffffc050203638:	fea43423          	sd	a0,-24(s0)
ffffffc05020363c:	fdf44783          	lbu	a5,-33(s0)
ffffffc050203640:	0ff7f713          	andi	a4,a5,255
ffffffc050203644:	47a9                	li	a5,10
ffffffc050203646:	02f71d63          	bne	a4,a5,ffffffc050203680 <screen_write_ch+0x5a>
ffffffc05020364a:	0004e717          	auipc	a4,0x4e
ffffffc05020364e:	c9e70713          	addi	a4,a4,-866 # ffffffc0502512e8 <next_running>
ffffffc050203652:	fe843783          	ld	a5,-24(s0)
ffffffc050203656:	078e                	slli	a5,a5,0x3
ffffffc050203658:	97ba                	add	a5,a5,a4
ffffffc05020365a:	639c                	ld	a5,0(a5)
ffffffc05020365c:	1207a223          	sw	zero,292(a5)
ffffffc050203660:	0004e717          	auipc	a4,0x4e
ffffffc050203664:	c8870713          	addi	a4,a4,-888 # ffffffc0502512e8 <next_running>
ffffffc050203668:	fe843783          	ld	a5,-24(s0)
ffffffc05020366c:	078e                	slli	a5,a5,0x3
ffffffc05020366e:	97ba                	add	a5,a5,a4
ffffffc050203670:	639c                	ld	a5,0(a5)
ffffffc050203672:	1287a703          	lw	a4,296(a5)
ffffffc050203676:	2705                	addiw	a4,a4,1
ffffffc050203678:	2701                	sext.w	a4,a4
ffffffc05020367a:	12e7a423          	sw	a4,296(a5)
ffffffc05020367e:	a895                	j	ffffffc0502036f2 <screen_write_ch+0xcc>
ffffffc050203680:	0004e717          	auipc	a4,0x4e
ffffffc050203684:	c6870713          	addi	a4,a4,-920 # ffffffc0502512e8 <next_running>
ffffffc050203688:	fe843783          	ld	a5,-24(s0)
ffffffc05020368c:	078e                	slli	a5,a5,0x3
ffffffc05020368e:	97ba                	add	a5,a5,a4
ffffffc050203690:	639c                	ld	a5,0(a5)
ffffffc050203692:	1287a783          	lw	a5,296(a5)
ffffffc050203696:	873e                	mv	a4,a5
ffffffc050203698:	87ba                	mv	a5,a4
ffffffc05020369a:	0027979b          	slliw	a5,a5,0x2
ffffffc05020369e:	9fb9                	addw	a5,a5,a4
ffffffc0502036a0:	0047979b          	slliw	a5,a5,0x4
ffffffc0502036a4:	0007871b          	sext.w	a4,a5
ffffffc0502036a8:	0004e697          	auipc	a3,0x4e
ffffffc0502036ac:	c4068693          	addi	a3,a3,-960 # ffffffc0502512e8 <next_running>
ffffffc0502036b0:	fe843783          	ld	a5,-24(s0)
ffffffc0502036b4:	078e                	slli	a5,a5,0x3
ffffffc0502036b6:	97b6                	add	a5,a5,a3
ffffffc0502036b8:	639c                	ld	a5,0(a5)
ffffffc0502036ba:	1247a783          	lw	a5,292(a5)
ffffffc0502036be:	9fb9                	addw	a5,a5,a4
ffffffc0502036c0:	2781                	sext.w	a5,a5
ffffffc0502036c2:	00007717          	auipc	a4,0x7
ffffffc0502036c6:	30e70713          	addi	a4,a4,782 # ffffffc05020a9d0 <new_screen>
ffffffc0502036ca:	97ba                	add	a5,a5,a4
ffffffc0502036cc:	fdf44703          	lbu	a4,-33(s0)
ffffffc0502036d0:	00e78023          	sb	a4,0(a5)
ffffffc0502036d4:	0004e717          	auipc	a4,0x4e
ffffffc0502036d8:	c1470713          	addi	a4,a4,-1004 # ffffffc0502512e8 <next_running>
ffffffc0502036dc:	fe843783          	ld	a5,-24(s0)
ffffffc0502036e0:	078e                	slli	a5,a5,0x3
ffffffc0502036e2:	97ba                	add	a5,a5,a4
ffffffc0502036e4:	639c                	ld	a5,0(a5)
ffffffc0502036e6:	1247a703          	lw	a4,292(a5)
ffffffc0502036ea:	2705                	addiw	a4,a4,1
ffffffc0502036ec:	2701                	sext.w	a4,a4
ffffffc0502036ee:	12e7a223          	sw	a4,292(a5)
ffffffc0502036f2:	0001                	nop
ffffffc0502036f4:	70a2                	ld	ra,40(sp)
ffffffc0502036f6:	7402                	ld	s0,32(sp)
ffffffc0502036f8:	6145                	addi	sp,sp,48
ffffffc0502036fa:	8082                	ret

ffffffc0502036fc <init_screen>:
ffffffc0502036fc:	1141                	addi	sp,sp,-16
ffffffc0502036fe:	e406                	sd	ra,8(sp)
ffffffc050203700:	e022                	sd	s0,0(sp)
ffffffc050203702:	0800                	addi	s0,sp,16
ffffffc050203704:	f03ff0ef          	jal	ra,ffffffc050203606 <vt100_hidden_cursor>
ffffffc050203708:	edfff0ef          	jal	ra,ffffffc0502035e6 <vt100_clear>
ffffffc05020370c:	00e000ef          	jal	ra,ffffffc05020371a <screen_clear>
ffffffc050203710:	0001                	nop
ffffffc050203712:	60a2                	ld	ra,8(sp)
ffffffc050203714:	6402                	ld	s0,0(sp)
ffffffc050203716:	0141                	addi	sp,sp,16
ffffffc050203718:	8082                	ret

ffffffc05020371a <screen_clear>:
ffffffc05020371a:	1101                	addi	sp,sp,-32
ffffffc05020371c:	ec06                	sd	ra,24(sp)
ffffffc05020371e:	e822                	sd	s0,16(sp)
ffffffc050203720:	1000                	addi	s0,sp,32
ffffffc050203722:	a8bfe0ef          	jal	ra,ffffffc0502021ac <get_current_cpu_id>
ffffffc050203726:	fea43023          	sd	a0,-32(s0)
ffffffc05020372a:	fe042623          	sw	zero,-20(s0)
ffffffc05020372e:	a8a1                	j	ffffffc050203786 <screen_clear+0x6c>
ffffffc050203730:	fe042423          	sw	zero,-24(s0)
ffffffc050203734:	a825                	j	ffffffc05020376c <screen_clear+0x52>
ffffffc050203736:	fec42703          	lw	a4,-20(s0)
ffffffc05020373a:	87ba                	mv	a5,a4
ffffffc05020373c:	0027979b          	slliw	a5,a5,0x2
ffffffc050203740:	9fb9                	addw	a5,a5,a4
ffffffc050203742:	0047979b          	slliw	a5,a5,0x4
ffffffc050203746:	2781                	sext.w	a5,a5
ffffffc050203748:	fe842703          	lw	a4,-24(s0)
ffffffc05020374c:	9fb9                	addw	a5,a5,a4
ffffffc05020374e:	2781                	sext.w	a5,a5
ffffffc050203750:	00007717          	auipc	a4,0x7
ffffffc050203754:	28070713          	addi	a4,a4,640 # ffffffc05020a9d0 <new_screen>
ffffffc050203758:	97ba                	add	a5,a5,a4
ffffffc05020375a:	02000713          	li	a4,32
ffffffc05020375e:	00e78023          	sb	a4,0(a5)
ffffffc050203762:	fe842783          	lw	a5,-24(s0)
ffffffc050203766:	2785                	addiw	a5,a5,1
ffffffc050203768:	fef42423          	sw	a5,-24(s0)
ffffffc05020376c:	fe842783          	lw	a5,-24(s0)
ffffffc050203770:	0007871b          	sext.w	a4,a5
ffffffc050203774:	04f00793          	li	a5,79
ffffffc050203778:	fae7dfe3          	bge	a5,a4,ffffffc050203736 <screen_clear+0x1c>
ffffffc05020377c:	fec42783          	lw	a5,-20(s0)
ffffffc050203780:	2785                	addiw	a5,a5,1
ffffffc050203782:	fef42623          	sw	a5,-20(s0)
ffffffc050203786:	fec42783          	lw	a5,-20(s0)
ffffffc05020378a:	0007871b          	sext.w	a4,a5
ffffffc05020378e:	03100793          	li	a5,49
ffffffc050203792:	f8e7dfe3          	bge	a5,a4,ffffffc050203730 <screen_clear+0x16>
ffffffc050203796:	0004e717          	auipc	a4,0x4e
ffffffc05020379a:	b5270713          	addi	a4,a4,-1198 # ffffffc0502512e8 <next_running>
ffffffc05020379e:	fe043783          	ld	a5,-32(s0)
ffffffc0502037a2:	078e                	slli	a5,a5,0x3
ffffffc0502037a4:	97ba                	add	a5,a5,a4
ffffffc0502037a6:	639c                	ld	a5,0(a5)
ffffffc0502037a8:	1207a223          	sw	zero,292(a5)
ffffffc0502037ac:	0004e717          	auipc	a4,0x4e
ffffffc0502037b0:	b3c70713          	addi	a4,a4,-1220 # ffffffc0502512e8 <next_running>
ffffffc0502037b4:	fe043783          	ld	a5,-32(s0)
ffffffc0502037b8:	078e                	slli	a5,a5,0x3
ffffffc0502037ba:	97ba                	add	a5,a5,a4
ffffffc0502037bc:	639c                	ld	a5,0(a5)
ffffffc0502037be:	1207a423          	sw	zero,296(a5)
ffffffc0502037c2:	16e000ef          	jal	ra,ffffffc050203930 <screen_reflush>
ffffffc0502037c6:	0001                	nop
ffffffc0502037c8:	60e2                	ld	ra,24(sp)
ffffffc0502037ca:	6442                	ld	s0,16(sp)
ffffffc0502037cc:	6105                	addi	sp,sp,32
ffffffc0502037ce:	8082                	ret

ffffffc0502037d0 <screen_move_cursor>:
ffffffc0502037d0:	7179                	addi	sp,sp,-48
ffffffc0502037d2:	f406                	sd	ra,40(sp)
ffffffc0502037d4:	f022                	sd	s0,32(sp)
ffffffc0502037d6:	1800                	addi	s0,sp,48
ffffffc0502037d8:	87aa                	mv	a5,a0
ffffffc0502037da:	872e                	mv	a4,a1
ffffffc0502037dc:	fcf42e23          	sw	a5,-36(s0)
ffffffc0502037e0:	87ba                	mv	a5,a4
ffffffc0502037e2:	fcf42c23          	sw	a5,-40(s0)
ffffffc0502037e6:	9c7fe0ef          	jal	ra,ffffffc0502021ac <get_current_cpu_id>
ffffffc0502037ea:	fea43423          	sd	a0,-24(s0)
ffffffc0502037ee:	0004e717          	auipc	a4,0x4e
ffffffc0502037f2:	afa70713          	addi	a4,a4,-1286 # ffffffc0502512e8 <next_running>
ffffffc0502037f6:	fe843783          	ld	a5,-24(s0)
ffffffc0502037fa:	078e                	slli	a5,a5,0x3
ffffffc0502037fc:	97ba                	add	a5,a5,a4
ffffffc0502037fe:	639c                	ld	a5,0(a5)
ffffffc050203800:	fdc42703          	lw	a4,-36(s0)
ffffffc050203804:	12e7a223          	sw	a4,292(a5)
ffffffc050203808:	0004e717          	auipc	a4,0x4e
ffffffc05020380c:	ae070713          	addi	a4,a4,-1312 # ffffffc0502512e8 <next_running>
ffffffc050203810:	fe843783          	ld	a5,-24(s0)
ffffffc050203814:	078e                	slli	a5,a5,0x3
ffffffc050203816:	97ba                	add	a5,a5,a4
ffffffc050203818:	639c                	ld	a5,0(a5)
ffffffc05020381a:	fd842703          	lw	a4,-40(s0)
ffffffc05020381e:	12e7a423          	sw	a4,296(a5)
ffffffc050203822:	fd842703          	lw	a4,-40(s0)
ffffffc050203826:	fdc42783          	lw	a5,-36(s0)
ffffffc05020382a:	85ba                	mv	a1,a4
ffffffc05020382c:	853e                	mv	a0,a5
ffffffc05020382e:	d7fff0ef          	jal	ra,ffffffc0502035ac <vt100_move_cursor>
ffffffc050203832:	0001                	nop
ffffffc050203834:	70a2                	ld	ra,40(sp)
ffffffc050203836:	7402                	ld	s0,32(sp)
ffffffc050203838:	6145                	addi	sp,sp,48
ffffffc05020383a:	8082                	ret

ffffffc05020383c <screen_backspace>:
ffffffc05020383c:	1101                	addi	sp,sp,-32
ffffffc05020383e:	ec06                	sd	ra,24(sp)
ffffffc050203840:	e822                	sd	s0,16(sp)
ffffffc050203842:	1000                	addi	s0,sp,32
ffffffc050203844:	969fe0ef          	jal	ra,ffffffc0502021ac <get_current_cpu_id>
ffffffc050203848:	fea43423          	sd	a0,-24(s0)
ffffffc05020384c:	0004e717          	auipc	a4,0x4e
ffffffc050203850:	a9c70713          	addi	a4,a4,-1380 # ffffffc0502512e8 <next_running>
ffffffc050203854:	fe843783          	ld	a5,-24(s0)
ffffffc050203858:	078e                	slli	a5,a5,0x3
ffffffc05020385a:	97ba                	add	a5,a5,a4
ffffffc05020385c:	639c                	ld	a5,0(a5)
ffffffc05020385e:	1247a703          	lw	a4,292(a5)
ffffffc050203862:	377d                	addiw	a4,a4,-1
ffffffc050203864:	2701                	sext.w	a4,a4
ffffffc050203866:	12e7a223          	sw	a4,292(a5)
ffffffc05020386a:	02000513          	li	a0,32
ffffffc05020386e:	db9ff0ef          	jal	ra,ffffffc050203626 <screen_write_ch>
ffffffc050203872:	0be000ef          	jal	ra,ffffffc050203930 <screen_reflush>
ffffffc050203876:	0004e717          	auipc	a4,0x4e
ffffffc05020387a:	a7270713          	addi	a4,a4,-1422 # ffffffc0502512e8 <next_running>
ffffffc05020387e:	fe843783          	ld	a5,-24(s0)
ffffffc050203882:	078e                	slli	a5,a5,0x3
ffffffc050203884:	97ba                	add	a5,a5,a4
ffffffc050203886:	639c                	ld	a5,0(a5)
ffffffc050203888:	1247a703          	lw	a4,292(a5)
ffffffc05020388c:	377d                	addiw	a4,a4,-1
ffffffc05020388e:	2701                	sext.w	a4,a4
ffffffc050203890:	12e7a223          	sw	a4,292(a5)
ffffffc050203894:	0004e717          	auipc	a4,0x4e
ffffffc050203898:	a5470713          	addi	a4,a4,-1452 # ffffffc0502512e8 <next_running>
ffffffc05020389c:	fe843783          	ld	a5,-24(s0)
ffffffc0502038a0:	078e                	slli	a5,a5,0x3
ffffffc0502038a2:	97ba                	add	a5,a5,a4
ffffffc0502038a4:	639c                	ld	a5,0(a5)
ffffffc0502038a6:	1247a683          	lw	a3,292(a5)
ffffffc0502038aa:	0004e717          	auipc	a4,0x4e
ffffffc0502038ae:	a3e70713          	addi	a4,a4,-1474 # ffffffc0502512e8 <next_running>
ffffffc0502038b2:	fe843783          	ld	a5,-24(s0)
ffffffc0502038b6:	078e                	slli	a5,a5,0x3
ffffffc0502038b8:	97ba                	add	a5,a5,a4
ffffffc0502038ba:	639c                	ld	a5,0(a5)
ffffffc0502038bc:	1287a783          	lw	a5,296(a5)
ffffffc0502038c0:	85be                	mv	a1,a5
ffffffc0502038c2:	8536                	mv	a0,a3
ffffffc0502038c4:	ce9ff0ef          	jal	ra,ffffffc0502035ac <vt100_move_cursor>
ffffffc0502038c8:	0001                	nop
ffffffc0502038ca:	60e2                	ld	ra,24(sp)
ffffffc0502038cc:	6442                	ld	s0,16(sp)
ffffffc0502038ce:	6105                	addi	sp,sp,32
ffffffc0502038d0:	8082                	ret

ffffffc0502038d2 <screen_write>:
ffffffc0502038d2:	7179                	addi	sp,sp,-48
ffffffc0502038d4:	f406                	sd	ra,40(sp)
ffffffc0502038d6:	f022                	sd	s0,32(sp)
ffffffc0502038d8:	1800                	addi	s0,sp,48
ffffffc0502038da:	fca43c23          	sd	a0,-40(s0)
ffffffc0502038de:	fe042623          	sw	zero,-20(s0)
ffffffc0502038e2:	fd843503          	ld	a0,-40(s0)
ffffffc0502038e6:	398060ef          	jal	ra,ffffffc050209c7e <strlen>
ffffffc0502038ea:	87aa                	mv	a5,a0
ffffffc0502038ec:	fef42423          	sw	a5,-24(s0)
ffffffc0502038f0:	fe042623          	sw	zero,-20(s0)
ffffffc0502038f4:	a005                	j	ffffffc050203914 <screen_write+0x42>
ffffffc0502038f6:	fec42783          	lw	a5,-20(s0)
ffffffc0502038fa:	fd843703          	ld	a4,-40(s0)
ffffffc0502038fe:	97ba                	add	a5,a5,a4
ffffffc050203900:	0007c783          	lbu	a5,0(a5)
ffffffc050203904:	853e                	mv	a0,a5
ffffffc050203906:	d21ff0ef          	jal	ra,ffffffc050203626 <screen_write_ch>
ffffffc05020390a:	fec42783          	lw	a5,-20(s0)
ffffffc05020390e:	2785                	addiw	a5,a5,1
ffffffc050203910:	fef42623          	sw	a5,-20(s0)
ffffffc050203914:	fec42703          	lw	a4,-20(s0)
ffffffc050203918:	fe842783          	lw	a5,-24(s0)
ffffffc05020391c:	2701                	sext.w	a4,a4
ffffffc05020391e:	2781                	sext.w	a5,a5
ffffffc050203920:	fcf74be3          	blt	a4,a5,ffffffc0502038f6 <screen_write+0x24>
ffffffc050203924:	0001                	nop
ffffffc050203926:	0001                	nop
ffffffc050203928:	70a2                	ld	ra,40(sp)
ffffffc05020392a:	7402                	ld	s0,32(sp)
ffffffc05020392c:	6145                	addi	sp,sp,48
ffffffc05020392e:	8082                	ret

ffffffc050203930 <screen_reflush>:
ffffffc050203930:	1101                	addi	sp,sp,-32
ffffffc050203932:	ec06                	sd	ra,24(sp)
ffffffc050203934:	e822                	sd	s0,16(sp)
ffffffc050203936:	1000                	addi	s0,sp,32
ffffffc050203938:	875fe0ef          	jal	ra,ffffffc0502021ac <get_current_cpu_id>
ffffffc05020393c:	fea43023          	sd	a0,-32(s0)
ffffffc050203940:	fe042623          	sw	zero,-20(s0)
ffffffc050203944:	aa39                	j	ffffffc050203a62 <screen_reflush+0x132>
ffffffc050203946:	fe042423          	sw	zero,-24(s0)
ffffffc05020394a:	a8fd                	j	ffffffc050203a48 <screen_reflush+0x118>
ffffffc05020394c:	fec42703          	lw	a4,-20(s0)
ffffffc050203950:	87ba                	mv	a5,a4
ffffffc050203952:	0027979b          	slliw	a5,a5,0x2
ffffffc050203956:	9fb9                	addw	a5,a5,a4
ffffffc050203958:	0047979b          	slliw	a5,a5,0x4
ffffffc05020395c:	2781                	sext.w	a5,a5
ffffffc05020395e:	fe842703          	lw	a4,-24(s0)
ffffffc050203962:	9fb9                	addw	a5,a5,a4
ffffffc050203964:	2781                	sext.w	a5,a5
ffffffc050203966:	00007717          	auipc	a4,0x7
ffffffc05020396a:	06a70713          	addi	a4,a4,106 # ffffffc05020a9d0 <new_screen>
ffffffc05020396e:	97ba                	add	a5,a5,a4
ffffffc050203970:	0007c683          	lbu	a3,0(a5)
ffffffc050203974:	fec42703          	lw	a4,-20(s0)
ffffffc050203978:	87ba                	mv	a5,a4
ffffffc05020397a:	0027979b          	slliw	a5,a5,0x2
ffffffc05020397e:	9fb9                	addw	a5,a5,a4
ffffffc050203980:	0047979b          	slliw	a5,a5,0x4
ffffffc050203984:	2781                	sext.w	a5,a5
ffffffc050203986:	fe842703          	lw	a4,-24(s0)
ffffffc05020398a:	9fb9                	addw	a5,a5,a4
ffffffc05020398c:	2781                	sext.w	a5,a5
ffffffc05020398e:	00008717          	auipc	a4,0x8
ffffffc050203992:	fe270713          	addi	a4,a4,-30 # ffffffc05020b970 <old_screen>
ffffffc050203996:	97ba                	add	a5,a5,a4
ffffffc050203998:	0007c783          	lbu	a5,0(a5)
ffffffc05020399c:	8736                	mv	a4,a3
ffffffc05020399e:	0af70063          	beq	a4,a5,ffffffc050203a3e <screen_reflush+0x10e>
ffffffc0502039a2:	fe842783          	lw	a5,-24(s0)
ffffffc0502039a6:	2785                	addiw	a5,a5,1
ffffffc0502039a8:	0007871b          	sext.w	a4,a5
ffffffc0502039ac:	fec42783          	lw	a5,-20(s0)
ffffffc0502039b0:	2785                	addiw	a5,a5,1
ffffffc0502039b2:	2781                	sext.w	a5,a5
ffffffc0502039b4:	85be                	mv	a1,a5
ffffffc0502039b6:	853a                	mv	a0,a4
ffffffc0502039b8:	bf5ff0ef          	jal	ra,ffffffc0502035ac <vt100_move_cursor>
ffffffc0502039bc:	fec42703          	lw	a4,-20(s0)
ffffffc0502039c0:	87ba                	mv	a5,a4
ffffffc0502039c2:	0027979b          	slliw	a5,a5,0x2
ffffffc0502039c6:	9fb9                	addw	a5,a5,a4
ffffffc0502039c8:	0047979b          	slliw	a5,a5,0x4
ffffffc0502039cc:	2781                	sext.w	a5,a5
ffffffc0502039ce:	fe842703          	lw	a4,-24(s0)
ffffffc0502039d2:	9fb9                	addw	a5,a5,a4
ffffffc0502039d4:	2781                	sext.w	a5,a5
ffffffc0502039d6:	00007717          	auipc	a4,0x7
ffffffc0502039da:	ffa70713          	addi	a4,a4,-6 # ffffffc05020a9d0 <new_screen>
ffffffc0502039de:	97ba                	add	a5,a5,a4
ffffffc0502039e0:	0007c783          	lbu	a5,0(a5)
ffffffc0502039e4:	2781                	sext.w	a5,a5
ffffffc0502039e6:	853e                	mv	a0,a5
ffffffc0502039e8:	b9dff0ef          	jal	ra,ffffffc050203584 <bios_putchar>
ffffffc0502039ec:	fec42703          	lw	a4,-20(s0)
ffffffc0502039f0:	87ba                	mv	a5,a4
ffffffc0502039f2:	0027979b          	slliw	a5,a5,0x2
ffffffc0502039f6:	9fb9                	addw	a5,a5,a4
ffffffc0502039f8:	0047979b          	slliw	a5,a5,0x4
ffffffc0502039fc:	2781                	sext.w	a5,a5
ffffffc0502039fe:	fe842703          	lw	a4,-24(s0)
ffffffc050203a02:	9fb9                	addw	a5,a5,a4
ffffffc050203a04:	0007869b          	sext.w	a3,a5
ffffffc050203a08:	fec42703          	lw	a4,-20(s0)
ffffffc050203a0c:	87ba                	mv	a5,a4
ffffffc050203a0e:	0027979b          	slliw	a5,a5,0x2
ffffffc050203a12:	9fb9                	addw	a5,a5,a4
ffffffc050203a14:	0047979b          	slliw	a5,a5,0x4
ffffffc050203a18:	2781                	sext.w	a5,a5
ffffffc050203a1a:	fe842703          	lw	a4,-24(s0)
ffffffc050203a1e:	9fb9                	addw	a5,a5,a4
ffffffc050203a20:	2781                	sext.w	a5,a5
ffffffc050203a22:	00007717          	auipc	a4,0x7
ffffffc050203a26:	fae70713          	addi	a4,a4,-82 # ffffffc05020a9d0 <new_screen>
ffffffc050203a2a:	9736                	add	a4,a4,a3
ffffffc050203a2c:	00074703          	lbu	a4,0(a4)
ffffffc050203a30:	00008697          	auipc	a3,0x8
ffffffc050203a34:	f4068693          	addi	a3,a3,-192 # ffffffc05020b970 <old_screen>
ffffffc050203a38:	97b6                	add	a5,a5,a3
ffffffc050203a3a:	00e78023          	sb	a4,0(a5)
ffffffc050203a3e:	fe842783          	lw	a5,-24(s0)
ffffffc050203a42:	2785                	addiw	a5,a5,1
ffffffc050203a44:	fef42423          	sw	a5,-24(s0)
ffffffc050203a48:	fe842783          	lw	a5,-24(s0)
ffffffc050203a4c:	0007871b          	sext.w	a4,a5
ffffffc050203a50:	04f00793          	li	a5,79
ffffffc050203a54:	eee7dce3          	bge	a5,a4,ffffffc05020394c <screen_reflush+0x1c>
ffffffc050203a58:	fec42783          	lw	a5,-20(s0)
ffffffc050203a5c:	2785                	addiw	a5,a5,1
ffffffc050203a5e:	fef42623          	sw	a5,-20(s0)
ffffffc050203a62:	fec42783          	lw	a5,-20(s0)
ffffffc050203a66:	0007871b          	sext.w	a4,a5
ffffffc050203a6a:	03100793          	li	a5,49
ffffffc050203a6e:	ece7dce3          	bge	a5,a4,ffffffc050203946 <screen_reflush+0x16>
ffffffc050203a72:	0004e717          	auipc	a4,0x4e
ffffffc050203a76:	87670713          	addi	a4,a4,-1930 # ffffffc0502512e8 <next_running>
ffffffc050203a7a:	fe043783          	ld	a5,-32(s0)
ffffffc050203a7e:	078e                	slli	a5,a5,0x3
ffffffc050203a80:	97ba                	add	a5,a5,a4
ffffffc050203a82:	639c                	ld	a5,0(a5)
ffffffc050203a84:	1247a683          	lw	a3,292(a5)
ffffffc050203a88:	0004e717          	auipc	a4,0x4e
ffffffc050203a8c:	86070713          	addi	a4,a4,-1952 # ffffffc0502512e8 <next_running>
ffffffc050203a90:	fe043783          	ld	a5,-32(s0)
ffffffc050203a94:	078e                	slli	a5,a5,0x3
ffffffc050203a96:	97ba                	add	a5,a5,a4
ffffffc050203a98:	639c                	ld	a5,0(a5)
ffffffc050203a9a:	1287a783          	lw	a5,296(a5)
ffffffc050203a9e:	85be                	mv	a1,a5
ffffffc050203aa0:	8536                	mv	a0,a3
ffffffc050203aa2:	b0bff0ef          	jal	ra,ffffffc0502035ac <vt100_move_cursor>
ffffffc050203aa6:	0001                	nop
ffffffc050203aa8:	60e2                	ld	ra,24(sp)
ffffffc050203aaa:	6442                	ld	s0,16(sp)
ffffffc050203aac:	6105                	addi	sp,sp,32
ffffffc050203aae:	8082                	ret

ffffffc050203ab0 <writel>:
ffffffc050203ab0:	1101                	addi	sp,sp,-32
ffffffc050203ab2:	ec22                	sd	s0,24(sp)
ffffffc050203ab4:	1000                	addi	s0,sp,32
ffffffc050203ab6:	87aa                	mv	a5,a0
ffffffc050203ab8:	feb43023          	sd	a1,-32(s0)
ffffffc050203abc:	fef42623          	sw	a5,-20(s0)
ffffffc050203ac0:	0550000f          	fence	ow,ow
ffffffc050203ac4:	fe043783          	ld	a5,-32(s0)
ffffffc050203ac8:	fec42703          	lw	a4,-20(s0)
ffffffc050203acc:	c398                	sw	a4,0(a5)
ffffffc050203ace:	0001                	nop
ffffffc050203ad0:	6462                	ld	s0,24(sp)
ffffffc050203ad2:	6105                	addi	sp,sp,32
ffffffc050203ad4:	8082                	ret

ffffffc050203ad6 <readl>:
ffffffc050203ad6:	7179                	addi	sp,sp,-48
ffffffc050203ad8:	f422                	sd	s0,40(sp)
ffffffc050203ada:	1800                	addi	s0,sp,48
ffffffc050203adc:	fca43c23          	sd	a0,-40(s0)
ffffffc050203ae0:	fd843783          	ld	a5,-40(s0)
ffffffc050203ae4:	439c                	lw	a5,0(a5)
ffffffc050203ae6:	fef42623          	sw	a5,-20(s0)
ffffffc050203aea:	0aa0000f          	fence	ir,ir
ffffffc050203aee:	fec42783          	lw	a5,-20(s0)
ffffffc050203af2:	853e                	mv	a0,a5
ffffffc050203af4:	7422                	ld	s0,40(sp)
ffffffc050203af6:	6145                	addi	sp,sp,48
ffffffc050203af8:	8082                	ret

ffffffc050203afa <e1000_write_reg>:
ffffffc050203afa:	1101                	addi	sp,sp,-32
ffffffc050203afc:	ec06                	sd	ra,24(sp)
ffffffc050203afe:	e822                	sd	s0,16(sp)
ffffffc050203b00:	1000                	addi	s0,sp,32
ffffffc050203b02:	fea43423          	sd	a0,-24(s0)
ffffffc050203b06:	87ae                	mv	a5,a1
ffffffc050203b08:	8732                	mv	a4,a2
ffffffc050203b0a:	fef42223          	sw	a5,-28(s0)
ffffffc050203b0e:	87ba                	mv	a5,a4
ffffffc050203b10:	fef42023          	sw	a5,-32(s0)
ffffffc050203b14:	fe446783          	lwu	a5,-28(s0)
ffffffc050203b18:	fe843703          	ld	a4,-24(s0)
ffffffc050203b1c:	973e                	add	a4,a4,a5
ffffffc050203b1e:	fe042783          	lw	a5,-32(s0)
ffffffc050203b22:	85ba                	mv	a1,a4
ffffffc050203b24:	853e                	mv	a0,a5
ffffffc050203b26:	f8bff0ef          	jal	ra,ffffffc050203ab0 <writel>
ffffffc050203b2a:	0001                	nop
ffffffc050203b2c:	60e2                	ld	ra,24(sp)
ffffffc050203b2e:	6442                	ld	s0,16(sp)
ffffffc050203b30:	6105                	addi	sp,sp,32
ffffffc050203b32:	8082                	ret

ffffffc050203b34 <e1000_read_reg>:
ffffffc050203b34:	1101                	addi	sp,sp,-32
ffffffc050203b36:	ec06                	sd	ra,24(sp)
ffffffc050203b38:	e822                	sd	s0,16(sp)
ffffffc050203b3a:	1000                	addi	s0,sp,32
ffffffc050203b3c:	fea43423          	sd	a0,-24(s0)
ffffffc050203b40:	87ae                	mv	a5,a1
ffffffc050203b42:	fef42223          	sw	a5,-28(s0)
ffffffc050203b46:	fe446783          	lwu	a5,-28(s0)
ffffffc050203b4a:	fe843703          	ld	a4,-24(s0)
ffffffc050203b4e:	97ba                	add	a5,a5,a4
ffffffc050203b50:	853e                	mv	a0,a5
ffffffc050203b52:	f85ff0ef          	jal	ra,ffffffc050203ad6 <readl>
ffffffc050203b56:	87aa                	mv	a5,a0
ffffffc050203b58:	2781                	sext.w	a5,a5
ffffffc050203b5a:	853e                	mv	a0,a5
ffffffc050203b5c:	60e2                	ld	ra,24(sp)
ffffffc050203b5e:	6442                	ld	s0,16(sp)
ffffffc050203b60:	6105                	addi	sp,sp,32
ffffffc050203b62:	8082                	ret

ffffffc050203b64 <e1000_write_reg_array>:
ffffffc050203b64:	7179                	addi	sp,sp,-48
ffffffc050203b66:	f406                	sd	ra,40(sp)
ffffffc050203b68:	f022                	sd	s0,32(sp)
ffffffc050203b6a:	1800                	addi	s0,sp,48
ffffffc050203b6c:	fea43423          	sd	a0,-24(s0)
ffffffc050203b70:	87ae                	mv	a5,a1
ffffffc050203b72:	8736                	mv	a4,a3
ffffffc050203b74:	fef42223          	sw	a5,-28(s0)
ffffffc050203b78:	87b2                	mv	a5,a2
ffffffc050203b7a:	fef42023          	sw	a5,-32(s0)
ffffffc050203b7e:	87ba                	mv	a5,a4
ffffffc050203b80:	fcf42e23          	sw	a5,-36(s0)
ffffffc050203b84:	fe446703          	lwu	a4,-28(s0)
ffffffc050203b88:	fe042783          	lw	a5,-32(s0)
ffffffc050203b8c:	0027979b          	slliw	a5,a5,0x2
ffffffc050203b90:	2781                	sext.w	a5,a5
ffffffc050203b92:	1782                	slli	a5,a5,0x20
ffffffc050203b94:	9381                	srli	a5,a5,0x20
ffffffc050203b96:	97ba                	add	a5,a5,a4
ffffffc050203b98:	fe843703          	ld	a4,-24(s0)
ffffffc050203b9c:	973e                	add	a4,a4,a5
ffffffc050203b9e:	fdc42783          	lw	a5,-36(s0)
ffffffc050203ba2:	85ba                	mv	a1,a4
ffffffc050203ba4:	853e                	mv	a0,a5
ffffffc050203ba6:	f0bff0ef          	jal	ra,ffffffc050203ab0 <writel>
ffffffc050203baa:	0001                	nop
ffffffc050203bac:	70a2                	ld	ra,40(sp)
ffffffc050203bae:	7402                	ld	s0,32(sp)
ffffffc050203bb0:	6145                	addi	sp,sp,48
ffffffc050203bb2:	8082                	ret

ffffffc050203bb4 <kva2pa>:
ffffffc050203bb4:	1101                	addi	sp,sp,-32
ffffffc050203bb6:	ec22                	sd	s0,24(sp)
ffffffc050203bb8:	1000                	addi	s0,sp,32
ffffffc050203bba:	fea43423          	sd	a0,-24(s0)
ffffffc050203bbe:	fe843703          	ld	a4,-24(s0)
ffffffc050203bc2:	4785                	li	a5,1
ffffffc050203bc4:	179a                	slli	a5,a5,0x26
ffffffc050203bc6:	97ba                	add	a5,a5,a4
ffffffc050203bc8:	853e                	mv	a0,a5
ffffffc050203bca:	6462                	ld	s0,24(sp)
ffffffc050203bcc:	6105                	addi	sp,sp,32
ffffffc050203bce:	8082                	ret

ffffffc050203bd0 <e1000_reset>:
ffffffc050203bd0:	1141                	addi	sp,sp,-16
ffffffc050203bd2:	e406                	sd	ra,8(sp)
ffffffc050203bd4:	e022                	sd	s0,0(sp)
ffffffc050203bd6:	0800                	addi	s0,sp,16
ffffffc050203bd8:	0004a797          	auipc	a5,0x4a
ffffffc050203bdc:	a4878793          	addi	a5,a5,-1464 # ffffffc05024d620 <e1000>
ffffffc050203be0:	639c                	ld	a5,0(a5)
ffffffc050203be2:	4601                	li	a2,0
ffffffc050203be4:	10000593          	li	a1,256
ffffffc050203be8:	853e                	mv	a0,a5
ffffffc050203bea:	f11ff0ef          	jal	ra,ffffffc050203afa <e1000_write_reg>
ffffffc050203bee:	0004a797          	auipc	a5,0x4a
ffffffc050203bf2:	a3278793          	addi	a5,a5,-1486 # ffffffc05024d620 <e1000>
ffffffc050203bf6:	639c                	ld	a5,0(a5)
ffffffc050203bf8:	4601                	li	a2,0
ffffffc050203bfa:	40000593          	li	a1,1024
ffffffc050203bfe:	853e                	mv	a0,a5
ffffffc050203c00:	efbff0ef          	jal	ra,ffffffc050203afa <e1000_write_reg>
ffffffc050203c04:	0004a797          	auipc	a5,0x4a
ffffffc050203c08:	a1c78793          	addi	a5,a5,-1508 # ffffffc05024d620 <e1000>
ffffffc050203c0c:	6398                	ld	a4,0(a5)
ffffffc050203c0e:	4601                	li	a2,0
ffffffc050203c10:	6791                	lui	a5,0x4
ffffffc050203c12:	81078593          	addi	a1,a5,-2032 # 3810 <boot_stack_top_base-0x501fe7f0>
ffffffc050203c16:	853a                	mv	a0,a4
ffffffc050203c18:	ee3ff0ef          	jal	ra,ffffffc050203afa <e1000_write_reg>
ffffffc050203c1c:	0004a797          	auipc	a5,0x4a
ffffffc050203c20:	a0478793          	addi	a5,a5,-1532 # ffffffc05024d620 <e1000>
ffffffc050203c24:	6398                	ld	a4,0(a5)
ffffffc050203c26:	4601                	li	a2,0
ffffffc050203c28:	6791                	lui	a5,0x4
ffffffc050203c2a:	81878593          	addi	a1,a5,-2024 # 3818 <boot_stack_top_base-0x501fe7e8>
ffffffc050203c2e:	853a                	mv	a0,a4
ffffffc050203c30:	ecbff0ef          	jal	ra,ffffffc050203afa <e1000_write_reg>
ffffffc050203c34:	0004a797          	auipc	a5,0x4a
ffffffc050203c38:	9ec78793          	addi	a5,a5,-1556 # ffffffc05024d620 <e1000>
ffffffc050203c3c:	6398                	ld	a4,0(a5)
ffffffc050203c3e:	4601                	li	a2,0
ffffffc050203c40:	678d                	lui	a5,0x3
ffffffc050203c42:	81078593          	addi	a1,a5,-2032 # 2810 <boot_stack_top_base-0x501ff7f0>
ffffffc050203c46:	853a                	mv	a0,a4
ffffffc050203c48:	eb3ff0ef          	jal	ra,ffffffc050203afa <e1000_write_reg>
ffffffc050203c4c:	0004a797          	auipc	a5,0x4a
ffffffc050203c50:	9d478793          	addi	a5,a5,-1580 # ffffffc05024d620 <e1000>
ffffffc050203c54:	6398                	ld	a4,0(a5)
ffffffc050203c56:	4601                	li	a2,0
ffffffc050203c58:	678d                	lui	a5,0x3
ffffffc050203c5a:	81878593          	addi	a1,a5,-2024 # 2818 <boot_stack_top_base-0x501ff7e8>
ffffffc050203c5e:	853a                	mv	a0,a4
ffffffc050203c60:	e9bff0ef          	jal	ra,ffffffc050203afa <e1000_write_reg>
ffffffc050203c64:	4505                	li	a0,1
ffffffc050203c66:	4ce030ef          	jal	ra,ffffffc050207134 <latency>
ffffffc050203c6a:	0004a797          	auipc	a5,0x4a
ffffffc050203c6e:	9b678793          	addi	a5,a5,-1610 # ffffffc05024d620 <e1000>
ffffffc050203c72:	639c                	ld	a5,0(a5)
ffffffc050203c74:	567d                	li	a2,-1
ffffffc050203c76:	0d800593          	li	a1,216
ffffffc050203c7a:	853e                	mv	a0,a5
ffffffc050203c7c:	e7fff0ef          	jal	ra,ffffffc050203afa <e1000_write_reg>
ffffffc050203c80:	0001                	nop
ffffffc050203c82:	0004a797          	auipc	a5,0x4a
ffffffc050203c86:	99e78793          	addi	a5,a5,-1634 # ffffffc05024d620 <e1000>
ffffffc050203c8a:	639c                	ld	a5,0(a5)
ffffffc050203c8c:	0c000593          	li	a1,192
ffffffc050203c90:	853e                	mv	a0,a5
ffffffc050203c92:	ea3ff0ef          	jal	ra,ffffffc050203b34 <e1000_read_reg>
ffffffc050203c96:	87aa                	mv	a5,a0
ffffffc050203c98:	2781                	sext.w	a5,a5
ffffffc050203c9a:	f7e5                	bnez	a5,ffffffc050203c82 <e1000_reset+0xb2>
ffffffc050203c9c:	0001                	nop
ffffffc050203c9e:	0001                	nop
ffffffc050203ca0:	60a2                	ld	ra,8(sp)
ffffffc050203ca2:	6402                	ld	s0,0(sp)
ffffffc050203ca4:	0141                	addi	sp,sp,16
ffffffc050203ca6:	8082                	ret

ffffffc050203ca8 <e1000_configure_tx>:
ffffffc050203ca8:	7179                	addi	sp,sp,-48
ffffffc050203caa:	f406                	sd	ra,40(sp)
ffffffc050203cac:	f022                	sd	s0,32(sp)
ffffffc050203cae:	ec26                	sd	s1,24(sp)
ffffffc050203cb0:	1800                	addi	s0,sp,48
ffffffc050203cb2:	fc042e23          	sw	zero,-36(s0)
ffffffc050203cb6:	40000613          	li	a2,1024
ffffffc050203cba:	4581                	li	a1,0
ffffffc050203cbc:	00049517          	auipc	a0,0x49
ffffffc050203cc0:	16450513          	addi	a0,a0,356 # ffffffc05024ce20 <tx_desc_array>
ffffffc050203cc4:	73d050ef          	jal	ra,ffffffc050209c00 <memset>
ffffffc050203cc8:	fc042e23          	sw	zero,-36(s0)
ffffffc050203ccc:	a00d                	j	ffffffc050203cee <e1000_configure_tx+0x46>
ffffffc050203cce:	00049717          	auipc	a4,0x49
ffffffc050203cd2:	15270713          	addi	a4,a4,338 # ffffffc05024ce20 <tx_desc_array>
ffffffc050203cd6:	fdc42783          	lw	a5,-36(s0)
ffffffc050203cda:	0792                	slli	a5,a5,0x4
ffffffc050203cdc:	97ba                	add	a5,a5,a4
ffffffc050203cde:	4705                	li	a4,1
ffffffc050203ce0:	00e78623          	sb	a4,12(a5)
ffffffc050203ce4:	fdc42783          	lw	a5,-36(s0)
ffffffc050203ce8:	2785                	addiw	a5,a5,1
ffffffc050203cea:	fcf42e23          	sw	a5,-36(s0)
ffffffc050203cee:	fdc42783          	lw	a5,-36(s0)
ffffffc050203cf2:	0007871b          	sext.w	a4,a5
ffffffc050203cf6:	03f00793          	li	a5,63
ffffffc050203cfa:	fce7dae3          	bge	a5,a4,ffffffc050203cce <e1000_configure_tx+0x26>
ffffffc050203cfe:	0004a797          	auipc	a5,0x4a
ffffffc050203d02:	92278793          	addi	a5,a5,-1758 # ffffffc05024d620 <e1000>
ffffffc050203d06:	6384                	ld	s1,0(a5)
ffffffc050203d08:	00049797          	auipc	a5,0x49
ffffffc050203d0c:	11878793          	addi	a5,a5,280 # ffffffc05024ce20 <tx_desc_array>
ffffffc050203d10:	853e                	mv	a0,a5
ffffffc050203d12:	ea3ff0ef          	jal	ra,ffffffc050203bb4 <kva2pa>
ffffffc050203d16:	87aa                	mv	a5,a0
ffffffc050203d18:	2781                	sext.w	a5,a5
ffffffc050203d1a:	863e                	mv	a2,a5
ffffffc050203d1c:	6791                	lui	a5,0x4
ffffffc050203d1e:	80078593          	addi	a1,a5,-2048 # 3800 <boot_stack_top_base-0x501fe800>
ffffffc050203d22:	8526                	mv	a0,s1
ffffffc050203d24:	dd7ff0ef          	jal	ra,ffffffc050203afa <e1000_write_reg>
ffffffc050203d28:	0004a797          	auipc	a5,0x4a
ffffffc050203d2c:	8f878793          	addi	a5,a5,-1800 # ffffffc05024d620 <e1000>
ffffffc050203d30:	6398                	ld	a4,0(a5)
ffffffc050203d32:	40000613          	li	a2,1024
ffffffc050203d36:	6791                	lui	a5,0x4
ffffffc050203d38:	80878593          	addi	a1,a5,-2040 # 3808 <boot_stack_top_base-0x501fe7f8>
ffffffc050203d3c:	853a                	mv	a0,a4
ffffffc050203d3e:	dbdff0ef          	jal	ra,ffffffc050203afa <e1000_write_reg>
ffffffc050203d42:	0004a797          	auipc	a5,0x4a
ffffffc050203d46:	8de78793          	addi	a5,a5,-1826 # ffffffc05024d620 <e1000>
ffffffc050203d4a:	6398                	ld	a4,0(a5)
ffffffc050203d4c:	4601                	li	a2,0
ffffffc050203d4e:	6791                	lui	a5,0x4
ffffffc050203d50:	81078593          	addi	a1,a5,-2032 # 3810 <boot_stack_top_base-0x501fe7f0>
ffffffc050203d54:	853a                	mv	a0,a4
ffffffc050203d56:	da5ff0ef          	jal	ra,ffffffc050203afa <e1000_write_reg>
ffffffc050203d5a:	0004a797          	auipc	a5,0x4a
ffffffc050203d5e:	8c678793          	addi	a5,a5,-1850 # ffffffc05024d620 <e1000>
ffffffc050203d62:	6398                	ld	a4,0(a5)
ffffffc050203d64:	4601                	li	a2,0
ffffffc050203d66:	6791                	lui	a5,0x4
ffffffc050203d68:	81878593          	addi	a1,a5,-2024 # 3818 <boot_stack_top_base-0x501fe7e8>
ffffffc050203d6c:	853a                	mv	a0,a4
ffffffc050203d6e:	d8dff0ef          	jal	ra,ffffffc050203afa <e1000_write_reg>
ffffffc050203d72:	0004a797          	auipc	a5,0x4a
ffffffc050203d76:	8ae78793          	addi	a5,a5,-1874 # ffffffc05024d620 <e1000>
ffffffc050203d7a:	6398                	ld	a4,0(a5)
ffffffc050203d7c:	004007b7          	lui	a5,0x400
ffffffc050203d80:	ffa78613          	addi	a2,a5,-6 # 3ffffa <boot_stack_top_base-0x4fe02006>
ffffffc050203d84:	40000593          	li	a1,1024
ffffffc050203d88:	853a                	mv	a0,a4
ffffffc050203d8a:	d71ff0ef          	jal	ra,ffffffc050203afa <e1000_write_reg>
ffffffc050203d8e:	0001                	nop
ffffffc050203d90:	70a2                	ld	ra,40(sp)
ffffffc050203d92:	7402                	ld	s0,32(sp)
ffffffc050203d94:	64e2                	ld	s1,24(sp)
ffffffc050203d96:	6145                	addi	sp,sp,48
ffffffc050203d98:	8082                	ret

ffffffc050203d9a <e1000_configure_rx>:
ffffffc050203d9a:	7179                	addi	sp,sp,-48
ffffffc050203d9c:	f406                	sd	ra,40(sp)
ffffffc050203d9e:	f022                	sd	s0,32(sp)
ffffffc050203da0:	ec26                	sd	s1,24(sp)
ffffffc050203da2:	1800                	addi	s0,sp,48
ffffffc050203da4:	fc042e23          	sw	zero,-36(s0)
ffffffc050203da8:	0004a797          	auipc	a5,0x4a
ffffffc050203dac:	87878793          	addi	a5,a5,-1928 # ffffffc05024d620 <e1000>
ffffffc050203db0:	6398                	ld	a4,0(a5)
ffffffc050203db2:	003517b7          	lui	a5,0x351
ffffffc050203db6:	a0078693          	addi	a3,a5,-1536 # 350a00 <boot_stack_top_base-0x4feb1600>
ffffffc050203dba:	4601                	li	a2,0
ffffffc050203dbc:	6795                	lui	a5,0x5
ffffffc050203dbe:	40078593          	addi	a1,a5,1024 # 5400 <boot_stack_top_base-0x501fcc00>
ffffffc050203dc2:	853a                	mv	a0,a4
ffffffc050203dc4:	da1ff0ef          	jal	ra,ffffffc050203b64 <e1000_write_reg_array>
ffffffc050203dc8:	0004a797          	auipc	a5,0x4a
ffffffc050203dcc:	85878793          	addi	a5,a5,-1960 # ffffffc05024d620 <e1000>
ffffffc050203dd0:	6398                	ld	a4,0(a5)
ffffffc050203dd2:	800057b7          	lui	a5,0x80005
ffffffc050203dd6:	31e78693          	addi	a3,a5,798 # ffffffff8000531e <__BSS_END__+0x3f2fdb1626>
ffffffc050203dda:	4605                	li	a2,1
ffffffc050203ddc:	6795                	lui	a5,0x5
ffffffc050203dde:	40078593          	addi	a1,a5,1024 # 5400 <boot_stack_top_base-0x501fcc00>
ffffffc050203de2:	853a                	mv	a0,a4
ffffffc050203de4:	d81ff0ef          	jal	ra,ffffffc050203b64 <e1000_write_reg_array>
ffffffc050203de8:	40000613          	li	a2,1024
ffffffc050203dec:	4581                	li	a1,0
ffffffc050203dee:	00049517          	auipc	a0,0x49
ffffffc050203df2:	43250513          	addi	a0,a0,1074 # ffffffc05024d220 <rx_desc_array>
ffffffc050203df6:	60b050ef          	jal	ra,ffffffc050209c00 <memset>
ffffffc050203dfa:	fc042e23          	sw	zero,-36(s0)
ffffffc050203dfe:	a825                	j	ffffffc050203e36 <e1000_configure_rx+0x9c>
ffffffc050203e00:	fdc42783          	lw	a5,-36(s0)
ffffffc050203e04:	00b79713          	slli	a4,a5,0xb
ffffffc050203e08:	00029797          	auipc	a5,0x29
ffffffc050203e0c:	b0878793          	addi	a5,a5,-1272 # ffffffc05022c910 <rx_pkt_buffer>
ffffffc050203e10:	97ba                	add	a5,a5,a4
ffffffc050203e12:	853e                	mv	a0,a5
ffffffc050203e14:	da1ff0ef          	jal	ra,ffffffc050203bb4 <kva2pa>
ffffffc050203e18:	86aa                	mv	a3,a0
ffffffc050203e1a:	00049717          	auipc	a4,0x49
ffffffc050203e1e:	40670713          	addi	a4,a4,1030 # ffffffc05024d220 <rx_desc_array>
ffffffc050203e22:	fdc42783          	lw	a5,-36(s0)
ffffffc050203e26:	0792                	slli	a5,a5,0x4
ffffffc050203e28:	97ba                	add	a5,a5,a4
ffffffc050203e2a:	e394                	sd	a3,0(a5)
ffffffc050203e2c:	fdc42783          	lw	a5,-36(s0)
ffffffc050203e30:	2785                	addiw	a5,a5,1
ffffffc050203e32:	fcf42e23          	sw	a5,-36(s0)
ffffffc050203e36:	fdc42783          	lw	a5,-36(s0)
ffffffc050203e3a:	0007871b          	sext.w	a4,a5
ffffffc050203e3e:	03f00793          	li	a5,63
ffffffc050203e42:	fae7dfe3          	bge	a5,a4,ffffffc050203e00 <e1000_configure_rx+0x66>
ffffffc050203e46:	00049797          	auipc	a5,0x49
ffffffc050203e4a:	7da78793          	addi	a5,a5,2010 # ffffffc05024d620 <e1000>
ffffffc050203e4e:	6384                	ld	s1,0(a5)
ffffffc050203e50:	00049797          	auipc	a5,0x49
ffffffc050203e54:	3d078793          	addi	a5,a5,976 # ffffffc05024d220 <rx_desc_array>
ffffffc050203e58:	853e                	mv	a0,a5
ffffffc050203e5a:	d5bff0ef          	jal	ra,ffffffc050203bb4 <kva2pa>
ffffffc050203e5e:	87aa                	mv	a5,a0
ffffffc050203e60:	2781                	sext.w	a5,a5
ffffffc050203e62:	863e                	mv	a2,a5
ffffffc050203e64:	678d                	lui	a5,0x3
ffffffc050203e66:	80078593          	addi	a1,a5,-2048 # 2800 <boot_stack_top_base-0x501ff800>
ffffffc050203e6a:	8526                	mv	a0,s1
ffffffc050203e6c:	c8fff0ef          	jal	ra,ffffffc050203afa <e1000_write_reg>
ffffffc050203e70:	00049797          	auipc	a5,0x49
ffffffc050203e74:	7b078793          	addi	a5,a5,1968 # ffffffc05024d620 <e1000>
ffffffc050203e78:	6398                	ld	a4,0(a5)
ffffffc050203e7a:	40000613          	li	a2,1024
ffffffc050203e7e:	678d                	lui	a5,0x3
ffffffc050203e80:	80878593          	addi	a1,a5,-2040 # 2808 <boot_stack_top_base-0x501ff7f8>
ffffffc050203e84:	853a                	mv	a0,a4
ffffffc050203e86:	c75ff0ef          	jal	ra,ffffffc050203afa <e1000_write_reg>
ffffffc050203e8a:	00049797          	auipc	a5,0x49
ffffffc050203e8e:	79678793          	addi	a5,a5,1942 # ffffffc05024d620 <e1000>
ffffffc050203e92:	6398                	ld	a4,0(a5)
ffffffc050203e94:	4601                	li	a2,0
ffffffc050203e96:	678d                	lui	a5,0x3
ffffffc050203e98:	81078593          	addi	a1,a5,-2032 # 2810 <boot_stack_top_base-0x501ff7f0>
ffffffc050203e9c:	853a                	mv	a0,a4
ffffffc050203e9e:	c5dff0ef          	jal	ra,ffffffc050203afa <e1000_write_reg>
ffffffc050203ea2:	00049797          	auipc	a5,0x49
ffffffc050203ea6:	77e78793          	addi	a5,a5,1918 # ffffffc05024d620 <e1000>
ffffffc050203eaa:	6398                	ld	a4,0(a5)
ffffffc050203eac:	03f00613          	li	a2,63
ffffffc050203eb0:	678d                	lui	a5,0x3
ffffffc050203eb2:	81878593          	addi	a1,a5,-2024 # 2818 <boot_stack_top_base-0x501ff7e8>
ffffffc050203eb6:	853a                	mv	a0,a4
ffffffc050203eb8:	c43ff0ef          	jal	ra,ffffffc050203afa <e1000_write_reg>
ffffffc050203ebc:	00049797          	auipc	a5,0x49
ffffffc050203ec0:	76478793          	addi	a5,a5,1892 # ffffffc05024d620 <e1000>
ffffffc050203ec4:	6398                	ld	a4,0(a5)
ffffffc050203ec6:	67a1                	lui	a5,0x8
ffffffc050203ec8:	00278613          	addi	a2,a5,2 # 8002 <boot_stack_top_base-0x501f9ffe>
ffffffc050203ecc:	10000593          	li	a1,256
ffffffc050203ed0:	853a                	mv	a0,a4
ffffffc050203ed2:	c29ff0ef          	jal	ra,ffffffc050203afa <e1000_write_reg>
ffffffc050203ed6:	0001                	nop
ffffffc050203ed8:	70a2                	ld	ra,40(sp)
ffffffc050203eda:	7402                	ld	s0,32(sp)
ffffffc050203edc:	64e2                	ld	s1,24(sp)
ffffffc050203ede:	6145                	addi	sp,sp,48
ffffffc050203ee0:	8082                	ret

ffffffc050203ee2 <e1000_init>:
ffffffc050203ee2:	1141                	addi	sp,sp,-16
ffffffc050203ee4:	e406                	sd	ra,8(sp)
ffffffc050203ee6:	e022                	sd	s0,0(sp)
ffffffc050203ee8:	0800                	addi	s0,sp,16
ffffffc050203eea:	ce7ff0ef          	jal	ra,ffffffc050203bd0 <e1000_reset>
ffffffc050203eee:	dbbff0ef          	jal	ra,ffffffc050203ca8 <e1000_configure_tx>
ffffffc050203ef2:	ea9ff0ef          	jal	ra,ffffffc050203d9a <e1000_configure_rx>
ffffffc050203ef6:	0001                	nop
ffffffc050203ef8:	60a2                	ld	ra,8(sp)
ffffffc050203efa:	6402                	ld	s0,0(sp)
ffffffc050203efc:	0141                	addi	sp,sp,16
ffffffc050203efe:	8082                	ret

ffffffc050203f00 <e1000_transmit>:
ffffffc050203f00:	7179                	addi	sp,sp,-48
ffffffc050203f02:	f406                	sd	ra,40(sp)
ffffffc050203f04:	f022                	sd	s0,32(sp)
ffffffc050203f06:	1800                	addi	s0,sp,48
ffffffc050203f08:	fca43c23          	sd	a0,-40(s0)
ffffffc050203f0c:	87ae                	mv	a5,a1
ffffffc050203f0e:	fcf42a23          	sw	a5,-44(s0)
ffffffc050203f12:	00049797          	auipc	a5,0x49
ffffffc050203f16:	70e78793          	addi	a5,a5,1806 # ffffffc05024d620 <e1000>
ffffffc050203f1a:	6398                	ld	a4,0(a5)
ffffffc050203f1c:	6791                	lui	a5,0x4
ffffffc050203f1e:	81878593          	addi	a1,a5,-2024 # 3818 <boot_stack_top_base-0x501fe7e8>
ffffffc050203f22:	853a                	mv	a0,a4
ffffffc050203f24:	c11ff0ef          	jal	ra,ffffffc050203b34 <e1000_read_reg>
ffffffc050203f28:	87aa                	mv	a5,a0
ffffffc050203f2a:	fef42623          	sw	a5,-20(s0)
ffffffc050203f2e:	fec46783          	lwu	a5,-20(s0)
ffffffc050203f32:	00479713          	slli	a4,a5,0x4
ffffffc050203f36:	00049797          	auipc	a5,0x49
ffffffc050203f3a:	eea78793          	addi	a5,a5,-278 # ffffffc05024ce20 <tx_desc_array>
ffffffc050203f3e:	97ba                	add	a5,a5,a4
ffffffc050203f40:	fef43023          	sd	a5,-32(s0)
ffffffc050203f44:	fe043783          	ld	a5,-32(s0)
ffffffc050203f48:	00c7c783          	lbu	a5,12(a5)
ffffffc050203f4c:	2781                	sext.w	a5,a5
ffffffc050203f4e:	8b85                	andi	a5,a5,1
ffffffc050203f50:	2781                	sext.w	a5,a5
ffffffc050203f52:	e399                	bnez	a5,ffffffc050203f58 <e1000_transmit+0x58>
ffffffc050203f54:	4781                	li	a5,0
ffffffc050203f56:	a269                	j	ffffffc0502040e0 <e1000_transmit+0x1e0>
ffffffc050203f58:	fec46783          	lwu	a5,-20(s0)
ffffffc050203f5c:	00b79713          	slli	a4,a5,0xb
ffffffc050203f60:	00009797          	auipc	a5,0x9
ffffffc050203f64:	9b078793          	addi	a5,a5,-1616 # ffffffc05020c910 <tx_pkt_buffer>
ffffffc050203f68:	973e                	add	a4,a4,a5
ffffffc050203f6a:	6785                	lui	a5,0x1
ffffffc050203f6c:	80078613          	addi	a2,a5,-2048 # 800 <boot_stack_top_base-0x50201800>
ffffffc050203f70:	4581                	li	a1,0
ffffffc050203f72:	853a                	mv	a0,a4
ffffffc050203f74:	48d050ef          	jal	ra,ffffffc050209c00 <memset>
ffffffc050203f78:	fec46783          	lwu	a5,-20(s0)
ffffffc050203f7c:	00b79713          	slli	a4,a5,0xb
ffffffc050203f80:	00009797          	auipc	a5,0x9
ffffffc050203f84:	99078793          	addi	a5,a5,-1648 # ffffffc05020c910 <tx_pkt_buffer>
ffffffc050203f88:	97ba                	add	a5,a5,a4
ffffffc050203f8a:	fd442703          	lw	a4,-44(s0)
ffffffc050203f8e:	863a                	mv	a2,a4
ffffffc050203f90:	fd843583          	ld	a1,-40(s0)
ffffffc050203f94:	853e                	mv	a0,a5
ffffffc050203f96:	419050ef          	jal	ra,ffffffc050209bae <memcpy>
ffffffc050203f9a:	fec46783          	lwu	a5,-20(s0)
ffffffc050203f9e:	00b79713          	slli	a4,a5,0xb
ffffffc050203fa2:	00009797          	auipc	a5,0x9
ffffffc050203fa6:	96e78793          	addi	a5,a5,-1682 # ffffffc05020c910 <tx_pkt_buffer>
ffffffc050203faa:	97ba                	add	a5,a5,a4
ffffffc050203fac:	853e                	mv	a0,a5
ffffffc050203fae:	c07ff0ef          	jal	ra,ffffffc050203bb4 <kva2pa>
ffffffc050203fb2:	872a                	mv	a4,a0
ffffffc050203fb4:	fe043783          	ld	a5,-32(s0)
ffffffc050203fb8:	0ff77593          	andi	a1,a4,255
ffffffc050203fbc:	0007c683          	lbu	a3,0(a5)
ffffffc050203fc0:	8a81                	andi	a3,a3,0
ffffffc050203fc2:	8636                	mv	a2,a3
ffffffc050203fc4:	86ae                	mv	a3,a1
ffffffc050203fc6:	8ed1                	or	a3,a3,a2
ffffffc050203fc8:	00d78023          	sb	a3,0(a5)
ffffffc050203fcc:	00875693          	srli	a3,a4,0x8
ffffffc050203fd0:	0ff6f593          	andi	a1,a3,255
ffffffc050203fd4:	0017c683          	lbu	a3,1(a5)
ffffffc050203fd8:	8a81                	andi	a3,a3,0
ffffffc050203fda:	8636                	mv	a2,a3
ffffffc050203fdc:	86ae                	mv	a3,a1
ffffffc050203fde:	8ed1                	or	a3,a3,a2
ffffffc050203fe0:	00d780a3          	sb	a3,1(a5)
ffffffc050203fe4:	01075693          	srli	a3,a4,0x10
ffffffc050203fe8:	0ff6f593          	andi	a1,a3,255
ffffffc050203fec:	0027c683          	lbu	a3,2(a5)
ffffffc050203ff0:	8a81                	andi	a3,a3,0
ffffffc050203ff2:	8636                	mv	a2,a3
ffffffc050203ff4:	86ae                	mv	a3,a1
ffffffc050203ff6:	8ed1                	or	a3,a3,a2
ffffffc050203ff8:	00d78123          	sb	a3,2(a5)
ffffffc050203ffc:	01875693          	srli	a3,a4,0x18
ffffffc050204000:	0ff6f593          	andi	a1,a3,255
ffffffc050204004:	0037c683          	lbu	a3,3(a5)
ffffffc050204008:	8a81                	andi	a3,a3,0
ffffffc05020400a:	8636                	mv	a2,a3
ffffffc05020400c:	86ae                	mv	a3,a1
ffffffc05020400e:	8ed1                	or	a3,a3,a2
ffffffc050204010:	00d781a3          	sb	a3,3(a5)
ffffffc050204014:	02075693          	srli	a3,a4,0x20
ffffffc050204018:	0ff6f593          	andi	a1,a3,255
ffffffc05020401c:	0047c683          	lbu	a3,4(a5)
ffffffc050204020:	8a81                	andi	a3,a3,0
ffffffc050204022:	8636                	mv	a2,a3
ffffffc050204024:	86ae                	mv	a3,a1
ffffffc050204026:	8ed1                	or	a3,a3,a2
ffffffc050204028:	00d78223          	sb	a3,4(a5)
ffffffc05020402c:	02875693          	srli	a3,a4,0x28
ffffffc050204030:	0ff6f593          	andi	a1,a3,255
ffffffc050204034:	0057c683          	lbu	a3,5(a5)
ffffffc050204038:	8a81                	andi	a3,a3,0
ffffffc05020403a:	8636                	mv	a2,a3
ffffffc05020403c:	86ae                	mv	a3,a1
ffffffc05020403e:	8ed1                	or	a3,a3,a2
ffffffc050204040:	00d782a3          	sb	a3,5(a5)
ffffffc050204044:	03075693          	srli	a3,a4,0x30
ffffffc050204048:	0ff6f593          	andi	a1,a3,255
ffffffc05020404c:	0067c683          	lbu	a3,6(a5)
ffffffc050204050:	8a81                	andi	a3,a3,0
ffffffc050204052:	8636                	mv	a2,a3
ffffffc050204054:	86ae                	mv	a3,a1
ffffffc050204056:	8ed1                	or	a3,a3,a2
ffffffc050204058:	00d78323          	sb	a3,6(a5)
ffffffc05020405c:	03875613          	srli	a2,a4,0x38
ffffffc050204060:	0077c703          	lbu	a4,7(a5)
ffffffc050204064:	8b01                	andi	a4,a4,0
ffffffc050204066:	86ba                	mv	a3,a4
ffffffc050204068:	8732                	mv	a4,a2
ffffffc05020406a:	8f55                	or	a4,a4,a3
ffffffc05020406c:	00e783a3          	sb	a4,7(a5)
ffffffc050204070:	fe043783          	ld	a5,-32(s0)
ffffffc050204074:	4725                	li	a4,9
ffffffc050204076:	00e785a3          	sb	a4,11(a5)
ffffffc05020407a:	fd442783          	lw	a5,-44(s0)
ffffffc05020407e:	03079713          	slli	a4,a5,0x30
ffffffc050204082:	9341                	srli	a4,a4,0x30
ffffffc050204084:	fe043783          	ld	a5,-32(s0)
ffffffc050204088:	0ff77593          	andi	a1,a4,255
ffffffc05020408c:	0087c683          	lbu	a3,8(a5)
ffffffc050204090:	8a81                	andi	a3,a3,0
ffffffc050204092:	8636                	mv	a2,a3
ffffffc050204094:	86ae                	mv	a3,a1
ffffffc050204096:	8ed1                	or	a3,a3,a2
ffffffc050204098:	00d78423          	sb	a3,8(a5)
ffffffc05020409c:	0087571b          	srliw	a4,a4,0x8
ffffffc0502040a0:	03071613          	slli	a2,a4,0x30
ffffffc0502040a4:	9241                	srli	a2,a2,0x30
ffffffc0502040a6:	0097c703          	lbu	a4,9(a5)
ffffffc0502040aa:	8b01                	andi	a4,a4,0
ffffffc0502040ac:	86ba                	mv	a3,a4
ffffffc0502040ae:	8732                	mv	a4,a2
ffffffc0502040b0:	8f55                	or	a4,a4,a3
ffffffc0502040b2:	00e784a3          	sb	a4,9(a5)
ffffffc0502040b6:	00049797          	auipc	a5,0x49
ffffffc0502040ba:	56a78793          	addi	a5,a5,1386 # ffffffc05024d620 <e1000>
ffffffc0502040be:	6398                	ld	a4,0(a5)
ffffffc0502040c0:	fec42783          	lw	a5,-20(s0)
ffffffc0502040c4:	2785                	addiw	a5,a5,1
ffffffc0502040c6:	2781                	sext.w	a5,a5
ffffffc0502040c8:	03f7f793          	andi	a5,a5,63
ffffffc0502040cc:	2781                	sext.w	a5,a5
ffffffc0502040ce:	863e                	mv	a2,a5
ffffffc0502040d0:	6791                	lui	a5,0x4
ffffffc0502040d2:	81878593          	addi	a1,a5,-2024 # 3818 <boot_stack_top_base-0x501fe7e8>
ffffffc0502040d6:	853a                	mv	a0,a4
ffffffc0502040d8:	a23ff0ef          	jal	ra,ffffffc050203afa <e1000_write_reg>
ffffffc0502040dc:	fd442783          	lw	a5,-44(s0)
ffffffc0502040e0:	853e                	mv	a0,a5
ffffffc0502040e2:	70a2                	ld	ra,40(sp)
ffffffc0502040e4:	7402                	ld	s0,32(sp)
ffffffc0502040e6:	6145                	addi	sp,sp,48
ffffffc0502040e8:	8082                	ret

ffffffc0502040ea <e1000_poll>:
ffffffc0502040ea:	7179                	addi	sp,sp,-48
ffffffc0502040ec:	f406                	sd	ra,40(sp)
ffffffc0502040ee:	f022                	sd	s0,32(sp)
ffffffc0502040f0:	1800                	addi	s0,sp,48
ffffffc0502040f2:	fca43c23          	sd	a0,-40(s0)
ffffffc0502040f6:	00049797          	auipc	a5,0x49
ffffffc0502040fa:	52a78793          	addi	a5,a5,1322 # ffffffc05024d620 <e1000>
ffffffc0502040fe:	6398                	ld	a4,0(a5)
ffffffc050204100:	678d                	lui	a5,0x3
ffffffc050204102:	81878593          	addi	a1,a5,-2024 # 2818 <boot_stack_top_base-0x501ff7e8>
ffffffc050204106:	853a                	mv	a0,a4
ffffffc050204108:	a2dff0ef          	jal	ra,ffffffc050203b34 <e1000_read_reg>
ffffffc05020410c:	87aa                	mv	a5,a0
ffffffc05020410e:	2781                	sext.w	a5,a5
ffffffc050204110:	2785                	addiw	a5,a5,1
ffffffc050204112:	2781                	sext.w	a5,a5
ffffffc050204114:	03f7f793          	andi	a5,a5,63
ffffffc050204118:	fef42623          	sw	a5,-20(s0)
ffffffc05020411c:	fec46783          	lwu	a5,-20(s0)
ffffffc050204120:	00479713          	slli	a4,a5,0x4
ffffffc050204124:	00049797          	auipc	a5,0x49
ffffffc050204128:	0fc78793          	addi	a5,a5,252 # ffffffc05024d220 <rx_desc_array>
ffffffc05020412c:	97ba                	add	a5,a5,a4
ffffffc05020412e:	fef43023          	sd	a5,-32(s0)
ffffffc050204132:	fe043783          	ld	a5,-32(s0)
ffffffc050204136:	00c7c783          	lbu	a5,12(a5)
ffffffc05020413a:	2781                	sext.w	a5,a5
ffffffc05020413c:	8b85                	andi	a5,a5,1
ffffffc05020413e:	2781                	sext.w	a5,a5
ffffffc050204140:	e399                	bnez	a5,ffffffc050204146 <e1000_poll+0x5c>
ffffffc050204142:	4781                	li	a5,0
ffffffc050204144:	a8a5                	j	ffffffc0502041bc <e1000_poll+0xd2>
ffffffc050204146:	fec46783          	lwu	a5,-20(s0)
ffffffc05020414a:	00b79713          	slli	a4,a5,0xb
ffffffc05020414e:	00028797          	auipc	a5,0x28
ffffffc050204152:	7c278793          	addi	a5,a5,1986 # ffffffc05022c910 <rx_pkt_buffer>
ffffffc050204156:	00f706b3          	add	a3,a4,a5
ffffffc05020415a:	fe043783          	ld	a5,-32(s0)
ffffffc05020415e:	0087c703          	lbu	a4,8(a5)
ffffffc050204162:	0097c783          	lbu	a5,9(a5)
ffffffc050204166:	07a2                	slli	a5,a5,0x8
ffffffc050204168:	8fd9                	or	a5,a5,a4
ffffffc05020416a:	17c2                	slli	a5,a5,0x30
ffffffc05020416c:	93c1                	srli	a5,a5,0x30
ffffffc05020416e:	2781                	sext.w	a5,a5
ffffffc050204170:	863e                	mv	a2,a5
ffffffc050204172:	85b6                	mv	a1,a3
ffffffc050204174:	fd843503          	ld	a0,-40(s0)
ffffffc050204178:	237050ef          	jal	ra,ffffffc050209bae <memcpy>
ffffffc05020417c:	fe043783          	ld	a5,-32(s0)
ffffffc050204180:	00078623          	sb	zero,12(a5)
ffffffc050204184:	00049797          	auipc	a5,0x49
ffffffc050204188:	49c78793          	addi	a5,a5,1180 # ffffffc05024d620 <e1000>
ffffffc05020418c:	6398                	ld	a4,0(a5)
ffffffc05020418e:	fec42783          	lw	a5,-20(s0)
ffffffc050204192:	03f7f793          	andi	a5,a5,63
ffffffc050204196:	2781                	sext.w	a5,a5
ffffffc050204198:	863e                	mv	a2,a5
ffffffc05020419a:	678d                	lui	a5,0x3
ffffffc05020419c:	81878593          	addi	a1,a5,-2024 # 2818 <boot_stack_top_base-0x501ff7e8>
ffffffc0502041a0:	853a                	mv	a0,a4
ffffffc0502041a2:	959ff0ef          	jal	ra,ffffffc050203afa <e1000_write_reg>
ffffffc0502041a6:	fe043783          	ld	a5,-32(s0)
ffffffc0502041aa:	0087c703          	lbu	a4,8(a5)
ffffffc0502041ae:	0097c783          	lbu	a5,9(a5)
ffffffc0502041b2:	07a2                	slli	a5,a5,0x8
ffffffc0502041b4:	8fd9                	or	a5,a5,a4
ffffffc0502041b6:	17c2                	slli	a5,a5,0x30
ffffffc0502041b8:	93c1                	srli	a5,a5,0x30
ffffffc0502041ba:	2781                	sext.w	a5,a5
ffffffc0502041bc:	853e                	mv	a0,a5
ffffffc0502041be:	70a2                	ld	ra,40(sp)
ffffffc0502041c0:	7402                	ld	s0,32(sp)
ffffffc0502041c2:	6145                	addi	sp,sp,48
ffffffc0502041c4:	8082                	ret

ffffffc0502041c6 <writel>:
ffffffc0502041c6:	1101                	addi	sp,sp,-32
ffffffc0502041c8:	ec22                	sd	s0,24(sp)
ffffffc0502041ca:	1000                	addi	s0,sp,32
ffffffc0502041cc:	87aa                	mv	a5,a0
ffffffc0502041ce:	feb43023          	sd	a1,-32(s0)
ffffffc0502041d2:	fef42623          	sw	a5,-20(s0)
ffffffc0502041d6:	0550000f          	fence	ow,ow
ffffffc0502041da:	fe043783          	ld	a5,-32(s0)
ffffffc0502041de:	fec42703          	lw	a4,-20(s0)
ffffffc0502041e2:	c398                	sw	a4,0(a5)
ffffffc0502041e4:	0001                	nop
ffffffc0502041e6:	6462                	ld	s0,24(sp)
ffffffc0502041e8:	6105                	addi	sp,sp,32
ffffffc0502041ea:	8082                	ret

ffffffc0502041ec <readl>:
ffffffc0502041ec:	7179                	addi	sp,sp,-48
ffffffc0502041ee:	f422                	sd	s0,40(sp)
ffffffc0502041f0:	1800                	addi	s0,sp,48
ffffffc0502041f2:	fca43c23          	sd	a0,-40(s0)
ffffffc0502041f6:	fd843783          	ld	a5,-40(s0)
ffffffc0502041fa:	439c                	lw	a5,0(a5)
ffffffc0502041fc:	fef42623          	sw	a5,-20(s0)
ffffffc050204200:	0aa0000f          	fence	ir,ir
ffffffc050204204:	fec42783          	lw	a5,-20(s0)
ffffffc050204208:	853e                	mv	a0,a5
ffffffc05020420a:	7422                	ld	s0,40(sp)
ffffffc05020420c:	6145                	addi	sp,sp,48
ffffffc05020420e:	8082                	ret

ffffffc050204210 <plic_toggle>:
ffffffc050204210:	7179                	addi	sp,sp,-48
ffffffc050204212:	f406                	sd	ra,40(sp)
ffffffc050204214:	f022                	sd	s0,32(sp)
ffffffc050204216:	1800                	addi	s0,sp,48
ffffffc050204218:	fca43c23          	sd	a0,-40(s0)
ffffffc05020421c:	87ae                	mv	a5,a1
ffffffc05020421e:	8732                	mv	a4,a2
ffffffc050204220:	fcf42a23          	sw	a5,-44(s0)
ffffffc050204224:	87ba                	mv	a5,a4
ffffffc050204226:	fcf42823          	sw	a5,-48(s0)
ffffffc05020422a:	fd843783          	ld	a5,-40(s0)
ffffffc05020422e:	6b98                	ld	a4,16(a5)
ffffffc050204230:	fd442783          	lw	a5,-44(s0)
ffffffc050204234:	41f7d69b          	sraiw	a3,a5,0x1f
ffffffc050204238:	01b6d69b          	srliw	a3,a3,0x1b
ffffffc05020423c:	9fb5                	addw	a5,a5,a3
ffffffc05020423e:	4057d79b          	sraiw	a5,a5,0x5
ffffffc050204242:	2781                	sext.w	a5,a5
ffffffc050204244:	078a                	slli	a5,a5,0x2
ffffffc050204246:	97ba                	add	a5,a5,a4
ffffffc050204248:	fef43423          	sd	a5,-24(s0)
ffffffc05020424c:	fd442703          	lw	a4,-44(s0)
ffffffc050204250:	41f7579b          	sraiw	a5,a4,0x1f
ffffffc050204254:	01b7d79b          	srliw	a5,a5,0x1b
ffffffc050204258:	9f3d                	addw	a4,a4,a5
ffffffc05020425a:	8b7d                	andi	a4,a4,31
ffffffc05020425c:	40f707bb          	subw	a5,a4,a5
ffffffc050204260:	2781                	sext.w	a5,a5
ffffffc050204262:	4705                	li	a4,1
ffffffc050204264:	00f717bb          	sllw	a5,a4,a5
ffffffc050204268:	2781                	sext.w	a5,a5
ffffffc05020426a:	fef42223          	sw	a5,-28(s0)
ffffffc05020426e:	fd042783          	lw	a5,-48(s0)
ffffffc050204272:	2781                	sext.w	a5,a5
ffffffc050204274:	c395                	beqz	a5,ffffffc050204298 <plic_toggle+0x88>
ffffffc050204276:	fe843503          	ld	a0,-24(s0)
ffffffc05020427a:	f73ff0ef          	jal	ra,ffffffc0502041ec <readl>
ffffffc05020427e:	87aa                	mv	a5,a0
ffffffc050204280:	0007871b          	sext.w	a4,a5
ffffffc050204284:	fe442783          	lw	a5,-28(s0)
ffffffc050204288:	8fd9                	or	a5,a5,a4
ffffffc05020428a:	2781                	sext.w	a5,a5
ffffffc05020428c:	fe843583          	ld	a1,-24(s0)
ffffffc050204290:	853e                	mv	a0,a5
ffffffc050204292:	f35ff0ef          	jal	ra,ffffffc0502041c6 <writel>
ffffffc050204296:	a025                	j	ffffffc0502042be <plic_toggle+0xae>
ffffffc050204298:	fe843503          	ld	a0,-24(s0)
ffffffc05020429c:	f51ff0ef          	jal	ra,ffffffc0502041ec <readl>
ffffffc0502042a0:	87aa                	mv	a5,a0
ffffffc0502042a2:	0007871b          	sext.w	a4,a5
ffffffc0502042a6:	fe442783          	lw	a5,-28(s0)
ffffffc0502042aa:	fff7c793          	not	a5,a5
ffffffc0502042ae:	2781                	sext.w	a5,a5
ffffffc0502042b0:	8ff9                	and	a5,a5,a4
ffffffc0502042b2:	2781                	sext.w	a5,a5
ffffffc0502042b4:	fe843583          	ld	a1,-24(s0)
ffffffc0502042b8:	853e                	mv	a0,a5
ffffffc0502042ba:	f0dff0ef          	jal	ra,ffffffc0502041c6 <writel>
ffffffc0502042be:	0001                	nop
ffffffc0502042c0:	70a2                	ld	ra,40(sp)
ffffffc0502042c2:	7402                	ld	s0,32(sp)
ffffffc0502042c4:	6145                	addi	sp,sp,48
ffffffc0502042c6:	8082                	ret

ffffffc0502042c8 <plic_irq_unmask>:
ffffffc0502042c8:	7179                	addi	sp,sp,-48
ffffffc0502042ca:	f406                	sd	ra,40(sp)
ffffffc0502042cc:	f022                	sd	s0,32(sp)
ffffffc0502042ce:	1800                	addi	s0,sp,48
ffffffc0502042d0:	87aa                	mv	a5,a0
ffffffc0502042d2:	fcf42e23          	sw	a5,-36(s0)
ffffffc0502042d6:	4785                	li	a5,1
ffffffc0502042d8:	fef42623          	sw	a5,-20(s0)
ffffffc0502042dc:	fec42683          	lw	a3,-20(s0)
ffffffc0502042e0:	00048797          	auipc	a5,0x48
ffffffc0502042e4:	63078793          	addi	a5,a5,1584 # ffffffc05024c910 <plic_regs>
ffffffc0502042e8:	639c                	ld	a5,0(a5)
ffffffc0502042ea:	fdc42703          	lw	a4,-36(s0)
ffffffc0502042ee:	0027171b          	slliw	a4,a4,0x2
ffffffc0502042f2:	2701                	sext.w	a4,a4
ffffffc0502042f4:	97ba                	add	a5,a5,a4
ffffffc0502042f6:	85be                	mv	a1,a5
ffffffc0502042f8:	8536                	mv	a0,a3
ffffffc0502042fa:	ecdff0ef          	jal	ra,ffffffc0502041c6 <writel>
ffffffc0502042fe:	00049797          	auipc	a5,0x49
ffffffc050204302:	33a78793          	addi	a5,a5,826 # ffffffc05024d638 <plic_handlers>
ffffffc050204306:	fef43023          	sd	a5,-32(s0)
ffffffc05020430a:	fe043783          	ld	a5,-32(s0)
ffffffc05020430e:	439c                	lw	a5,0(a5)
ffffffc050204310:	cb99                	beqz	a5,ffffffc050204326 <plic_irq_unmask+0x5e>
ffffffc050204312:	fec42703          	lw	a4,-20(s0)
ffffffc050204316:	fdc42783          	lw	a5,-36(s0)
ffffffc05020431a:	863a                	mv	a2,a4
ffffffc05020431c:	85be                	mv	a1,a5
ffffffc05020431e:	fe043503          	ld	a0,-32(s0)
ffffffc050204322:	eefff0ef          	jal	ra,ffffffc050204210 <plic_toggle>
ffffffc050204326:	0001                	nop
ffffffc050204328:	70a2                	ld	ra,40(sp)
ffffffc05020432a:	7402                	ld	s0,32(sp)
ffffffc05020432c:	6145                	addi	sp,sp,48
ffffffc05020432e:	8082                	ret

ffffffc050204330 <plic_claim>:
ffffffc050204330:	1101                	addi	sp,sp,-32
ffffffc050204332:	ec06                	sd	ra,24(sp)
ffffffc050204334:	e822                	sd	s0,16(sp)
ffffffc050204336:	1000                	addi	s0,sp,32
ffffffc050204338:	00049797          	auipc	a5,0x49
ffffffc05020433c:	30078793          	addi	a5,a5,768 # ffffffc05024d638 <plic_handlers>
ffffffc050204340:	fef43423          	sd	a5,-24(s0)
ffffffc050204344:	fe843783          	ld	a5,-24(s0)
ffffffc050204348:	679c                	ld	a5,8(a5)
ffffffc05020434a:	0791                	addi	a5,a5,4
ffffffc05020434c:	fef43023          	sd	a5,-32(s0)
ffffffc050204350:	fe043503          	ld	a0,-32(s0)
ffffffc050204354:	e99ff0ef          	jal	ra,ffffffc0502041ec <readl>
ffffffc050204358:	87aa                	mv	a5,a0
ffffffc05020435a:	2781                	sext.w	a5,a5
ffffffc05020435c:	853e                	mv	a0,a5
ffffffc05020435e:	60e2                	ld	ra,24(sp)
ffffffc050204360:	6442                	ld	s0,16(sp)
ffffffc050204362:	6105                	addi	sp,sp,32
ffffffc050204364:	8082                	ret

ffffffc050204366 <plic_complete>:
ffffffc050204366:	7179                	addi	sp,sp,-48
ffffffc050204368:	f406                	sd	ra,40(sp)
ffffffc05020436a:	f022                	sd	s0,32(sp)
ffffffc05020436c:	1800                	addi	s0,sp,48
ffffffc05020436e:	87aa                	mv	a5,a0
ffffffc050204370:	fcf42e23          	sw	a5,-36(s0)
ffffffc050204374:	00049797          	auipc	a5,0x49
ffffffc050204378:	2c478793          	addi	a5,a5,708 # ffffffc05024d638 <plic_handlers>
ffffffc05020437c:	fef43423          	sd	a5,-24(s0)
ffffffc050204380:	fdc42703          	lw	a4,-36(s0)
ffffffc050204384:	fe843783          	ld	a5,-24(s0)
ffffffc050204388:	679c                	ld	a5,8(a5)
ffffffc05020438a:	0791                	addi	a5,a5,4
ffffffc05020438c:	85be                	mv	a1,a5
ffffffc05020438e:	853a                	mv	a0,a4
ffffffc050204390:	e37ff0ef          	jal	ra,ffffffc0502041c6 <writel>
ffffffc050204394:	0001                	nop
ffffffc050204396:	70a2                	ld	ra,40(sp)
ffffffc050204398:	7402                	ld	s0,32(sp)
ffffffc05020439a:	6145                	addi	sp,sp,48
ffffffc05020439c:	8082                	ret

ffffffc05020439e <plic_init>:
ffffffc05020439e:	7179                	addi	sp,sp,-48
ffffffc0502043a0:	f406                	sd	ra,40(sp)
ffffffc0502043a2:	f022                	sd	s0,32(sp)
ffffffc0502043a4:	1800                	addi	s0,sp,48
ffffffc0502043a6:	fca43c23          	sd	a0,-40(s0)
ffffffc0502043aa:	87ae                	mv	a5,a1
ffffffc0502043ac:	fcf42a23          	sw	a5,-44(s0)
ffffffc0502043b0:	fd843703          	ld	a4,-40(s0)
ffffffc0502043b4:	00048797          	auipc	a5,0x48
ffffffc0502043b8:	55c78793          	addi	a5,a5,1372 # ffffffc05024c910 <plic_regs>
ffffffc0502043bc:	e398                	sd	a4,0(a5)
ffffffc0502043be:	fe042423          	sw	zero,-24(s0)
ffffffc0502043c2:	00049797          	auipc	a5,0x49
ffffffc0502043c6:	27678793          	addi	a5,a5,630 # ffffffc05024d638 <plic_handlers>
ffffffc0502043ca:	fef43023          	sd	a5,-32(s0)
ffffffc0502043ce:	fe043783          	ld	a5,-32(s0)
ffffffc0502043d2:	439c                	lw	a5,0(a5)
ffffffc0502043d4:	cb99                	beqz	a5,ffffffc0502043ea <plic_init+0x4c>
ffffffc0502043d6:	00006517          	auipc	a0,0x6
ffffffc0502043da:	d1250513          	addi	a0,a0,-750 # ffffffc05020a0e8 <strcat+0x226>
ffffffc0502043de:	668050ef          	jal	ra,ffffffc050209a46 <printk>
ffffffc0502043e2:	57fd                	li	a5,-1
ffffffc0502043e4:	fef42423          	sw	a5,-24(s0)
ffffffc0502043e8:	a815                	j	ffffffc05020441c <plic_init+0x7e>
ffffffc0502043ea:	fe043783          	ld	a5,-32(s0)
ffffffc0502043ee:	4705                	li	a4,1
ffffffc0502043f0:	c398                	sw	a4,0(a5)
ffffffc0502043f2:	00048797          	auipc	a5,0x48
ffffffc0502043f6:	51e78793          	addi	a5,a5,1310 # ffffffc05024c910 <plic_regs>
ffffffc0502043fa:	6398                	ld	a4,0(a5)
ffffffc0502043fc:	002007b7          	lui	a5,0x200
ffffffc050204400:	973e                	add	a4,a4,a5
ffffffc050204402:	fe043783          	ld	a5,-32(s0)
ffffffc050204406:	e798                	sd	a4,8(a5)
ffffffc050204408:	00048797          	auipc	a5,0x48
ffffffc05020440c:	50878793          	addi	a5,a5,1288 # ffffffc05024c910 <plic_regs>
ffffffc050204410:	6398                	ld	a4,0(a5)
ffffffc050204412:	6789                	lui	a5,0x2
ffffffc050204414:	973e                	add	a4,a4,a5
ffffffc050204416:	fe043783          	ld	a5,-32(s0)
ffffffc05020441a:	eb98                	sd	a4,16(a5)
ffffffc05020441c:	fe043783          	ld	a5,-32(s0)
ffffffc050204420:	6798                	ld	a4,8(a5)
ffffffc050204422:	fe842783          	lw	a5,-24(s0)
ffffffc050204426:	85ba                	mv	a1,a4
ffffffc050204428:	853e                	mv	a0,a5
ffffffc05020442a:	d9dff0ef          	jal	ra,ffffffc0502041c6 <writel>
ffffffc05020442e:	4785                	li	a5,1
ffffffc050204430:	fef42623          	sw	a5,-20(s0)
ffffffc050204434:	a831                	j	ffffffc050204450 <plic_init+0xb2>
ffffffc050204436:	fec42783          	lw	a5,-20(s0)
ffffffc05020443a:	4601                	li	a2,0
ffffffc05020443c:	85be                	mv	a1,a5
ffffffc05020443e:	fe043503          	ld	a0,-32(s0)
ffffffc050204442:	dcfff0ef          	jal	ra,ffffffc050204210 <plic_toggle>
ffffffc050204446:	fec42783          	lw	a5,-20(s0)
ffffffc05020444a:	2785                	addiw	a5,a5,1
ffffffc05020444c:	fef42623          	sw	a5,-20(s0)
ffffffc050204450:	fec42703          	lw	a4,-20(s0)
ffffffc050204454:	fd442783          	lw	a5,-44(s0)
ffffffc050204458:	2781                	sext.w	a5,a5
ffffffc05020445a:	fce7fee3          	bgeu	a5,a4,ffffffc050204436 <plic_init+0x98>
ffffffc05020445e:	fec42783          	lw	a5,-20(s0)
ffffffc050204462:	0007871b          	sext.w	a4,a5
ffffffc050204466:	02100793          	li	a5,33
ffffffc05020446a:	00e7d763          	bge	a5,a4,ffffffc050204478 <plic_init+0xda>
ffffffc05020446e:	02100513          	li	a0,33
ffffffc050204472:	e57ff0ef          	jal	ra,ffffffc0502042c8 <plic_irq_unmask>
ffffffc050204476:	a021                	j	ffffffc05020447e <plic_init+0xe0>
ffffffc050204478:	4509                	li	a0,2
ffffffc05020447a:	e4fff0ef          	jal	ra,ffffffc0502042c8 <plic_irq_unmask>
ffffffc05020447e:	4781                	li	a5,0
ffffffc050204480:	853e                	mv	a0,a5
ffffffc050204482:	70a2                	ld	ra,40(sp)
ffffffc050204484:	7402                	ld	s0,32(sp)
ffffffc050204486:	6145                	addi	sp,sp,48
ffffffc050204488:	8082                	ret

ffffffc05020448a <local_flush_tlb_all>:
ffffffc05020448a:	1141                	addi	sp,sp,-16
ffffffc05020448c:	e422                	sd	s0,8(sp)
ffffffc05020448e:	0800                	addi	s0,sp,16
ffffffc050204490:	12000073          	sfence.vma
ffffffc050204494:	0001                	nop
ffffffc050204496:	6422                	ld	s0,8(sp)
ffffffc050204498:	0141                	addi	sp,sp,16
ffffffc05020449a:	8082                	ret

ffffffc05020449c <kva2pa>:
ffffffc05020449c:	1101                	addi	sp,sp,-32
ffffffc05020449e:	ec22                	sd	s0,24(sp)
ffffffc0502044a0:	1000                	addi	s0,sp,32
ffffffc0502044a2:	fea43423          	sd	a0,-24(s0)
ffffffc0502044a6:	fe843703          	ld	a4,-24(s0)
ffffffc0502044aa:	4785                	li	a5,1
ffffffc0502044ac:	179a                	slli	a5,a5,0x26
ffffffc0502044ae:	97ba                	add	a5,a5,a4
ffffffc0502044b0:	853e                	mv	a0,a5
ffffffc0502044b2:	6462                	ld	s0,24(sp)
ffffffc0502044b4:	6105                	addi	sp,sp,32
ffffffc0502044b6:	8082                	ret

ffffffc0502044b8 <pa2kva>:
ffffffc0502044b8:	1101                	addi	sp,sp,-32
ffffffc0502044ba:	ec22                	sd	s0,24(sp)
ffffffc0502044bc:	1000                	addi	s0,sp,32
ffffffc0502044be:	fea43423          	sd	a0,-24(s0)
ffffffc0502044c2:	fe843703          	ld	a4,-24(s0)
ffffffc0502044c6:	57fd                	li	a5,-1
ffffffc0502044c8:	179a                	slli	a5,a5,0x26
ffffffc0502044ca:	97ba                	add	a5,a5,a4
ffffffc0502044cc:	853e                	mv	a0,a5
ffffffc0502044ce:	6462                	ld	s0,24(sp)
ffffffc0502044d0:	6105                	addi	sp,sp,32
ffffffc0502044d2:	8082                	ret

ffffffc0502044d4 <set_attribute>:
ffffffc0502044d4:	1101                	addi	sp,sp,-32
ffffffc0502044d6:	ec22                	sd	s0,24(sp)
ffffffc0502044d8:	1000                	addi	s0,sp,32
ffffffc0502044da:	fea43423          	sd	a0,-24(s0)
ffffffc0502044de:	feb43023          	sd	a1,-32(s0)
ffffffc0502044e2:	fe843783          	ld	a5,-24(s0)
ffffffc0502044e6:	6398                	ld	a4,0(a5)
ffffffc0502044e8:	fe043783          	ld	a5,-32(s0)
ffffffc0502044ec:	8f5d                	or	a4,a4,a5
ffffffc0502044ee:	fe843783          	ld	a5,-24(s0)
ffffffc0502044f2:	e398                	sd	a4,0(a5)
ffffffc0502044f4:	0001                	nop
ffffffc0502044f6:	6462                	ld	s0,24(sp)
ffffffc0502044f8:	6105                	addi	sp,sp,32
ffffffc0502044fa:	8082                	ret

ffffffc0502044fc <call_jmptab>:
ffffffc0502044fc:	7139                	addi	sp,sp,-64
ffffffc0502044fe:	fc06                	sd	ra,56(sp)
ffffffc050204500:	f822                	sd	s0,48(sp)
ffffffc050204502:	0080                	addi	s0,sp,64
ffffffc050204504:	fca43c23          	sd	a0,-40(s0)
ffffffc050204508:	fcb43823          	sd	a1,-48(s0)
ffffffc05020450c:	fcc43423          	sd	a2,-56(s0)
ffffffc050204510:	fcd43023          	sd	a3,-64(s0)
ffffffc050204514:	fd843783          	ld	a5,-40(s0)
ffffffc050204518:	00379713          	slli	a4,a5,0x3
ffffffc05020451c:	fe0297b7          	lui	a5,0xfe029
ffffffc050204520:	07b6                	slli	a5,a5,0xd
ffffffc050204522:	f0078793          	addi	a5,a5,-256 # fffffffffe028f00 <__BSS_END__+0x3faddd5208>
ffffffc050204526:	97ba                	add	a5,a5,a4
ffffffc050204528:	639c                	ld	a5,0(a5)
ffffffc05020452a:	fef43423          	sd	a5,-24(s0)
ffffffc05020452e:	fe843783          	ld	a5,-24(s0)
ffffffc050204532:	fef43023          	sd	a5,-32(s0)
ffffffc050204536:	fe043783          	ld	a5,-32(s0)
ffffffc05020453a:	fc043603          	ld	a2,-64(s0)
ffffffc05020453e:	fc843583          	ld	a1,-56(s0)
ffffffc050204542:	fd043503          	ld	a0,-48(s0)
ffffffc050204546:	9782                	jalr	a5
ffffffc050204548:	87aa                	mv	a5,a0
ffffffc05020454a:	853e                	mv	a0,a5
ffffffc05020454c:	70e2                	ld	ra,56(sp)
ffffffc05020454e:	7442                	ld	s0,48(sp)
ffffffc050204550:	6121                	addi	sp,sp,64
ffffffc050204552:	8082                	ret

ffffffc050204554 <bios_sdread>:
ffffffc050204554:	1101                	addi	sp,sp,-32
ffffffc050204556:	ec06                	sd	ra,24(sp)
ffffffc050204558:	e822                	sd	s0,16(sp)
ffffffc05020455a:	1000                	addi	s0,sp,32
ffffffc05020455c:	87aa                	mv	a5,a0
ffffffc05020455e:	86ae                	mv	a3,a1
ffffffc050204560:	8732                	mv	a4,a2
ffffffc050204562:	fef42623          	sw	a5,-20(s0)
ffffffc050204566:	87b6                	mv	a5,a3
ffffffc050204568:	fef42423          	sw	a5,-24(s0)
ffffffc05020456c:	87ba                	mv	a5,a4
ffffffc05020456e:	fef42223          	sw	a5,-28(s0)
ffffffc050204572:	fec46783          	lwu	a5,-20(s0)
ffffffc050204576:	fe846703          	lwu	a4,-24(s0)
ffffffc05020457a:	fe446683          	lwu	a3,-28(s0)
ffffffc05020457e:	863a                	mv	a2,a4
ffffffc050204580:	85be                	mv	a1,a5
ffffffc050204582:	450d                	li	a0,3
ffffffc050204584:	f79ff0ef          	jal	ra,ffffffc0502044fc <call_jmptab>
ffffffc050204588:	87aa                	mv	a5,a0
ffffffc05020458a:	2781                	sext.w	a5,a5
ffffffc05020458c:	853e                	mv	a0,a5
ffffffc05020458e:	60e2                	ld	ra,24(sp)
ffffffc050204590:	6442                	ld	s0,16(sp)
ffffffc050204592:	6105                	addi	sp,sp,32
ffffffc050204594:	8082                	ret

ffffffc050204596 <bios_sdwrite>:
ffffffc050204596:	1101                	addi	sp,sp,-32
ffffffc050204598:	ec06                	sd	ra,24(sp)
ffffffc05020459a:	e822                	sd	s0,16(sp)
ffffffc05020459c:	1000                	addi	s0,sp,32
ffffffc05020459e:	87aa                	mv	a5,a0
ffffffc0502045a0:	86ae                	mv	a3,a1
ffffffc0502045a2:	8732                	mv	a4,a2
ffffffc0502045a4:	fef42623          	sw	a5,-20(s0)
ffffffc0502045a8:	87b6                	mv	a5,a3
ffffffc0502045aa:	fef42423          	sw	a5,-24(s0)
ffffffc0502045ae:	87ba                	mv	a5,a4
ffffffc0502045b0:	fef42223          	sw	a5,-28(s0)
ffffffc0502045b4:	fec46783          	lwu	a5,-20(s0)
ffffffc0502045b8:	fe846703          	lwu	a4,-24(s0)
ffffffc0502045bc:	fe446683          	lwu	a3,-28(s0)
ffffffc0502045c0:	863a                	mv	a2,a4
ffffffc0502045c2:	85be                	mv	a1,a5
ffffffc0502045c4:	4511                	li	a0,4
ffffffc0502045c6:	f37ff0ef          	jal	ra,ffffffc0502044fc <call_jmptab>
ffffffc0502045ca:	87aa                	mv	a5,a0
ffffffc0502045cc:	2781                	sext.w	a5,a5
ffffffc0502045ce:	853e                	mv	a0,a5
ffffffc0502045d0:	60e2                	ld	ra,24(sp)
ffffffc0502045d2:	6442                	ld	s0,16(sp)
ffffffc0502045d4:	6105                	addi	sp,sp,32
ffffffc0502045d6:	8082                	ret

ffffffc0502045d8 <bios_set_timer>:
ffffffc0502045d8:	1101                	addi	sp,sp,-32
ffffffc0502045da:	ec06                	sd	ra,24(sp)
ffffffc0502045dc:	e822                	sd	s0,16(sp)
ffffffc0502045de:	1000                	addi	s0,sp,32
ffffffc0502045e0:	fea43423          	sd	a0,-24(s0)
ffffffc0502045e4:	fe843783          	ld	a5,-24(s0)
ffffffc0502045e8:	4681                	li	a3,0
ffffffc0502045ea:	4601                	li	a2,0
ffffffc0502045ec:	85be                	mv	a1,a5
ffffffc0502045ee:	4519                	li	a0,6
ffffffc0502045f0:	f0dff0ef          	jal	ra,ffffffc0502044fc <call_jmptab>
ffffffc0502045f4:	0001                	nop
ffffffc0502045f6:	60e2                	ld	ra,24(sp)
ffffffc0502045f8:	6442                	ld	s0,16(sp)
ffffffc0502045fa:	6105                	addi	sp,sp,32
ffffffc0502045fc:	8082                	ret

ffffffc0502045fe <_panic>:
ffffffc0502045fe:	7179                	addi	sp,sp,-48
ffffffc050204600:	f406                	sd	ra,40(sp)
ffffffc050204602:	f022                	sd	s0,32(sp)
ffffffc050204604:	1800                	addi	s0,sp,48
ffffffc050204606:	fea43423          	sd	a0,-24(s0)
ffffffc05020460a:	87ae                	mv	a5,a1
ffffffc05020460c:	fcc43c23          	sd	a2,-40(s0)
ffffffc050204610:	fef42223          	sw	a5,-28(s0)
ffffffc050204614:	fe442783          	lw	a5,-28(s0)
ffffffc050204618:	86be                	mv	a3,a5
ffffffc05020461a:	fe843603          	ld	a2,-24(s0)
ffffffc05020461e:	fd843583          	ld	a1,-40(s0)
ffffffc050204622:	00006517          	auipc	a0,0x6
ffffffc050204626:	be650513          	addi	a0,a0,-1050 # ffffffc05020a208 <strcat+0x346>
ffffffc05020462a:	41c050ef          	jal	ra,ffffffc050209a46 <printk>
ffffffc05020462e:	a001                	j	ffffffc05020462e <_panic+0x30>

ffffffc050204630 <interrupt_helper>:
ffffffc050204630:	7139                	addi	sp,sp,-64
ffffffc050204632:	fc06                	sd	ra,56(sp)
ffffffc050204634:	f822                	sd	s0,48(sp)
ffffffc050204636:	0080                	addi	s0,sp,64
ffffffc050204638:	fca43c23          	sd	a0,-40(s0)
ffffffc05020463c:	fcb43823          	sd	a1,-48(s0)
ffffffc050204640:	fcc43423          	sd	a2,-56(s0)
ffffffc050204644:	fc843783          	ld	a5,-56(s0)
ffffffc050204648:	0007d763          	bgez	a5,ffffffc050204656 <interrupt_helper+0x26>
ffffffc05020464c:	00049797          	auipc	a5,0x49
ffffffc050204650:	08478793          	addi	a5,a5,132 # ffffffc05024d6d0 <irq_table>
ffffffc050204654:	a029                	j	ffffffc05020465e <interrupt_helper+0x2e>
ffffffc050204656:	00049797          	auipc	a5,0x49
ffffffc05020465a:	ffa78793          	addi	a5,a5,-6 # ffffffc05024d650 <exc_table>
ffffffc05020465e:	fef43423          	sd	a5,-24(s0)
ffffffc050204662:	fc843783          	ld	a5,-56(s0)
ffffffc050204666:	0786                	slli	a5,a5,0x1
ffffffc050204668:	fcf43423          	sd	a5,-56(s0)
ffffffc05020466c:	fc843783          	ld	a5,-56(s0)
ffffffc050204670:	8385                	srli	a5,a5,0x1
ffffffc050204672:	fcf43423          	sd	a5,-56(s0)
ffffffc050204676:	fc843783          	ld	a5,-56(s0)
ffffffc05020467a:	078e                	slli	a5,a5,0x3
ffffffc05020467c:	fe843703          	ld	a4,-24(s0)
ffffffc050204680:	97ba                	add	a5,a5,a4
ffffffc050204682:	639c                	ld	a5,0(a5)
ffffffc050204684:	fc843603          	ld	a2,-56(s0)
ffffffc050204688:	fd043583          	ld	a1,-48(s0)
ffffffc05020468c:	fd843503          	ld	a0,-40(s0)
ffffffc050204690:	9782                	jalr	a5
ffffffc050204692:	0001                	nop
ffffffc050204694:	70e2                	ld	ra,56(sp)
ffffffc050204696:	7442                	ld	s0,48(sp)
ffffffc050204698:	6121                	addi	sp,sp,64
ffffffc05020469a:	8082                	ret

ffffffc05020469c <handle_irq_timer>:
ffffffc05020469c:	7179                	addi	sp,sp,-48
ffffffc05020469e:	f406                	sd	ra,40(sp)
ffffffc0502046a0:	f022                	sd	s0,32(sp)
ffffffc0502046a2:	1800                	addi	s0,sp,48
ffffffc0502046a4:	fea43423          	sd	a0,-24(s0)
ffffffc0502046a8:	feb43023          	sd	a1,-32(s0)
ffffffc0502046ac:	fcc43c23          	sd	a2,-40(s0)
ffffffc0502046b0:	00e000ef          	jal	ra,ffffffc0502046be <reset_timer>
ffffffc0502046b4:	0001                	nop
ffffffc0502046b6:	70a2                	ld	ra,40(sp)
ffffffc0502046b8:	7402                	ld	s0,32(sp)
ffffffc0502046ba:	6145                	addi	sp,sp,48
ffffffc0502046bc:	8082                	ret

ffffffc0502046be <reset_timer>:
ffffffc0502046be:	1101                	addi	sp,sp,-32
ffffffc0502046c0:	ec06                	sd	ra,24(sp)
ffffffc0502046c2:	e822                	sd	s0,16(sp)
ffffffc0502046c4:	e426                	sd	s1,8(sp)
ffffffc0502046c6:	1000                	addi	s0,sp,32
ffffffc0502046c8:	209020ef          	jal	ra,ffffffc0502070d0 <get_ticks>
ffffffc0502046cc:	84aa                	mv	s1,a0
ffffffc0502046ce:	24f020ef          	jal	ra,ffffffc05020711c <get_time_base>
ffffffc0502046d2:	872a                	mv	a4,a0
ffffffc0502046d4:	06400793          	li	a5,100
ffffffc0502046d8:	02f757b3          	divu	a5,a4,a5
ffffffc0502046dc:	97a6                	add	a5,a5,s1
ffffffc0502046de:	853e                	mv	a0,a5
ffffffc0502046e0:	ef9ff0ef          	jal	ra,ffffffc0502045d8 <bios_set_timer>
ffffffc0502046e4:	3b9020ef          	jal	ra,ffffffc05020729c <do_scheduler>
ffffffc0502046e8:	0001                	nop
ffffffc0502046ea:	60e2                	ld	ra,24(sp)
ffffffc0502046ec:	6442                	ld	s0,16(sp)
ffffffc0502046ee:	64a2                	ld	s1,8(sp)
ffffffc0502046f0:	6105                	addi	sp,sp,32
ffffffc0502046f2:	8082                	ret

ffffffc0502046f4 <handle_irq_ext>:
ffffffc0502046f4:	7179                	addi	sp,sp,-48
ffffffc0502046f6:	f422                	sd	s0,40(sp)
ffffffc0502046f8:	1800                	addi	s0,sp,48
ffffffc0502046fa:	fea43423          	sd	a0,-24(s0)
ffffffc0502046fe:	feb43023          	sd	a1,-32(s0)
ffffffc050204702:	fcc43c23          	sd	a2,-40(s0)
ffffffc050204706:	0001                	nop
ffffffc050204708:	7422                	ld	s0,40(sp)
ffffffc05020470a:	6145                	addi	sp,sp,48
ffffffc05020470c:	8082                	ret

ffffffc05020470e <init_exception>:
ffffffc05020470e:	1101                	addi	sp,sp,-32
ffffffc050204710:	ec22                	sd	s0,24(sp)
ffffffc050204712:	1000                	addi	s0,sp,32
ffffffc050204714:	fe042623          	sw	zero,-20(s0)
ffffffc050204718:	a01d                	j	ffffffc05020473e <init_exception+0x30>
ffffffc05020471a:	00049717          	auipc	a4,0x49
ffffffc05020471e:	f3670713          	addi	a4,a4,-202 # ffffffc05024d650 <exc_table>
ffffffc050204722:	fec42783          	lw	a5,-20(s0)
ffffffc050204726:	078e                	slli	a5,a5,0x3
ffffffc050204728:	97ba                	add	a5,a5,a4
ffffffc05020472a:	00000717          	auipc	a4,0x0
ffffffc05020472e:	0bc70713          	addi	a4,a4,188 # ffffffc0502047e6 <handle_other>
ffffffc050204732:	e398                	sd	a4,0(a5)
ffffffc050204734:	fec42783          	lw	a5,-20(s0)
ffffffc050204738:	2785                	addiw	a5,a5,1
ffffffc05020473a:	fef42623          	sw	a5,-20(s0)
ffffffc05020473e:	fec42783          	lw	a5,-20(s0)
ffffffc050204742:	0007871b          	sext.w	a4,a5
ffffffc050204746:	47bd                	li	a5,15
ffffffc050204748:	fce7d9e3          	bge	a5,a4,ffffffc05020471a <init_exception+0xc>
ffffffc05020474c:	00049797          	auipc	a5,0x49
ffffffc050204750:	f0478793          	addi	a5,a5,-252 # ffffffc05024d650 <exc_table>
ffffffc050204754:	00004717          	auipc	a4,0x4
ffffffc050204758:	6b070713          	addi	a4,a4,1712 # ffffffc050208e04 <handle_syscall>
ffffffc05020475c:	e3b8                	sd	a4,64(a5)
ffffffc05020475e:	00049797          	auipc	a5,0x49
ffffffc050204762:	ef278793          	addi	a5,a5,-270 # ffffffc05024d650 <exc_table>
ffffffc050204766:	00000717          	auipc	a4,0x0
ffffffc05020476a:	48470713          	addi	a4,a4,1156 # ffffffc050204bea <handle_inst_page_fault>
ffffffc05020476e:	f3b8                	sd	a4,96(a5)
ffffffc050204770:	00049797          	auipc	a5,0x49
ffffffc050204774:	ee078793          	addi	a5,a5,-288 # ffffffc05024d650 <exc_table>
ffffffc050204778:	00000717          	auipc	a4,0x0
ffffffc05020477c:	4dc70713          	addi	a4,a4,1244 # ffffffc050204c54 <handle_load_page_fault>
ffffffc050204780:	f7b8                	sd	a4,104(a5)
ffffffc050204782:	00049797          	auipc	a5,0x49
ffffffc050204786:	ece78793          	addi	a5,a5,-306 # ffffffc05024d650 <exc_table>
ffffffc05020478a:	00000717          	auipc	a4,0x0
ffffffc05020478e:	66670713          	addi	a4,a4,1638 # ffffffc050204df0 <handle_store_page_fault>
ffffffc050204792:	ffb8                	sd	a4,120(a5)
ffffffc050204794:	fe042423          	sw	zero,-24(s0)
ffffffc050204798:	a01d                	j	ffffffc0502047be <init_exception+0xb0>
ffffffc05020479a:	00049717          	auipc	a4,0x49
ffffffc05020479e:	f3670713          	addi	a4,a4,-202 # ffffffc05024d6d0 <irq_table>
ffffffc0502047a2:	fe842783          	lw	a5,-24(s0)
ffffffc0502047a6:	078e                	slli	a5,a5,0x3
ffffffc0502047a8:	97ba                	add	a5,a5,a4
ffffffc0502047aa:	00000717          	auipc	a4,0x0
ffffffc0502047ae:	03c70713          	addi	a4,a4,60 # ffffffc0502047e6 <handle_other>
ffffffc0502047b2:	e398                	sd	a4,0(a5)
ffffffc0502047b4:	fe842783          	lw	a5,-24(s0)
ffffffc0502047b8:	2785                	addiw	a5,a5,1
ffffffc0502047ba:	fef42423          	sw	a5,-24(s0)
ffffffc0502047be:	fe842783          	lw	a5,-24(s0)
ffffffc0502047c2:	0007871b          	sext.w	a4,a5
ffffffc0502047c6:	47ad                	li	a5,11
ffffffc0502047c8:	fce7d9e3          	bge	a5,a4,ffffffc05020479a <init_exception+0x8c>
ffffffc0502047cc:	00049797          	auipc	a5,0x49
ffffffc0502047d0:	f0478793          	addi	a5,a5,-252 # ffffffc05024d6d0 <irq_table>
ffffffc0502047d4:	00000717          	auipc	a4,0x0
ffffffc0502047d8:	ec870713          	addi	a4,a4,-312 # ffffffc05020469c <handle_irq_timer>
ffffffc0502047dc:	f798                	sd	a4,40(a5)
ffffffc0502047de:	0001                	nop
ffffffc0502047e0:	6462                	ld	s0,24(sp)
ffffffc0502047e2:	6105                	addi	sp,sp,32
ffffffc0502047e4:	8082                	ret

ffffffc0502047e6 <handle_other>:
ffffffc0502047e6:	7129                	addi	sp,sp,-320
ffffffc0502047e8:	fe06                	sd	ra,312(sp)
ffffffc0502047ea:	fa22                	sd	s0,304(sp)
ffffffc0502047ec:	0280                	addi	s0,sp,320
ffffffc0502047ee:	eca43c23          	sd	a0,-296(s0)
ffffffc0502047f2:	ecb43823          	sd	a1,-304(s0)
ffffffc0502047f6:	ecc43423          	sd	a2,-312(s0)
ffffffc0502047fa:	00006717          	auipc	a4,0x6
ffffffc0502047fe:	ac670713          	addi	a4,a4,-1338 # ffffffc05020a2c0 <strcat+0x3fe>
ffffffc050204802:	ee840793          	addi	a5,s0,-280
ffffffc050204806:	86ba                	mv	a3,a4
ffffffc050204808:	10000713          	li	a4,256
ffffffc05020480c:	863a                	mv	a2,a4
ffffffc05020480e:	85b6                	mv	a1,a3
ffffffc050204810:	853e                	mv	a0,a5
ffffffc050204812:	39c050ef          	jal	ra,ffffffc050209bae <memcpy>
ffffffc050204816:	fe042623          	sw	zero,-20(s0)
ffffffc05020481a:	a061                	j	ffffffc0502048a2 <handle_other+0xbc>
ffffffc05020481c:	fe042423          	sw	zero,-24(s0)
ffffffc050204820:	a0a9                	j	ffffffc05020486a <handle_other+0x84>
ffffffc050204822:	fec42703          	lw	a4,-20(s0)
ffffffc050204826:	fe842783          	lw	a5,-24(s0)
ffffffc05020482a:	9fb9                	addw	a5,a5,a4
ffffffc05020482c:	2781                	sext.w	a5,a5
ffffffc05020482e:	078e                	slli	a5,a5,0x3
ffffffc050204830:	ff040713          	addi	a4,s0,-16
ffffffc050204834:	97ba                	add	a5,a5,a4
ffffffc050204836:	ef87b683          	ld	a3,-264(a5)
ffffffc05020483a:	fec42703          	lw	a4,-20(s0)
ffffffc05020483e:	fe842783          	lw	a5,-24(s0)
ffffffc050204842:	9fb9                	addw	a5,a5,a4
ffffffc050204844:	2781                	sext.w	a5,a5
ffffffc050204846:	ed843703          	ld	a4,-296(s0)
ffffffc05020484a:	078e                	slli	a5,a5,0x3
ffffffc05020484c:	97ba                	add	a5,a5,a4
ffffffc05020484e:	639c                	ld	a5,0(a5)
ffffffc050204850:	863e                	mv	a2,a5
ffffffc050204852:	85b6                	mv	a1,a3
ffffffc050204854:	00006517          	auipc	a0,0x6
ffffffc050204858:	9dc50513          	addi	a0,a0,-1572 # ffffffc05020a230 <strcat+0x36e>
ffffffc05020485c:	1ea050ef          	jal	ra,ffffffc050209a46 <printk>
ffffffc050204860:	fe842783          	lw	a5,-24(s0)
ffffffc050204864:	2785                	addiw	a5,a5,1
ffffffc050204866:	fef42423          	sw	a5,-24(s0)
ffffffc05020486a:	fe842783          	lw	a5,-24(s0)
ffffffc05020486e:	0007871b          	sext.w	a4,a5
ffffffc050204872:	4789                	li	a5,2
ffffffc050204874:	00e7cc63          	blt	a5,a4,ffffffc05020488c <handle_other+0xa6>
ffffffc050204878:	fec42703          	lw	a4,-20(s0)
ffffffc05020487c:	fe842783          	lw	a5,-24(s0)
ffffffc050204880:	9fb9                	addw	a5,a5,a4
ffffffc050204882:	2781                	sext.w	a5,a5
ffffffc050204884:	873e                	mv	a4,a5
ffffffc050204886:	47fd                	li	a5,31
ffffffc050204888:	f8e7dde3          	bge	a5,a4,ffffffc050204822 <handle_other+0x3c>
ffffffc05020488c:	00006517          	auipc	a0,0x6
ffffffc050204890:	9b450513          	addi	a0,a0,-1612 # ffffffc05020a240 <strcat+0x37e>
ffffffc050204894:	1b2050ef          	jal	ra,ffffffc050209a46 <printk>
ffffffc050204898:	fec42783          	lw	a5,-20(s0)
ffffffc05020489c:	278d                	addiw	a5,a5,3
ffffffc05020489e:	fef42623          	sw	a5,-20(s0)
ffffffc0502048a2:	fec42783          	lw	a5,-20(s0)
ffffffc0502048a6:	0007871b          	sext.w	a4,a5
ffffffc0502048aa:	47fd                	li	a5,31
ffffffc0502048ac:	f6e7d8e3          	bge	a5,a4,ffffffc05020481c <handle_other+0x36>
ffffffc0502048b0:	ed843783          	ld	a5,-296(s0)
ffffffc0502048b4:	1007b703          	ld	a4,256(a5)
ffffffc0502048b8:	ed843783          	ld	a5,-296(s0)
ffffffc0502048bc:	1107b603          	ld	a2,272(a5)
ffffffc0502048c0:	ed843783          	ld	a5,-296(s0)
ffffffc0502048c4:	1187b783          	ld	a5,280(a5)
ffffffc0502048c8:	86be                	mv	a3,a5
ffffffc0502048ca:	85ba                	mv	a1,a4
ffffffc0502048cc:	00006517          	auipc	a0,0x6
ffffffc0502048d0:	97c50513          	addi	a0,a0,-1668 # ffffffc05020a248 <strcat+0x386>
ffffffc0502048d4:	172050ef          	jal	ra,ffffffc050209a46 <printk>
ffffffc0502048d8:	ed843783          	ld	a5,-296(s0)
ffffffc0502048dc:	1087b783          	ld	a5,264(a5)
ffffffc0502048e0:	85be                	mv	a1,a5
ffffffc0502048e2:	00006517          	auipc	a0,0x6
ffffffc0502048e6:	99650513          	addi	a0,a0,-1642 # ffffffc05020a278 <strcat+0x3b6>
ffffffc0502048ea:	15c050ef          	jal	ra,ffffffc050209a46 <printk>
ffffffc0502048ee:	ec843603          	ld	a2,-312(s0)
ffffffc0502048f2:	ed043583          	ld	a1,-304(s0)
ffffffc0502048f6:	00006517          	auipc	a0,0x6
ffffffc0502048fa:	99250513          	addi	a0,a0,-1646 # ffffffc05020a288 <strcat+0x3c6>
ffffffc0502048fe:	148050ef          	jal	ra,ffffffc050209a46 <printk>
ffffffc050204902:	00006617          	auipc	a2,0x6
ffffffc050204906:	b1e60613          	addi	a2,a2,-1250 # ffffffc05020a420 <__FUNCTION__.1603>
ffffffc05020490a:	05e00593          	li	a1,94
ffffffc05020490e:	00006517          	auipc	a0,0x6
ffffffc050204912:	99a50513          	addi	a0,a0,-1638 # ffffffc05020a2a8 <strcat+0x3e6>
ffffffc050204916:	ce9ff0ef          	jal	ra,ffffffc0502045fe <_panic>
ffffffc05020491a:	0001                	nop
ffffffc05020491c:	70f2                	ld	ra,312(sp)
ffffffc05020491e:	7452                	ld	s0,304(sp)
ffffffc050204920:	6131                	addi	sp,sp,320
ffffffc050204922:	8082                	ret

ffffffc050204924 <store_to_disk>:
ffffffc050204924:	1101                	addi	sp,sp,-32
ffffffc050204926:	ec06                	sd	ra,24(sp)
ffffffc050204928:	e822                	sd	s0,16(sp)
ffffffc05020492a:	1000                	addi	s0,sp,32
ffffffc05020492c:	87aa                	mv	a5,a0
ffffffc05020492e:	872e                	mv	a4,a1
ffffffc050204930:	fec43023          	sd	a2,-32(s0)
ffffffc050204934:	fef42623          	sw	a5,-20(s0)
ffffffc050204938:	87ba                	mv	a5,a4
ffffffc05020493a:	fef42423          	sw	a5,-24(s0)
ffffffc05020493e:	fe043783          	ld	a5,-32(s0)
ffffffc050204942:	2781                	sext.w	a5,a5
ffffffc050204944:	fe842703          	lw	a4,-24(s0)
ffffffc050204948:	fec42683          	lw	a3,-20(s0)
ffffffc05020494c:	8636                	mv	a2,a3
ffffffc05020494e:	85ba                	mv	a1,a4
ffffffc050204950:	853e                	mv	a0,a5
ffffffc050204952:	c45ff0ef          	jal	ra,ffffffc050204596 <bios_sdwrite>
ffffffc050204956:	00006797          	auipc	a5,0x6
ffffffc05020495a:	02e78793          	addi	a5,a5,46 # ffffffc05020a984 <print_location>
ffffffc05020495e:	439c                	lw	a5,0(a5)
ffffffc050204960:	0017871b          	addiw	a4,a5,1
ffffffc050204964:	0007069b          	sext.w	a3,a4
ffffffc050204968:	00006717          	auipc	a4,0x6
ffffffc05020496c:	01c70713          	addi	a4,a4,28 # ffffffc05020a984 <print_location>
ffffffc050204970:	c314                	sw	a3,0(a4)
ffffffc050204972:	85be                	mv	a1,a5
ffffffc050204974:	4505                	li	a0,1
ffffffc050204976:	e5bfe0ef          	jal	ra,ffffffc0502037d0 <screen_move_cursor>
ffffffc05020497a:	00006517          	auipc	a0,0x6
ffffffc05020497e:	a4650513          	addi	a0,a0,-1466 # ffffffc05020a3c0 <strcat+0x4fe>
ffffffc050204982:	0c4050ef          	jal	ra,ffffffc050209a46 <printk>
ffffffc050204986:	fabfe0ef          	jal	ra,ffffffc050203930 <screen_reflush>
ffffffc05020498a:	0001                	nop
ffffffc05020498c:	60e2                	ld	ra,24(sp)
ffffffc05020498e:	6442                	ld	s0,16(sp)
ffffffc050204990:	6105                	addi	sp,sp,32
ffffffc050204992:	8082                	ret

ffffffc050204994 <load_to_mem>:
ffffffc050204994:	1101                	addi	sp,sp,-32
ffffffc050204996:	ec06                	sd	ra,24(sp)
ffffffc050204998:	e822                	sd	s0,16(sp)
ffffffc05020499a:	1000                	addi	s0,sp,32
ffffffc05020499c:	87aa                	mv	a5,a0
ffffffc05020499e:	872e                	mv	a4,a1
ffffffc0502049a0:	fec43023          	sd	a2,-32(s0)
ffffffc0502049a4:	fef42623          	sw	a5,-20(s0)
ffffffc0502049a8:	87ba                	mv	a5,a4
ffffffc0502049aa:	fef42423          	sw	a5,-24(s0)
ffffffc0502049ae:	fe043783          	ld	a5,-32(s0)
ffffffc0502049b2:	2781                	sext.w	a5,a5
ffffffc0502049b4:	fe842703          	lw	a4,-24(s0)
ffffffc0502049b8:	fec42683          	lw	a3,-20(s0)
ffffffc0502049bc:	8636                	mv	a2,a3
ffffffc0502049be:	85ba                	mv	a1,a4
ffffffc0502049c0:	853e                	mv	a0,a5
ffffffc0502049c2:	b93ff0ef          	jal	ra,ffffffc050204554 <bios_sdread>
ffffffc0502049c6:	00006797          	auipc	a5,0x6
ffffffc0502049ca:	fbe78793          	addi	a5,a5,-66 # ffffffc05020a984 <print_location>
ffffffc0502049ce:	439c                	lw	a5,0(a5)
ffffffc0502049d0:	0017871b          	addiw	a4,a5,1
ffffffc0502049d4:	0007069b          	sext.w	a3,a4
ffffffc0502049d8:	00006717          	auipc	a4,0x6
ffffffc0502049dc:	fac70713          	addi	a4,a4,-84 # ffffffc05020a984 <print_location>
ffffffc0502049e0:	c314                	sw	a3,0(a4)
ffffffc0502049e2:	85be                	mv	a1,a5
ffffffc0502049e4:	4505                	li	a0,1
ffffffc0502049e6:	debfe0ef          	jal	ra,ffffffc0502037d0 <screen_move_cursor>
ffffffc0502049ea:	00006517          	auipc	a0,0x6
ffffffc0502049ee:	9f650513          	addi	a0,a0,-1546 # ffffffc05020a3e0 <strcat+0x51e>
ffffffc0502049f2:	054050ef          	jal	ra,ffffffc050209a46 <printk>
ffffffc0502049f6:	f3bfe0ef          	jal	ra,ffffffc050203930 <screen_reflush>
ffffffc0502049fa:	0001                	nop
ffffffc0502049fc:	60e2                	ld	ra,24(sp)
ffffffc0502049fe:	6442                	ld	s0,16(sp)
ffffffc050204a00:	6105                	addi	sp,sp,32
ffffffc050204a02:	8082                	ret

ffffffc050204a04 <do_swap>:
ffffffc050204a04:	715d                	addi	sp,sp,-80
ffffffc050204a06:	e486                	sd	ra,72(sp)
ffffffc050204a08:	e0a2                	sd	s0,64(sp)
ffffffc050204a0a:	fc26                	sd	s1,56(sp)
ffffffc050204a0c:	0880                	addi	s0,sp,80
ffffffc050204a0e:	faa43c23          	sd	a0,-72(s0)
ffffffc050204a12:	fb843783          	ld	a5,-72(s0)
ffffffc050204a16:	04078793          	addi	a5,a5,64
ffffffc050204a1a:	853e                	mv	a0,a5
ffffffc050204a1c:	380040ef          	jal	ra,ffffffc050208d9c <list_empty>
ffffffc050204a20:	87aa                	mv	a5,a0
ffffffc050204a22:	c399                	beqz	a5,ffffffc050204a28 <do_swap+0x24>
ffffffc050204a24:	4781                	li	a5,0
ffffffc050204a26:	a0ed                	j	ffffffc050204b10 <do_swap+0x10c>
ffffffc050204a28:	fb843783          	ld	a5,-72(s0)
ffffffc050204a2c:	63bc                	ld	a5,64(a5)
ffffffc050204a2e:	fcf43c23          	sd	a5,-40(s0)
ffffffc050204a32:	fc043823          	sd	zero,-48(s0)
ffffffc050204a36:	a875                	j	ffffffc050204af2 <do_swap+0xee>
ffffffc050204a38:	fd843783          	ld	a5,-40(s0)
ffffffc050204a3c:	17c1                	addi	a5,a5,-16
ffffffc050204a3e:	fcf43823          	sd	a5,-48(s0)
ffffffc050204a42:	fd043783          	ld	a5,-48(s0)
ffffffc050204a46:	6784                	ld	s1,8(a5)
ffffffc050204a48:	fb843783          	ld	a5,-72(s0)
ffffffc050204a4c:	77fc                	ld	a5,232(a5)
ffffffc050204a4e:	853e                	mv	a0,a5
ffffffc050204a50:	a69ff0ef          	jal	ra,ffffffc0502044b8 <pa2kva>
ffffffc050204a54:	87aa                	mv	a5,a0
ffffffc050204a56:	85be                	mv	a1,a5
ffffffc050204a58:	8526                	mv	a0,s1
ffffffc050204a5a:	3ab000ef          	jal	ra,ffffffc050205604 <walk_pgdir>
ffffffc050204a5e:	87aa                	mv	a5,a0
ffffffc050204a60:	fcf43423          	sd	a5,-56(s0)
ffffffc050204a64:	fd043783          	ld	a5,-48(s0)
ffffffc050204a68:	539c                	lw	a5,32(a5)
ffffffc050204a6a:	efbd                	bnez	a5,ffffffc050204ae8 <do_swap+0xe4>
ffffffc050204a6c:	00006797          	auipc	a5,0x6
ffffffc050204a70:	f1478793          	addi	a5,a5,-236 # ffffffc05020a980 <swap_block>
ffffffc050204a74:	4398                	lw	a4,0(a5)
ffffffc050204a76:	fd043783          	ld	a5,-48(s0)
ffffffc050204a7a:	639c                	ld	a5,0(a5)
ffffffc050204a7c:	863e                	mv	a2,a5
ffffffc050204a7e:	45a1                	li	a1,8
ffffffc050204a80:	853a                	mv	a0,a4
ffffffc050204a82:	ea3ff0ef          	jal	ra,ffffffc050204924 <store_to_disk>
ffffffc050204a86:	00006797          	auipc	a5,0x6
ffffffc050204a8a:	efa78793          	addi	a5,a5,-262 # ffffffc05020a980 <swap_block>
ffffffc050204a8e:	4398                	lw	a4,0(a5)
ffffffc050204a90:	fd043783          	ld	a5,-48(s0)
ffffffc050204a94:	d3d8                	sw	a4,36(a5)
ffffffc050204a96:	00006797          	auipc	a5,0x6
ffffffc050204a9a:	eea78793          	addi	a5,a5,-278 # ffffffc05020a980 <swap_block>
ffffffc050204a9e:	439c                	lw	a5,0(a5)
ffffffc050204aa0:	27a1                	addiw	a5,a5,8
ffffffc050204aa2:	0007871b          	sext.w	a4,a5
ffffffc050204aa6:	00006797          	auipc	a5,0x6
ffffffc050204aaa:	eda78793          	addi	a5,a5,-294 # ffffffc05020a980 <swap_block>
ffffffc050204aae:	c398                	sw	a4,0(a5)
ffffffc050204ab0:	fd043783          	ld	a5,-48(s0)
ffffffc050204ab4:	4705                	li	a4,1
ffffffc050204ab6:	d398                	sw	a4,32(a5)
ffffffc050204ab8:	fd043783          	ld	a5,-48(s0)
ffffffc050204abc:	fc843703          	ld	a4,-56(s0)
ffffffc050204ac0:	f798                	sd	a4,40(a5)
ffffffc050204ac2:	fc843783          	ld	a5,-56(s0)
ffffffc050204ac6:	639c                	ld	a5,0(a5)
ffffffc050204ac8:	ffe7f713          	andi	a4,a5,-2
ffffffc050204acc:	fc843783          	ld	a5,-56(s0)
ffffffc050204ad0:	e398                	sd	a4,0(a5)
ffffffc050204ad2:	fb843783          	ld	a5,-72(s0)
ffffffc050204ad6:	4bbc                	lw	a5,80(a5)
ffffffc050204ad8:	37fd                	addiw	a5,a5,-1
ffffffc050204ada:	0007871b          	sext.w	a4,a5
ffffffc050204ade:	fb843783          	ld	a5,-72(s0)
ffffffc050204ae2:	cbb8                	sw	a4,80(a5)
ffffffc050204ae4:	4785                	li	a5,1
ffffffc050204ae6:	a02d                	j	ffffffc050204b10 <do_swap+0x10c>
ffffffc050204ae8:	fd843783          	ld	a5,-40(s0)
ffffffc050204aec:	639c                	ld	a5,0(a5)
ffffffc050204aee:	fcf43c23          	sd	a5,-40(s0)
ffffffc050204af2:	fb843783          	ld	a5,-72(s0)
ffffffc050204af6:	04078793          	addi	a5,a5,64
ffffffc050204afa:	fd843703          	ld	a4,-40(s0)
ffffffc050204afe:	f2f71de3          	bne	a4,a5,ffffffc050204a38 <do_swap+0x34>
ffffffc050204b02:	00006517          	auipc	a0,0x6
ffffffc050204b06:	8f650513          	addi	a0,a0,-1802 # ffffffc05020a3f8 <strcat+0x536>
ffffffc050204b0a:	73d040ef          	jal	ra,ffffffc050209a46 <printk>
ffffffc050204b0e:	4781                	li	a5,0
ffffffc050204b10:	853e                	mv	a0,a5
ffffffc050204b12:	60a6                	ld	ra,72(sp)
ffffffc050204b14:	6406                	ld	s0,64(sp)
ffffffc050204b16:	74e2                	ld	s1,56(sp)
ffffffc050204b18:	6161                	addi	sp,sp,80
ffffffc050204b1a:	8082                	ret

ffffffc050204b1c <do_unswap>:
ffffffc050204b1c:	7139                	addi	sp,sp,-64
ffffffc050204b1e:	fc06                	sd	ra,56(sp)
ffffffc050204b20:	f822                	sd	s0,48(sp)
ffffffc050204b22:	0080                	addi	s0,sp,64
ffffffc050204b24:	fca43423          	sd	a0,-56(s0)
ffffffc050204b28:	fcb43023          	sd	a1,-64(s0)
ffffffc050204b2c:	fc843783          	ld	a5,-56(s0)
ffffffc050204b30:	63bc                	ld	a5,64(a5)
ffffffc050204b32:	fef43423          	sd	a5,-24(s0)
ffffffc050204b36:	fe043023          	sd	zero,-32(s0)
ffffffc050204b3a:	a851                	j	ffffffc050204bce <do_unswap+0xb2>
ffffffc050204b3c:	fe843783          	ld	a5,-24(s0)
ffffffc050204b40:	17c1                	addi	a5,a5,-16
ffffffc050204b42:	fef43023          	sd	a5,-32(s0)
ffffffc050204b46:	fe043783          	ld	a5,-32(s0)
ffffffc050204b4a:	679c                	ld	a5,8(a5)
ffffffc050204b4c:	fc043703          	ld	a4,-64(s0)
ffffffc050204b50:	06f71a63          	bne	a4,a5,ffffffc050204bc4 <do_unswap+0xa8>
ffffffc050204b54:	fe043783          	ld	a5,-32(s0)
ffffffc050204b58:	539c                	lw	a5,32(a5)
ffffffc050204b5a:	873e                	mv	a4,a5
ffffffc050204b5c:	4785                	li	a5,1
ffffffc050204b5e:	06f71363          	bne	a4,a5,ffffffc050204bc4 <do_unswap+0xa8>
ffffffc050204b62:	fe043783          	ld	a5,-32(s0)
ffffffc050204b66:	53d8                	lw	a4,36(a5)
ffffffc050204b68:	fe043783          	ld	a5,-32(s0)
ffffffc050204b6c:	639c                	ld	a5,0(a5)
ffffffc050204b6e:	863e                	mv	a2,a5
ffffffc050204b70:	45a1                	li	a1,8
ffffffc050204b72:	853a                	mv	a0,a4
ffffffc050204b74:	e21ff0ef          	jal	ra,ffffffc050204994 <load_to_mem>
ffffffc050204b78:	fe043783          	ld	a5,-32(s0)
ffffffc050204b7c:	0207a023          	sw	zero,32(a5)
ffffffc050204b80:	fe043783          	ld	a5,-32(s0)
ffffffc050204b84:	779c                	ld	a5,40(a5)
ffffffc050204b86:	fcf43c23          	sd	a5,-40(s0)
ffffffc050204b8a:	4585                	li	a1,1
ffffffc050204b8c:	fd843503          	ld	a0,-40(s0)
ffffffc050204b90:	945ff0ef          	jal	ra,ffffffc0502044d4 <set_attribute>
ffffffc050204b94:	fc843783          	ld	a5,-56(s0)
ffffffc050204b98:	4bbc                	lw	a5,80(a5)
ffffffc050204b9a:	2785                	addiw	a5,a5,1
ffffffc050204b9c:	0007871b          	sext.w	a4,a5
ffffffc050204ba0:	fc843783          	ld	a5,-56(s0)
ffffffc050204ba4:	cbb8                	sw	a4,80(a5)
ffffffc050204ba6:	fe843503          	ld	a0,-24(s0)
ffffffc050204baa:	14c040ef          	jal	ra,ffffffc050208cf6 <list_del>
ffffffc050204bae:	fc843783          	ld	a5,-56(s0)
ffffffc050204bb2:	04078793          	addi	a5,a5,64
ffffffc050204bb6:	85be                	mv	a1,a5
ffffffc050204bb8:	fe843503          	ld	a0,-24(s0)
ffffffc050204bbc:	1b2040ef          	jal	ra,ffffffc050208d6e <list_add_tail>
ffffffc050204bc0:	4785                	li	a5,1
ffffffc050204bc2:	a839                	j	ffffffc050204be0 <do_unswap+0xc4>
ffffffc050204bc4:	fe843783          	ld	a5,-24(s0)
ffffffc050204bc8:	639c                	ld	a5,0(a5)
ffffffc050204bca:	fef43423          	sd	a5,-24(s0)
ffffffc050204bce:	fc843783          	ld	a5,-56(s0)
ffffffc050204bd2:	04078793          	addi	a5,a5,64
ffffffc050204bd6:	fe843703          	ld	a4,-24(s0)
ffffffc050204bda:	f6f711e3          	bne	a4,a5,ffffffc050204b3c <do_unswap+0x20>
ffffffc050204bde:	4781                	li	a5,0
ffffffc050204be0:	853e                	mv	a0,a5
ffffffc050204be2:	70e2                	ld	ra,56(sp)
ffffffc050204be4:	7442                	ld	s0,48(sp)
ffffffc050204be6:	6121                	addi	sp,sp,64
ffffffc050204be8:	8082                	ret

ffffffc050204bea <handle_inst_page_fault>:
ffffffc050204bea:	7139                	addi	sp,sp,-64
ffffffc050204bec:	fc06                	sd	ra,56(sp)
ffffffc050204bee:	f822                	sd	s0,48(sp)
ffffffc050204bf0:	0080                	addi	s0,sp,64
ffffffc050204bf2:	fca43c23          	sd	a0,-40(s0)
ffffffc050204bf6:	fcb43823          	sd	a1,-48(s0)
ffffffc050204bfa:	fcc43423          	sd	a2,-56(s0)
ffffffc050204bfe:	daefd0ef          	jal	ra,ffffffc0502021ac <get_current_cpu_id>
ffffffc050204c02:	fea43423          	sd	a0,-24(s0)
ffffffc050204c06:	0004c717          	auipc	a4,0x4c
ffffffc050204c0a:	6e270713          	addi	a4,a4,1762 # ffffffc0502512e8 <next_running>
ffffffc050204c0e:	fe843783          	ld	a5,-24(s0)
ffffffc050204c12:	078e                	slli	a5,a5,0x3
ffffffc050204c14:	97ba                	add	a5,a5,a4
ffffffc050204c16:	639c                	ld	a5,0(a5)
ffffffc050204c18:	77fc                	ld	a5,232(a5)
ffffffc050204c1a:	853e                	mv	a0,a5
ffffffc050204c1c:	89dff0ef          	jal	ra,ffffffc0502044b8 <pa2kva>
ffffffc050204c20:	87aa                	mv	a5,a0
ffffffc050204c22:	85be                	mv	a1,a5
ffffffc050204c24:	fd043503          	ld	a0,-48(s0)
ffffffc050204c28:	1dd000ef          	jal	ra,ffffffc050205604 <walk_pgdir>
ffffffc050204c2c:	fea43023          	sd	a0,-32(s0)
ffffffc050204c30:	fe043783          	ld	a5,-32(s0)
ffffffc050204c34:	cb99                	beqz	a5,ffffffc050204c4a <handle_inst_page_fault+0x60>
ffffffc050204c36:	fe043783          	ld	a5,-32(s0)
ffffffc050204c3a:	0c000593          	li	a1,192
ffffffc050204c3e:	853e                	mv	a0,a5
ffffffc050204c40:	895ff0ef          	jal	ra,ffffffc0502044d4 <set_attribute>
ffffffc050204c44:	847ff0ef          	jal	ra,ffffffc05020448a <local_flush_tlb_all>
ffffffc050204c48:	a011                	j	ffffffc050204c4c <handle_inst_page_fault+0x62>
ffffffc050204c4a:	a001                	j	ffffffc050204c4a <handle_inst_page_fault+0x60>
ffffffc050204c4c:	70e2                	ld	ra,56(sp)
ffffffc050204c4e:	7442                	ld	s0,48(sp)
ffffffc050204c50:	6121                	addi	sp,sp,64
ffffffc050204c52:	8082                	ret

ffffffc050204c54 <handle_load_page_fault>:
ffffffc050204c54:	715d                	addi	sp,sp,-80
ffffffc050204c56:	e486                	sd	ra,72(sp)
ffffffc050204c58:	e0a2                	sd	s0,64(sp)
ffffffc050204c5a:	0880                	addi	s0,sp,80
ffffffc050204c5c:	fca43423          	sd	a0,-56(s0)
ffffffc050204c60:	fcb43023          	sd	a1,-64(s0)
ffffffc050204c64:	fac43c23          	sd	a2,-72(s0)
ffffffc050204c68:	d44fd0ef          	jal	ra,ffffffc0502021ac <get_current_cpu_id>
ffffffc050204c6c:	fea43423          	sd	a0,-24(s0)
ffffffc050204c70:	0004c717          	auipc	a4,0x4c
ffffffc050204c74:	67870713          	addi	a4,a4,1656 # ffffffc0502512e8 <next_running>
ffffffc050204c78:	fe843783          	ld	a5,-24(s0)
ffffffc050204c7c:	078e                	slli	a5,a5,0x3
ffffffc050204c7e:	97ba                	add	a5,a5,a4
ffffffc050204c80:	639c                	ld	a5,0(a5)
ffffffc050204c82:	77fc                	ld	a5,232(a5)
ffffffc050204c84:	853e                	mv	a0,a5
ffffffc050204c86:	833ff0ef          	jal	ra,ffffffc0502044b8 <pa2kva>
ffffffc050204c8a:	87aa                	mv	a5,a0
ffffffc050204c8c:	85be                	mv	a1,a5
ffffffc050204c8e:	fc043503          	ld	a0,-64(s0)
ffffffc050204c92:	173000ef          	jal	ra,ffffffc050205604 <walk_pgdir>
ffffffc050204c96:	fea43023          	sd	a0,-32(s0)
ffffffc050204c9a:	fe043783          	ld	a5,-32(s0)
ffffffc050204c9e:	cb99                	beqz	a5,ffffffc050204cb4 <handle_load_page_fault+0x60>
ffffffc050204ca0:	fe043783          	ld	a5,-32(s0)
ffffffc050204ca4:	04000593          	li	a1,64
ffffffc050204ca8:	853e                	mv	a0,a5
ffffffc050204caa:	82bff0ef          	jal	ra,ffffffc0502044d4 <set_attribute>
ffffffc050204cae:	fdcff0ef          	jal	ra,ffffffc05020448a <local_flush_tlb_all>
ffffffc050204cb2:	aa1d                	j	ffffffc050204de8 <handle_load_page_fault+0x194>
ffffffc050204cb4:	0004c717          	auipc	a4,0x4c
ffffffc050204cb8:	63470713          	addi	a4,a4,1588 # ffffffc0502512e8 <next_running>
ffffffc050204cbc:	fe843783          	ld	a5,-24(s0)
ffffffc050204cc0:	078e                	slli	a5,a5,0x3
ffffffc050204cc2:	97ba                	add	a5,a5,a4
ffffffc050204cc4:	6394                	ld	a3,0(a5)
ffffffc050204cc6:	fc043703          	ld	a4,-64(s0)
ffffffc050204cca:	77fd                	lui	a5,0xfffff
ffffffc050204ccc:	8ff9                	and	a5,a5,a4
ffffffc050204cce:	85be                	mv	a1,a5
ffffffc050204cd0:	8536                	mv	a0,a3
ffffffc050204cd2:	e4bff0ef          	jal	ra,ffffffc050204b1c <do_unswap>
ffffffc050204cd6:	87aa                	mv	a5,a0
ffffffc050204cd8:	cf95                	beqz	a5,ffffffc050204d14 <handle_load_page_fault+0xc0>
ffffffc050204cda:	0004c717          	auipc	a4,0x4c
ffffffc050204cde:	60e70713          	addi	a4,a4,1550 # ffffffc0502512e8 <next_running>
ffffffc050204ce2:	fe843783          	ld	a5,-24(s0)
ffffffc050204ce6:	078e                	slli	a5,a5,0x3
ffffffc050204ce8:	97ba                	add	a5,a5,a4
ffffffc050204cea:	639c                	ld	a5,0(a5)
ffffffc050204cec:	4bbc                	lw	a5,80(a5)
ffffffc050204cee:	873e                	mv	a4,a5
ffffffc050204cf0:	4789                	li	a5,2
ffffffc050204cf2:	00e7de63          	bge	a5,a4,ffffffc050204d0e <handle_load_page_fault+0xba>
ffffffc050204cf6:	0004c717          	auipc	a4,0x4c
ffffffc050204cfa:	5f270713          	addi	a4,a4,1522 # ffffffc0502512e8 <next_running>
ffffffc050204cfe:	fe843783          	ld	a5,-24(s0)
ffffffc050204d02:	078e                	slli	a5,a5,0x3
ffffffc050204d04:	97ba                	add	a5,a5,a4
ffffffc050204d06:	639c                	ld	a5,0(a5)
ffffffc050204d08:	853e                	mv	a0,a5
ffffffc050204d0a:	cfbff0ef          	jal	ra,ffffffc050204a04 <do_swap>
ffffffc050204d0e:	f7cff0ef          	jal	ra,ffffffc05020448a <local_flush_tlb_all>
ffffffc050204d12:	a8d9                	j	ffffffc050204de8 <handle_load_page_fault+0x194>
ffffffc050204d14:	0004c717          	auipc	a4,0x4c
ffffffc050204d18:	5d470713          	addi	a4,a4,1492 # ffffffc0502512e8 <next_running>
ffffffc050204d1c:	fe843783          	ld	a5,-24(s0)
ffffffc050204d20:	078e                	slli	a5,a5,0x3
ffffffc050204d22:	97ba                	add	a5,a5,a4
ffffffc050204d24:	639c                	ld	a5,0(a5)
ffffffc050204d26:	4bbc                	lw	a5,80(a5)
ffffffc050204d28:	873e                	mv	a4,a5
ffffffc050204d2a:	4789                	li	a5,2
ffffffc050204d2c:	00e7de63          	bge	a5,a4,ffffffc050204d48 <handle_load_page_fault+0xf4>
ffffffc050204d30:	0004c717          	auipc	a4,0x4c
ffffffc050204d34:	5b870713          	addi	a4,a4,1464 # ffffffc0502512e8 <next_running>
ffffffc050204d38:	fe843783          	ld	a5,-24(s0)
ffffffc050204d3c:	078e                	slli	a5,a5,0x3
ffffffc050204d3e:	97ba                	add	a5,a5,a4
ffffffc050204d40:	639c                	ld	a5,0(a5)
ffffffc050204d42:	853e                	mv	a0,a5
ffffffc050204d44:	cc1ff0ef          	jal	ra,ffffffc050204a04 <do_swap>
ffffffc050204d48:	0004c717          	auipc	a4,0x4c
ffffffc050204d4c:	5a070713          	addi	a4,a4,1440 # ffffffc0502512e8 <next_running>
ffffffc050204d50:	fe843783          	ld	a5,-24(s0)
ffffffc050204d54:	078e                	slli	a5,a5,0x3
ffffffc050204d56:	97ba                	add	a5,a5,a4
ffffffc050204d58:	639c                	ld	a5,0(a5)
ffffffc050204d5a:	77fc                	ld	a5,232(a5)
ffffffc050204d5c:	853e                	mv	a0,a5
ffffffc050204d5e:	f5aff0ef          	jal	ra,ffffffc0502044b8 <pa2kva>
ffffffc050204d62:	87aa                	mv	a5,a0
ffffffc050204d64:	85be                	mv	a1,a5
ffffffc050204d66:	fc043503          	ld	a0,-64(s0)
ffffffc050204d6a:	6c4000ef          	jal	ra,ffffffc05020542e <alloc_page_helper>
ffffffc050204d6e:	fca43c23          	sd	a0,-40(s0)
ffffffc050204d72:	03000513          	li	a0,48
ffffffc050204d76:	666000ef          	jal	ra,ffffffc0502053dc <kmalloc>
ffffffc050204d7a:	fca43823          	sd	a0,-48(s0)
ffffffc050204d7e:	fd043783          	ld	a5,-48(s0)
ffffffc050204d82:	0207a023          	sw	zero,32(a5) # fffffffffffff020 <__BSS_END__+0x3fafdab328>
ffffffc050204d86:	fd843503          	ld	a0,-40(s0)
ffffffc050204d8a:	f12ff0ef          	jal	ra,ffffffc05020449c <kva2pa>
ffffffc050204d8e:	872a                	mv	a4,a0
ffffffc050204d90:	fd043783          	ld	a5,-48(s0)
ffffffc050204d94:	e398                	sd	a4,0(a5)
ffffffc050204d96:	fc043703          	ld	a4,-64(s0)
ffffffc050204d9a:	77fd                	lui	a5,0xfffff
ffffffc050204d9c:	8f7d                	and	a4,a4,a5
ffffffc050204d9e:	fd043783          	ld	a5,-48(s0)
ffffffc050204da2:	e798                	sd	a4,8(a5)
ffffffc050204da4:	fd043783          	ld	a5,-48(s0)
ffffffc050204da8:	01078693          	addi	a3,a5,16 # fffffffffffff010 <__BSS_END__+0x3fafdab318>
ffffffc050204dac:	0004c717          	auipc	a4,0x4c
ffffffc050204db0:	53c70713          	addi	a4,a4,1340 # ffffffc0502512e8 <next_running>
ffffffc050204db4:	fe843783          	ld	a5,-24(s0)
ffffffc050204db8:	078e                	slli	a5,a5,0x3
ffffffc050204dba:	97ba                	add	a5,a5,a4
ffffffc050204dbc:	639c                	ld	a5,0(a5)
ffffffc050204dbe:	04078793          	addi	a5,a5,64
ffffffc050204dc2:	85be                	mv	a1,a5
ffffffc050204dc4:	8536                	mv	a0,a3
ffffffc050204dc6:	7a9030ef          	jal	ra,ffffffc050208d6e <list_add_tail>
ffffffc050204dca:	0004c717          	auipc	a4,0x4c
ffffffc050204dce:	51e70713          	addi	a4,a4,1310 # ffffffc0502512e8 <next_running>
ffffffc050204dd2:	fe843783          	ld	a5,-24(s0)
ffffffc050204dd6:	078e                	slli	a5,a5,0x3
ffffffc050204dd8:	97ba                	add	a5,a5,a4
ffffffc050204dda:	639c                	ld	a5,0(a5)
ffffffc050204ddc:	4bb8                	lw	a4,80(a5)
ffffffc050204dde:	2705                	addiw	a4,a4,1
ffffffc050204de0:	2701                	sext.w	a4,a4
ffffffc050204de2:	cbb8                	sw	a4,80(a5)
ffffffc050204de4:	ea6ff0ef          	jal	ra,ffffffc05020448a <local_flush_tlb_all>
ffffffc050204de8:	60a6                	ld	ra,72(sp)
ffffffc050204dea:	6406                	ld	s0,64(sp)
ffffffc050204dec:	6161                	addi	sp,sp,80
ffffffc050204dee:	8082                	ret

ffffffc050204df0 <handle_store_page_fault>:
ffffffc050204df0:	715d                	addi	sp,sp,-80
ffffffc050204df2:	e486                	sd	ra,72(sp)
ffffffc050204df4:	e0a2                	sd	s0,64(sp)
ffffffc050204df6:	0880                	addi	s0,sp,80
ffffffc050204df8:	fca43423          	sd	a0,-56(s0)
ffffffc050204dfc:	fcb43023          	sd	a1,-64(s0)
ffffffc050204e00:	fac43c23          	sd	a2,-72(s0)
ffffffc050204e04:	ba8fd0ef          	jal	ra,ffffffc0502021ac <get_current_cpu_id>
ffffffc050204e08:	fea43423          	sd	a0,-24(s0)
ffffffc050204e0c:	0004c717          	auipc	a4,0x4c
ffffffc050204e10:	4dc70713          	addi	a4,a4,1244 # ffffffc0502512e8 <next_running>
ffffffc050204e14:	fe843783          	ld	a5,-24(s0)
ffffffc050204e18:	078e                	slli	a5,a5,0x3
ffffffc050204e1a:	97ba                	add	a5,a5,a4
ffffffc050204e1c:	639c                	ld	a5,0(a5)
ffffffc050204e1e:	77fc                	ld	a5,232(a5)
ffffffc050204e20:	853e                	mv	a0,a5
ffffffc050204e22:	e96ff0ef          	jal	ra,ffffffc0502044b8 <pa2kva>
ffffffc050204e26:	87aa                	mv	a5,a0
ffffffc050204e28:	85be                	mv	a1,a5
ffffffc050204e2a:	fc043503          	ld	a0,-64(s0)
ffffffc050204e2e:	7d6000ef          	jal	ra,ffffffc050205604 <walk_pgdir>
ffffffc050204e32:	fea43023          	sd	a0,-32(s0)
ffffffc050204e36:	fe043783          	ld	a5,-32(s0)
ffffffc050204e3a:	cb99                	beqz	a5,ffffffc050204e50 <handle_store_page_fault+0x60>
ffffffc050204e3c:	fe043783          	ld	a5,-32(s0)
ffffffc050204e40:	0c000593          	li	a1,192
ffffffc050204e44:	853e                	mv	a0,a5
ffffffc050204e46:	e8eff0ef          	jal	ra,ffffffc0502044d4 <set_attribute>
ffffffc050204e4a:	e40ff0ef          	jal	ra,ffffffc05020448a <local_flush_tlb_all>
ffffffc050204e4e:	aa1d                	j	ffffffc050204f84 <handle_store_page_fault+0x194>
ffffffc050204e50:	0004c717          	auipc	a4,0x4c
ffffffc050204e54:	49870713          	addi	a4,a4,1176 # ffffffc0502512e8 <next_running>
ffffffc050204e58:	fe843783          	ld	a5,-24(s0)
ffffffc050204e5c:	078e                	slli	a5,a5,0x3
ffffffc050204e5e:	97ba                	add	a5,a5,a4
ffffffc050204e60:	6394                	ld	a3,0(a5)
ffffffc050204e62:	fc043703          	ld	a4,-64(s0)
ffffffc050204e66:	77fd                	lui	a5,0xfffff
ffffffc050204e68:	8ff9                	and	a5,a5,a4
ffffffc050204e6a:	85be                	mv	a1,a5
ffffffc050204e6c:	8536                	mv	a0,a3
ffffffc050204e6e:	cafff0ef          	jal	ra,ffffffc050204b1c <do_unswap>
ffffffc050204e72:	87aa                	mv	a5,a0
ffffffc050204e74:	cf95                	beqz	a5,ffffffc050204eb0 <handle_store_page_fault+0xc0>
ffffffc050204e76:	0004c717          	auipc	a4,0x4c
ffffffc050204e7a:	47270713          	addi	a4,a4,1138 # ffffffc0502512e8 <next_running>
ffffffc050204e7e:	fe843783          	ld	a5,-24(s0)
ffffffc050204e82:	078e                	slli	a5,a5,0x3
ffffffc050204e84:	97ba                	add	a5,a5,a4
ffffffc050204e86:	639c                	ld	a5,0(a5)
ffffffc050204e88:	4bbc                	lw	a5,80(a5)
ffffffc050204e8a:	873e                	mv	a4,a5
ffffffc050204e8c:	4789                	li	a5,2
ffffffc050204e8e:	00e7de63          	bge	a5,a4,ffffffc050204eaa <handle_store_page_fault+0xba>
ffffffc050204e92:	0004c717          	auipc	a4,0x4c
ffffffc050204e96:	45670713          	addi	a4,a4,1110 # ffffffc0502512e8 <next_running>
ffffffc050204e9a:	fe843783          	ld	a5,-24(s0)
ffffffc050204e9e:	078e                	slli	a5,a5,0x3
ffffffc050204ea0:	97ba                	add	a5,a5,a4
ffffffc050204ea2:	639c                	ld	a5,0(a5)
ffffffc050204ea4:	853e                	mv	a0,a5
ffffffc050204ea6:	b5fff0ef          	jal	ra,ffffffc050204a04 <do_swap>
ffffffc050204eaa:	de0ff0ef          	jal	ra,ffffffc05020448a <local_flush_tlb_all>
ffffffc050204eae:	a8d9                	j	ffffffc050204f84 <handle_store_page_fault+0x194>
ffffffc050204eb0:	0004c717          	auipc	a4,0x4c
ffffffc050204eb4:	43870713          	addi	a4,a4,1080 # ffffffc0502512e8 <next_running>
ffffffc050204eb8:	fe843783          	ld	a5,-24(s0)
ffffffc050204ebc:	078e                	slli	a5,a5,0x3
ffffffc050204ebe:	97ba                	add	a5,a5,a4
ffffffc050204ec0:	639c                	ld	a5,0(a5)
ffffffc050204ec2:	4bbc                	lw	a5,80(a5)
ffffffc050204ec4:	873e                	mv	a4,a5
ffffffc050204ec6:	4789                	li	a5,2
ffffffc050204ec8:	00e7de63          	bge	a5,a4,ffffffc050204ee4 <handle_store_page_fault+0xf4>
ffffffc050204ecc:	0004c717          	auipc	a4,0x4c
ffffffc050204ed0:	41c70713          	addi	a4,a4,1052 # ffffffc0502512e8 <next_running>
ffffffc050204ed4:	fe843783          	ld	a5,-24(s0)
ffffffc050204ed8:	078e                	slli	a5,a5,0x3
ffffffc050204eda:	97ba                	add	a5,a5,a4
ffffffc050204edc:	639c                	ld	a5,0(a5)
ffffffc050204ede:	853e                	mv	a0,a5
ffffffc050204ee0:	b25ff0ef          	jal	ra,ffffffc050204a04 <do_swap>
ffffffc050204ee4:	0004c717          	auipc	a4,0x4c
ffffffc050204ee8:	40470713          	addi	a4,a4,1028 # ffffffc0502512e8 <next_running>
ffffffc050204eec:	fe843783          	ld	a5,-24(s0)
ffffffc050204ef0:	078e                	slli	a5,a5,0x3
ffffffc050204ef2:	97ba                	add	a5,a5,a4
ffffffc050204ef4:	639c                	ld	a5,0(a5)
ffffffc050204ef6:	77fc                	ld	a5,232(a5)
ffffffc050204ef8:	853e                	mv	a0,a5
ffffffc050204efa:	dbeff0ef          	jal	ra,ffffffc0502044b8 <pa2kva>
ffffffc050204efe:	87aa                	mv	a5,a0
ffffffc050204f00:	85be                	mv	a1,a5
ffffffc050204f02:	fc043503          	ld	a0,-64(s0)
ffffffc050204f06:	528000ef          	jal	ra,ffffffc05020542e <alloc_page_helper>
ffffffc050204f0a:	fca43c23          	sd	a0,-40(s0)
ffffffc050204f0e:	03000513          	li	a0,48
ffffffc050204f12:	4ca000ef          	jal	ra,ffffffc0502053dc <kmalloc>
ffffffc050204f16:	fca43823          	sd	a0,-48(s0)
ffffffc050204f1a:	fd043783          	ld	a5,-48(s0)
ffffffc050204f1e:	0207a023          	sw	zero,32(a5) # fffffffffffff020 <__BSS_END__+0x3fafdab328>
ffffffc050204f22:	fd843503          	ld	a0,-40(s0)
ffffffc050204f26:	d76ff0ef          	jal	ra,ffffffc05020449c <kva2pa>
ffffffc050204f2a:	872a                	mv	a4,a0
ffffffc050204f2c:	fd043783          	ld	a5,-48(s0)
ffffffc050204f30:	e398                	sd	a4,0(a5)
ffffffc050204f32:	fc043703          	ld	a4,-64(s0)
ffffffc050204f36:	77fd                	lui	a5,0xfffff
ffffffc050204f38:	8f7d                	and	a4,a4,a5
ffffffc050204f3a:	fd043783          	ld	a5,-48(s0)
ffffffc050204f3e:	e798                	sd	a4,8(a5)
ffffffc050204f40:	fd043783          	ld	a5,-48(s0)
ffffffc050204f44:	01078693          	addi	a3,a5,16 # fffffffffffff010 <__BSS_END__+0x3fafdab318>
ffffffc050204f48:	0004c717          	auipc	a4,0x4c
ffffffc050204f4c:	3a070713          	addi	a4,a4,928 # ffffffc0502512e8 <next_running>
ffffffc050204f50:	fe843783          	ld	a5,-24(s0)
ffffffc050204f54:	078e                	slli	a5,a5,0x3
ffffffc050204f56:	97ba                	add	a5,a5,a4
ffffffc050204f58:	639c                	ld	a5,0(a5)
ffffffc050204f5a:	04078793          	addi	a5,a5,64
ffffffc050204f5e:	85be                	mv	a1,a5
ffffffc050204f60:	8536                	mv	a0,a3
ffffffc050204f62:	60d030ef          	jal	ra,ffffffc050208d6e <list_add_tail>
ffffffc050204f66:	0004c717          	auipc	a4,0x4c
ffffffc050204f6a:	38270713          	addi	a4,a4,898 # ffffffc0502512e8 <next_running>
ffffffc050204f6e:	fe843783          	ld	a5,-24(s0)
ffffffc050204f72:	078e                	slli	a5,a5,0x3
ffffffc050204f74:	97ba                	add	a5,a5,a4
ffffffc050204f76:	639c                	ld	a5,0(a5)
ffffffc050204f78:	4bb8                	lw	a4,80(a5)
ffffffc050204f7a:	2705                	addiw	a4,a4,1
ffffffc050204f7c:	2701                	sext.w	a4,a4
ffffffc050204f7e:	cbb8                	sw	a4,80(a5)
ffffffc050204f80:	d0aff0ef          	jal	ra,ffffffc05020448a <local_flush_tlb_all>
ffffffc050204f84:	60a6                	ld	ra,72(sp)
ffffffc050204f86:	6406                	ld	s0,64(sp)
ffffffc050204f88:	6161                	addi	sp,sp,80
ffffffc050204f8a:	8082                	ret

ffffffc050204f8c <kva2pa>:
ffffffc050204f8c:	1101                	addi	sp,sp,-32
ffffffc050204f8e:	ec22                	sd	s0,24(sp)
ffffffc050204f90:	1000                	addi	s0,sp,32
ffffffc050204f92:	fea43423          	sd	a0,-24(s0)
ffffffc050204f96:	fe843703          	ld	a4,-24(s0)
ffffffc050204f9a:	4785                	li	a5,1
ffffffc050204f9c:	179a                	slli	a5,a5,0x26
ffffffc050204f9e:	97ba                	add	a5,a5,a4
ffffffc050204fa0:	853e                	mv	a0,a5
ffffffc050204fa2:	6462                	ld	s0,24(sp)
ffffffc050204fa4:	6105                	addi	sp,sp,32
ffffffc050204fa6:	8082                	ret

ffffffc050204fa8 <call_jmptab>:
ffffffc050204fa8:	7139                	addi	sp,sp,-64
ffffffc050204faa:	fc06                	sd	ra,56(sp)
ffffffc050204fac:	f822                	sd	s0,48(sp)
ffffffc050204fae:	0080                	addi	s0,sp,64
ffffffc050204fb0:	fca43c23          	sd	a0,-40(s0)
ffffffc050204fb4:	fcb43823          	sd	a1,-48(s0)
ffffffc050204fb8:	fcc43423          	sd	a2,-56(s0)
ffffffc050204fbc:	fcd43023          	sd	a3,-64(s0)
ffffffc050204fc0:	fd843783          	ld	a5,-40(s0)
ffffffc050204fc4:	00379713          	slli	a4,a5,0x3
ffffffc050204fc8:	fe0297b7          	lui	a5,0xfe029
ffffffc050204fcc:	07b6                	slli	a5,a5,0xd
ffffffc050204fce:	f0078793          	addi	a5,a5,-256 # fffffffffe028f00 <__BSS_END__+0x3faddd5208>
ffffffc050204fd2:	97ba                	add	a5,a5,a4
ffffffc050204fd4:	639c                	ld	a5,0(a5)
ffffffc050204fd6:	fef43423          	sd	a5,-24(s0)
ffffffc050204fda:	fe843783          	ld	a5,-24(s0)
ffffffc050204fde:	fef43023          	sd	a5,-32(s0)
ffffffc050204fe2:	fe043783          	ld	a5,-32(s0)
ffffffc050204fe6:	fc043603          	ld	a2,-64(s0)
ffffffc050204fea:	fc843583          	ld	a1,-56(s0)
ffffffc050204fee:	fd043503          	ld	a0,-48(s0)
ffffffc050204ff2:	9782                	jalr	a5
ffffffc050204ff4:	87aa                	mv	a5,a0
ffffffc050204ff6:	853e                	mv	a0,a5
ffffffc050204ff8:	70e2                	ld	ra,56(sp)
ffffffc050204ffa:	7442                	ld	s0,48(sp)
ffffffc050204ffc:	6121                	addi	sp,sp,64
ffffffc050204ffe:	8082                	ret

ffffffc050205000 <bios_sdread>:
ffffffc050205000:	1101                	addi	sp,sp,-32
ffffffc050205002:	ec06                	sd	ra,24(sp)
ffffffc050205004:	e822                	sd	s0,16(sp)
ffffffc050205006:	1000                	addi	s0,sp,32
ffffffc050205008:	87aa                	mv	a5,a0
ffffffc05020500a:	86ae                	mv	a3,a1
ffffffc05020500c:	8732                	mv	a4,a2
ffffffc05020500e:	fef42623          	sw	a5,-20(s0)
ffffffc050205012:	87b6                	mv	a5,a3
ffffffc050205014:	fef42423          	sw	a5,-24(s0)
ffffffc050205018:	87ba                	mv	a5,a4
ffffffc05020501a:	fef42223          	sw	a5,-28(s0)
ffffffc05020501e:	fec46783          	lwu	a5,-20(s0)
ffffffc050205022:	fe846703          	lwu	a4,-24(s0)
ffffffc050205026:	fe446683          	lwu	a3,-28(s0)
ffffffc05020502a:	863a                	mv	a2,a4
ffffffc05020502c:	85be                	mv	a1,a5
ffffffc05020502e:	450d                	li	a0,3
ffffffc050205030:	f79ff0ef          	jal	ra,ffffffc050204fa8 <call_jmptab>
ffffffc050205034:	87aa                	mv	a5,a0
ffffffc050205036:	2781                	sext.w	a5,a5
ffffffc050205038:	853e                	mv	a0,a5
ffffffc05020503a:	60e2                	ld	ra,24(sp)
ffffffc05020503c:	6442                	ld	s0,16(sp)
ffffffc05020503e:	6105                	addi	sp,sp,32
ffffffc050205040:	8082                	ret

ffffffc050205042 <load_task_img>:
ffffffc050205042:	711d                	addi	sp,sp,-96
ffffffc050205044:	ec86                	sd	ra,88(sp)
ffffffc050205046:	e8a2                	sd	s0,80(sp)
ffffffc050205048:	1080                	addi	s0,sp,96
ffffffc05020504a:	87aa                	mv	a5,a0
ffffffc05020504c:	fab43023          	sd	a1,-96(s0)
ffffffc050205050:	faf42623          	sw	a5,-84(s0)
ffffffc050205054:	00048697          	auipc	a3,0x48
ffffffc050205058:	8c468693          	addi	a3,a3,-1852 # ffffffc05024c918 <tasks>
ffffffc05020505c:	fac42703          	lw	a4,-84(s0)
ffffffc050205060:	87ba                	mv	a5,a4
ffffffc050205062:	078a                	slli	a5,a5,0x2
ffffffc050205064:	97ba                	add	a5,a5,a4
ffffffc050205066:	078e                	slli	a5,a5,0x3
ffffffc050205068:	97b6                	add	a5,a5,a3
ffffffc05020506a:	4f9c                	lw	a5,24(a5)
ffffffc05020506c:	fef42223          	sw	a5,-28(s0)
ffffffc050205070:	00048697          	auipc	a3,0x48
ffffffc050205074:	8a868693          	addi	a3,a3,-1880 # ffffffc05024c918 <tasks>
ffffffc050205078:	fac42703          	lw	a4,-84(s0)
ffffffc05020507c:	87ba                	mv	a5,a4
ffffffc05020507e:	078a                	slli	a5,a5,0x2
ffffffc050205080:	97ba                	add	a5,a5,a4
ffffffc050205082:	078e                	slli	a5,a5,0x3
ffffffc050205084:	97b6                	add	a5,a5,a3
ffffffc050205086:	4bdc                	lw	a5,20(a5)
ffffffc050205088:	fef42023          	sw	a5,-32(s0)
ffffffc05020508c:	00048697          	auipc	a3,0x48
ffffffc050205090:	88c68693          	addi	a3,a3,-1908 # ffffffc05024c918 <tasks>
ffffffc050205094:	fac42703          	lw	a4,-84(s0)
ffffffc050205098:	87ba                	mv	a5,a4
ffffffc05020509a:	078a                	slli	a5,a5,0x2
ffffffc05020509c:	97ba                	add	a5,a5,a4
ffffffc05020509e:	078e                	slli	a5,a5,0x3
ffffffc0502050a0:	97b6                	add	a5,a5,a3
ffffffc0502050a2:	4b9c                	lw	a5,16(a5)
ffffffc0502050a4:	fcf42e23          	sw	a5,-36(s0)
ffffffc0502050a8:	fe442783          	lw	a5,-28(s0)
ffffffc0502050ac:	0037d79b          	srliw	a5,a5,0x3
ffffffc0502050b0:	2781                	sext.w	a5,a5
ffffffc0502050b2:	2785                	addiw	a5,a5,1
ffffffc0502050b4:	2781                	sext.w	a5,a5
ffffffc0502050b6:	fcf42c23          	sw	a5,-40(s0)
ffffffc0502050ba:	fe042783          	lw	a5,-32(s0)
ffffffc0502050be:	0037d79b          	srliw	a5,a5,0x3
ffffffc0502050c2:	2781                	sext.w	a5,a5
ffffffc0502050c4:	2785                	addiw	a5,a5,1
ffffffc0502050c6:	2781                	sext.w	a5,a5
ffffffc0502050c8:	fcf42a23          	sw	a5,-44(s0)
ffffffc0502050cc:	fe042623          	sw	zero,-20(s0)
ffffffc0502050d0:	a86d                	j	ffffffc05020518a <load_task_img+0x148>
ffffffc0502050d2:	fec42703          	lw	a4,-20(s0)
ffffffc0502050d6:	fd442783          	lw	a5,-44(s0)
ffffffc0502050da:	2701                	sext.w	a4,a4
ffffffc0502050dc:	2781                	sext.w	a5,a5
ffffffc0502050de:	04f75a63          	bge	a4,a5,ffffffc050205132 <load_task_img+0xf0>
ffffffc0502050e2:	fec42783          	lw	a5,-20(s0)
ffffffc0502050e6:	27c1                	addiw	a5,a5,16
ffffffc0502050e8:	2781                	sext.w	a5,a5
ffffffc0502050ea:	00c7979b          	slliw	a5,a5,0xc
ffffffc0502050ee:	2781                	sext.w	a5,a5
ffffffc0502050f0:	fa043583          	ld	a1,-96(s0)
ffffffc0502050f4:	853e                	mv	a0,a5
ffffffc0502050f6:	338000ef          	jal	ra,ffffffc05020542e <alloc_page_helper>
ffffffc0502050fa:	faa43c23          	sd	a0,-72(s0)
ffffffc0502050fe:	fec42783          	lw	a5,-20(s0)
ffffffc050205102:	0037979b          	slliw	a5,a5,0x3
ffffffc050205106:	2781                	sext.w	a5,a5
ffffffc050205108:	2781                	sext.w	a5,a5
ffffffc05020510a:	fdc42703          	lw	a4,-36(s0)
ffffffc05020510e:	9fb9                	addw	a5,a5,a4
ffffffc050205110:	2781                	sext.w	a5,a5
ffffffc050205112:	faf42a23          	sw	a5,-76(s0)
ffffffc050205116:	fb843503          	ld	a0,-72(s0)
ffffffc05020511a:	e73ff0ef          	jal	ra,ffffffc050204f8c <kva2pa>
ffffffc05020511e:	87aa                	mv	a5,a0
ffffffc050205120:	2781                	sext.w	a5,a5
ffffffc050205122:	fb442703          	lw	a4,-76(s0)
ffffffc050205126:	863a                	mv	a2,a4
ffffffc050205128:	45a1                	li	a1,8
ffffffc05020512a:	853e                	mv	a0,a5
ffffffc05020512c:	ed5ff0ef          	jal	ra,ffffffc050205000 <bios_sdread>
ffffffc050205130:	a881                	j	ffffffc050205180 <load_task_img+0x13e>
ffffffc050205132:	fec42783          	lw	a5,-20(s0)
ffffffc050205136:	27c1                	addiw	a5,a5,16
ffffffc050205138:	2781                	sext.w	a5,a5
ffffffc05020513a:	00c7979b          	slliw	a5,a5,0xc
ffffffc05020513e:	2781                	sext.w	a5,a5
ffffffc050205140:	fa043583          	ld	a1,-96(s0)
ffffffc050205144:	853e                	mv	a0,a5
ffffffc050205146:	2e8000ef          	jal	ra,ffffffc05020542e <alloc_page_helper>
ffffffc05020514a:	fca43023          	sd	a0,-64(s0)
ffffffc05020514e:	fe042423          	sw	zero,-24(s0)
ffffffc050205152:	a839                	j	ffffffc050205170 <load_task_img+0x12e>
ffffffc050205154:	fe842783          	lw	a5,-24(s0)
ffffffc050205158:	00379713          	slli	a4,a5,0x3
ffffffc05020515c:	fc043783          	ld	a5,-64(s0)
ffffffc050205160:	97ba                	add	a5,a5,a4
ffffffc050205162:	0007b023          	sd	zero,0(a5)
ffffffc050205166:	fe842783          	lw	a5,-24(s0)
ffffffc05020516a:	2785                	addiw	a5,a5,1
ffffffc05020516c:	fef42423          	sw	a5,-24(s0)
ffffffc050205170:	fe842783          	lw	a5,-24(s0)
ffffffc050205174:	0007871b          	sext.w	a4,a5
ffffffc050205178:	1ff00793          	li	a5,511
ffffffc05020517c:	fce7dce3          	bge	a5,a4,ffffffc050205154 <load_task_img+0x112>
ffffffc050205180:	fec42783          	lw	a5,-20(s0)
ffffffc050205184:	2785                	addiw	a5,a5,1
ffffffc050205186:	fef42623          	sw	a5,-20(s0)
ffffffc05020518a:	fec42703          	lw	a4,-20(s0)
ffffffc05020518e:	fd842783          	lw	a5,-40(s0)
ffffffc050205192:	2701                	sext.w	a4,a4
ffffffc050205194:	2781                	sext.w	a5,a5
ffffffc050205196:	f2f74ee3          	blt	a4,a5,ffffffc0502050d2 <load_task_img+0x90>
ffffffc05020519a:	67c1                	lui	a5,0x10
ffffffc05020519c:	fcf43423          	sd	a5,-56(s0)
ffffffc0502051a0:	fc843783          	ld	a5,-56(s0)
ffffffc0502051a4:	853e                	mv	a0,a5
ffffffc0502051a6:	60e6                	ld	ra,88(sp)
ffffffc0502051a8:	6446                	ld	s0,80(sp)
ffffffc0502051aa:	6125                	addi	sp,sp,96
ffffffc0502051ac:	8082                	ret

ffffffc0502051ae <kva2pa>:
ffffffc0502051ae:	1101                	addi	sp,sp,-32
ffffffc0502051b0:	ec22                	sd	s0,24(sp)
ffffffc0502051b2:	1000                	addi	s0,sp,32
ffffffc0502051b4:	fea43423          	sd	a0,-24(s0)
ffffffc0502051b8:	fe843703          	ld	a4,-24(s0)
ffffffc0502051bc:	4785                	li	a5,1
ffffffc0502051be:	179a                	slli	a5,a5,0x26
ffffffc0502051c0:	97ba                	add	a5,a5,a4
ffffffc0502051c2:	853e                	mv	a0,a5
ffffffc0502051c4:	6462                	ld	s0,24(sp)
ffffffc0502051c6:	6105                	addi	sp,sp,32
ffffffc0502051c8:	8082                	ret

ffffffc0502051ca <pa2kva>:
ffffffc0502051ca:	1101                	addi	sp,sp,-32
ffffffc0502051cc:	ec22                	sd	s0,24(sp)
ffffffc0502051ce:	1000                	addi	s0,sp,32
ffffffc0502051d0:	fea43423          	sd	a0,-24(s0)
ffffffc0502051d4:	fe843703          	ld	a4,-24(s0)
ffffffc0502051d8:	57fd                	li	a5,-1
ffffffc0502051da:	179a                	slli	a5,a5,0x26
ffffffc0502051dc:	97ba                	add	a5,a5,a4
ffffffc0502051de:	853e                	mv	a0,a5
ffffffc0502051e0:	6462                	ld	s0,24(sp)
ffffffc0502051e2:	6105                	addi	sp,sp,32
ffffffc0502051e4:	8082                	ret

ffffffc0502051e6 <get_pa>:
ffffffc0502051e6:	7179                	addi	sp,sp,-48
ffffffc0502051e8:	f422                	sd	s0,40(sp)
ffffffc0502051ea:	1800                	addi	s0,sp,48
ffffffc0502051ec:	fca43c23          	sd	a0,-40(s0)
ffffffc0502051f0:	57fd                	li	a5,-1
ffffffc0502051f2:	fef43423          	sd	a5,-24(s0)
ffffffc0502051f6:	fd843703          	ld	a4,-40(s0)
ffffffc0502051fa:	fe843783          	ld	a5,-24(s0)
ffffffc0502051fe:	8ff9                	and	a5,a5,a4
ffffffc050205200:	83a9                	srli	a5,a5,0xa
ffffffc050205202:	07b2                	slli	a5,a5,0xc
ffffffc050205204:	fef43023          	sd	a5,-32(s0)
ffffffc050205208:	fe043783          	ld	a5,-32(s0)
ffffffc05020520c:	853e                	mv	a0,a5
ffffffc05020520e:	7422                	ld	s0,40(sp)
ffffffc050205210:	6145                	addi	sp,sp,48
ffffffc050205212:	8082                	ret

ffffffc050205214 <set_pfn>:
ffffffc050205214:	7179                	addi	sp,sp,-48
ffffffc050205216:	f422                	sd	s0,40(sp)
ffffffc050205218:	1800                	addi	s0,sp,48
ffffffc05020521a:	fca43c23          	sd	a0,-40(s0)
ffffffc05020521e:	fcb43823          	sd	a1,-48(s0)
ffffffc050205222:	c0000793          	li	a5,-1024
ffffffc050205226:	fef43423          	sd	a5,-24(s0)
ffffffc05020522a:	fd043783          	ld	a5,-48(s0)
ffffffc05020522e:	00a79713          	slli	a4,a5,0xa
ffffffc050205232:	fe843783          	ld	a5,-24(s0)
ffffffc050205236:	8f7d                	and	a4,a4,a5
ffffffc050205238:	fd843783          	ld	a5,-40(s0)
ffffffc05020523c:	e398                	sd	a4,0(a5)
ffffffc05020523e:	0001                	nop
ffffffc050205240:	7422                	ld	s0,40(sp)
ffffffc050205242:	6145                	addi	sp,sp,48
ffffffc050205244:	8082                	ret

ffffffc050205246 <set_attribute>:
ffffffc050205246:	1101                	addi	sp,sp,-32
ffffffc050205248:	ec22                	sd	s0,24(sp)
ffffffc05020524a:	1000                	addi	s0,sp,32
ffffffc05020524c:	fea43423          	sd	a0,-24(s0)
ffffffc050205250:	feb43023          	sd	a1,-32(s0)
ffffffc050205254:	fe843783          	ld	a5,-24(s0)
ffffffc050205258:	6398                	ld	a4,0(a5)
ffffffc05020525a:	fe043783          	ld	a5,-32(s0)
ffffffc05020525e:	8f5d                	or	a4,a4,a5
ffffffc050205260:	fe843783          	ld	a5,-24(s0)
ffffffc050205264:	e398                	sd	a4,0(a5)
ffffffc050205266:	0001                	nop
ffffffc050205268:	6462                	ld	s0,24(sp)
ffffffc05020526a:	6105                	addi	sp,sp,32
ffffffc05020526c:	8082                	ret

ffffffc05020526e <clear_pgdir>:
ffffffc05020526e:	7179                	addi	sp,sp,-48
ffffffc050205270:	f422                	sd	s0,40(sp)
ffffffc050205272:	1800                	addi	s0,sp,48
ffffffc050205274:	fca43c23          	sd	a0,-40(s0)
ffffffc050205278:	fe042623          	sw	zero,-20(s0)
ffffffc05020527c:	a829                	j	ffffffc050205296 <clear_pgdir+0x28>
ffffffc05020527e:	fec42703          	lw	a4,-20(s0)
ffffffc050205282:	fd843783          	ld	a5,-40(s0)
ffffffc050205286:	97ba                	add	a5,a5,a4
ffffffc050205288:	0007b023          	sd	zero,0(a5) # 10000 <boot_stack_top_base-0x501f2000>
ffffffc05020528c:	fec42783          	lw	a5,-20(s0)
ffffffc050205290:	27a1                	addiw	a5,a5,8
ffffffc050205292:	fef42623          	sw	a5,-20(s0)
ffffffc050205296:	fec42783          	lw	a5,-20(s0)
ffffffc05020529a:	873e                	mv	a4,a5
ffffffc05020529c:	6785                	lui	a5,0x1
ffffffc05020529e:	fef760e3          	bltu	a4,a5,ffffffc05020527e <clear_pgdir+0x10>
ffffffc0502052a2:	0001                	nop
ffffffc0502052a4:	0001                	nop
ffffffc0502052a6:	7422                	ld	s0,40(sp)
ffffffc0502052a8:	6145                	addi	sp,sp,48
ffffffc0502052aa:	8082                	ret

ffffffc0502052ac <allocPage>:
ffffffc0502052ac:	7179                	addi	sp,sp,-48
ffffffc0502052ae:	f406                	sd	ra,40(sp)
ffffffc0502052b0:	f022                	sd	s0,32(sp)
ffffffc0502052b2:	1800                	addi	s0,sp,48
ffffffc0502052b4:	00005517          	auipc	a0,0x5
ffffffc0502052b8:	3dc50513          	addi	a0,a0,988 # ffffffc05020a690 <FreePageList>
ffffffc0502052bc:	2e1030ef          	jal	ra,ffffffc050208d9c <list_empty>
ffffffc0502052c0:	87aa                	mv	a5,a0
ffffffc0502052c2:	e7ad                	bnez	a5,ffffffc05020532c <allocPage+0x80>
ffffffc0502052c4:	00005797          	auipc	a5,0x5
ffffffc0502052c8:	3cc78793          	addi	a5,a5,972 # ffffffc05020a690 <FreePageList>
ffffffc0502052cc:	639c                	ld	a5,0(a5)
ffffffc0502052ce:	17c1                	addi	a5,a5,-16
ffffffc0502052d0:	fcf43c23          	sd	a5,-40(s0)
ffffffc0502052d4:	fd843783          	ld	a5,-40(s0)
ffffffc0502052d8:	639c                	ld	a5,0(a5)
ffffffc0502052da:	853e                	mv	a0,a5
ffffffc0502052dc:	eefff0ef          	jal	ra,ffffffc0502051ca <pa2kva>
ffffffc0502052e0:	fca43823          	sd	a0,-48(s0)
ffffffc0502052e4:	fe042623          	sw	zero,-20(s0)
ffffffc0502052e8:	a839                	j	ffffffc050205306 <allocPage+0x5a>
ffffffc0502052ea:	fec42783          	lw	a5,-20(s0)
ffffffc0502052ee:	00379713          	slli	a4,a5,0x3
ffffffc0502052f2:	fd043783          	ld	a5,-48(s0)
ffffffc0502052f6:	97ba                	add	a5,a5,a4
ffffffc0502052f8:	0007b023          	sd	zero,0(a5)
ffffffc0502052fc:	fec42783          	lw	a5,-20(s0)
ffffffc050205300:	2785                	addiw	a5,a5,1
ffffffc050205302:	fef42623          	sw	a5,-20(s0)
ffffffc050205306:	fec42783          	lw	a5,-20(s0)
ffffffc05020530a:	0007871b          	sext.w	a4,a5
ffffffc05020530e:	1ff00793          	li	a5,511
ffffffc050205312:	fce7dce3          	bge	a5,a4,ffffffc0502052ea <allocPage+0x3e>
ffffffc050205316:	00005797          	auipc	a5,0x5
ffffffc05020531a:	37a78793          	addi	a5,a5,890 # ffffffc05020a690 <FreePageList>
ffffffc05020531e:	639c                	ld	a5,0(a5)
ffffffc050205320:	853e                	mv	a0,a5
ffffffc050205322:	1d5030ef          	jal	ra,ffffffc050208cf6 <list_del>
ffffffc050205326:	fd043783          	ld	a5,-48(s0)
ffffffc05020532a:	a0a5                	j	ffffffc050205392 <allocPage+0xe6>
ffffffc05020532c:	00005797          	auipc	a5,0x5
ffffffc050205330:	65c78793          	addi	a5,a5,1628 # ffffffc05020a988 <kernMemCurr>
ffffffc050205334:	6398                	ld	a4,0(a5)
ffffffc050205336:	6785                	lui	a5,0x1
ffffffc050205338:	17fd                	addi	a5,a5,-1
ffffffc05020533a:	973e                	add	a4,a4,a5
ffffffc05020533c:	77fd                	lui	a5,0xfffff
ffffffc05020533e:	8ff9                	and	a5,a5,a4
ffffffc050205340:	fef43023          	sd	a5,-32(s0)
ffffffc050205344:	fe043703          	ld	a4,-32(s0)
ffffffc050205348:	6785                	lui	a5,0x1
ffffffc05020534a:	973e                	add	a4,a4,a5
ffffffc05020534c:	00005797          	auipc	a5,0x5
ffffffc050205350:	63c78793          	addi	a5,a5,1596 # ffffffc05020a988 <kernMemCurr>
ffffffc050205354:	e398                	sd	a4,0(a5)
ffffffc050205356:	fe042423          	sw	zero,-24(s0)
ffffffc05020535a:	a015                	j	ffffffc05020537e <allocPage+0xd2>
ffffffc05020535c:	fe842783          	lw	a5,-24(s0)
ffffffc050205360:	00379713          	slli	a4,a5,0x3
ffffffc050205364:	00005797          	auipc	a5,0x5
ffffffc050205368:	62478793          	addi	a5,a5,1572 # ffffffc05020a988 <kernMemCurr>
ffffffc05020536c:	639c                	ld	a5,0(a5)
ffffffc05020536e:	97ba                	add	a5,a5,a4
ffffffc050205370:	0007b023          	sd	zero,0(a5)
ffffffc050205374:	fe842783          	lw	a5,-24(s0)
ffffffc050205378:	2785                	addiw	a5,a5,1
ffffffc05020537a:	fef42423          	sw	a5,-24(s0)
ffffffc05020537e:	fe842783          	lw	a5,-24(s0)
ffffffc050205382:	0007871b          	sext.w	a4,a5
ffffffc050205386:	1ff00793          	li	a5,511
ffffffc05020538a:	fce7d9e3          	bge	a5,a4,ffffffc05020535c <allocPage+0xb0>
ffffffc05020538e:	fe043783          	ld	a5,-32(s0)
ffffffc050205392:	853e                	mv	a0,a5
ffffffc050205394:	70a2                	ld	ra,40(sp)
ffffffc050205396:	7402                	ld	s0,32(sp)
ffffffc050205398:	6145                	addi	sp,sp,48
ffffffc05020539a:	8082                	ret

ffffffc05020539c <freePage>:
ffffffc05020539c:	7179                	addi	sp,sp,-48
ffffffc05020539e:	f406                	sd	ra,40(sp)
ffffffc0502053a0:	f022                	sd	s0,32(sp)
ffffffc0502053a2:	1800                	addi	s0,sp,48
ffffffc0502053a4:	fca43c23          	sd	a0,-40(s0)
ffffffc0502053a8:	03000513          	li	a0,48
ffffffc0502053ac:	030000ef          	jal	ra,ffffffc0502053dc <kmalloc>
ffffffc0502053b0:	fea43423          	sd	a0,-24(s0)
ffffffc0502053b4:	fe843783          	ld	a5,-24(s0)
ffffffc0502053b8:	fd843703          	ld	a4,-40(s0)
ffffffc0502053bc:	e398                	sd	a4,0(a5)
ffffffc0502053be:	fe843783          	ld	a5,-24(s0)
ffffffc0502053c2:	07c1                	addi	a5,a5,16
ffffffc0502053c4:	00005597          	auipc	a1,0x5
ffffffc0502053c8:	2cc58593          	addi	a1,a1,716 # ffffffc05020a690 <FreePageList>
ffffffc0502053cc:	853e                	mv	a0,a5
ffffffc0502053ce:	1a1030ef          	jal	ra,ffffffc050208d6e <list_add_tail>
ffffffc0502053d2:	0001                	nop
ffffffc0502053d4:	70a2                	ld	ra,40(sp)
ffffffc0502053d6:	7402                	ld	s0,32(sp)
ffffffc0502053d8:	6145                	addi	sp,sp,48
ffffffc0502053da:	8082                	ret

ffffffc0502053dc <kmalloc>:
ffffffc0502053dc:	7179                	addi	sp,sp,-48
ffffffc0502053de:	f422                	sd	s0,40(sp)
ffffffc0502053e0:	1800                	addi	s0,sp,48
ffffffc0502053e2:	fca43c23          	sd	a0,-40(s0)
ffffffc0502053e6:	00005797          	auipc	a5,0x5
ffffffc0502053ea:	5aa78793          	addi	a5,a5,1450 # ffffffc05020a990 <kmallocCurr>
ffffffc0502053ee:	639c                	ld	a5,0(a5)
ffffffc0502053f0:	078d                	addi	a5,a5,3
ffffffc0502053f2:	9bf1                	andi	a5,a5,-4
ffffffc0502053f4:	fef43423          	sd	a5,-24(s0)
ffffffc0502053f8:	fe843703          	ld	a4,-24(s0)
ffffffc0502053fc:	fd843783          	ld	a5,-40(s0)
ffffffc050205400:	973e                	add	a4,a4,a5
ffffffc050205402:	00005797          	auipc	a5,0x5
ffffffc050205406:	58e78793          	addi	a5,a5,1422 # ffffffc05020a990 <kmallocCurr>
ffffffc05020540a:	e398                	sd	a4,0(a5)
ffffffc05020540c:	fe843783          	ld	a5,-24(s0)
ffffffc050205410:	853e                	mv	a0,a5
ffffffc050205412:	7422                	ld	s0,40(sp)
ffffffc050205414:	6145                	addi	sp,sp,48
ffffffc050205416:	8082                	ret

ffffffc050205418 <share_pgtable>:
ffffffc050205418:	1101                	addi	sp,sp,-32
ffffffc05020541a:	ec22                	sd	s0,24(sp)
ffffffc05020541c:	1000                	addi	s0,sp,32
ffffffc05020541e:	fea43423          	sd	a0,-24(s0)
ffffffc050205422:	feb43023          	sd	a1,-32(s0)
ffffffc050205426:	0001                	nop
ffffffc050205428:	6462                	ld	s0,24(sp)
ffffffc05020542a:	6105                	addi	sp,sp,32
ffffffc05020542c:	8082                	ret

ffffffc05020542e <alloc_page_helper>:
ffffffc05020542e:	7135                	addi	sp,sp,-160
ffffffc050205430:	ed06                	sd	ra,152(sp)
ffffffc050205432:	e922                	sd	s0,144(sp)
ffffffc050205434:	1100                	addi	s0,sp,160
ffffffc050205436:	f6a43423          	sd	a0,-152(s0)
ffffffc05020543a:	f6b43023          	sd	a1,-160(s0)
ffffffc05020543e:	f6843703          	ld	a4,-152(s0)
ffffffc050205442:	57fd                	li	a5,-1
ffffffc050205444:	83e5                	srli	a5,a5,0x19
ffffffc050205446:	8ff9                	and	a5,a5,a4
ffffffc050205448:	f6f43423          	sd	a5,-152(s0)
ffffffc05020544c:	f6843783          	ld	a5,-152(s0)
ffffffc050205450:	83b1                	srli	a5,a5,0xc
ffffffc050205452:	1ff7f793          	andi	a5,a5,511
ffffffc050205456:	fcf43c23          	sd	a5,-40(s0)
ffffffc05020545a:	f6843783          	ld	a5,-152(s0)
ffffffc05020545e:	83d5                	srli	a5,a5,0x15
ffffffc050205460:	1ff7f793          	andi	a5,a5,511
ffffffc050205464:	fcf43823          	sd	a5,-48(s0)
ffffffc050205468:	f6843783          	ld	a5,-152(s0)
ffffffc05020546c:	83f9                	srli	a5,a5,0x1e
ffffffc05020546e:	1ff7f793          	andi	a5,a5,511
ffffffc050205472:	fcf43423          	sd	a5,-56(s0)
ffffffc050205476:	fc843783          	ld	a5,-56(s0)
ffffffc05020547a:	00379713          	slli	a4,a5,0x3
ffffffc05020547e:	f6043783          	ld	a5,-160(s0)
ffffffc050205482:	97ba                	add	a5,a5,a4
ffffffc050205484:	fcf43023          	sd	a5,-64(s0)
ffffffc050205488:	fe043423          	sd	zero,-24(s0)
ffffffc05020548c:	fe043023          	sd	zero,-32(s0)
ffffffc050205490:	fc043783          	ld	a5,-64(s0)
ffffffc050205494:	639c                	ld	a5,0(a5)
ffffffc050205496:	8b85                	andi	a5,a5,1
ffffffc050205498:	e3a5                	bnez	a5,ffffffc0502054f8 <alloc_page_helper+0xca>
ffffffc05020549a:	e13ff0ef          	jal	ra,ffffffc0502052ac <allocPage>
ffffffc05020549e:	faa43423          	sd	a0,-88(s0)
ffffffc0502054a2:	fa843503          	ld	a0,-88(s0)
ffffffc0502054a6:	d09ff0ef          	jal	ra,ffffffc0502051ae <kva2pa>
ffffffc0502054aa:	faa43023          	sd	a0,-96(s0)
ffffffc0502054ae:	fa043783          	ld	a5,-96(s0)
ffffffc0502054b2:	83b1                	srli	a5,a5,0xc
ffffffc0502054b4:	00a79713          	slli	a4,a5,0xa
ffffffc0502054b8:	fc043783          	ld	a5,-64(s0)
ffffffc0502054bc:	e398                	sd	a4,0(a5)
ffffffc0502054be:	4585                	li	a1,1
ffffffc0502054c0:	fc043503          	ld	a0,-64(s0)
ffffffc0502054c4:	d83ff0ef          	jal	ra,ffffffc050205246 <set_attribute>
ffffffc0502054c8:	fc043783          	ld	a5,-64(s0)
ffffffc0502054cc:	639c                	ld	a5,0(a5)
ffffffc0502054ce:	853e                	mv	a0,a5
ffffffc0502054d0:	d17ff0ef          	jal	ra,ffffffc0502051e6 <get_pa>
ffffffc0502054d4:	87aa                	mv	a5,a0
ffffffc0502054d6:	853e                	mv	a0,a5
ffffffc0502054d8:	cf3ff0ef          	jal	ra,ffffffc0502051ca <pa2kva>
ffffffc0502054dc:	87aa                	mv	a5,a0
ffffffc0502054de:	853e                	mv	a0,a5
ffffffc0502054e0:	d8fff0ef          	jal	ra,ffffffc05020526e <clear_pgdir>
ffffffc0502054e4:	fd043783          	ld	a5,-48(s0)
ffffffc0502054e8:	00379713          	slli	a4,a5,0x3
ffffffc0502054ec:	fa843783          	ld	a5,-88(s0)
ffffffc0502054f0:	97ba                	add	a5,a5,a4
ffffffc0502054f2:	fef43423          	sd	a5,-24(s0)
ffffffc0502054f6:	a03d                	j	ffffffc050205524 <alloc_page_helper+0xf6>
ffffffc0502054f8:	fc043783          	ld	a5,-64(s0)
ffffffc0502054fc:	639c                	ld	a5,0(a5)
ffffffc0502054fe:	83a9                	srli	a5,a5,0xa
ffffffc050205500:	07b2                	slli	a5,a5,0xc
ffffffc050205502:	faf43c23          	sd	a5,-72(s0)
ffffffc050205506:	fb843503          	ld	a0,-72(s0)
ffffffc05020550a:	cc1ff0ef          	jal	ra,ffffffc0502051ca <pa2kva>
ffffffc05020550e:	faa43823          	sd	a0,-80(s0)
ffffffc050205512:	fd043783          	ld	a5,-48(s0)
ffffffc050205516:	00379713          	slli	a4,a5,0x3
ffffffc05020551a:	fb043783          	ld	a5,-80(s0)
ffffffc05020551e:	97ba                	add	a5,a5,a4
ffffffc050205520:	fef43423          	sd	a5,-24(s0)
ffffffc050205524:	fe843783          	ld	a5,-24(s0)
ffffffc050205528:	639c                	ld	a5,0(a5)
ffffffc05020552a:	8b85                	andi	a5,a5,1
ffffffc05020552c:	e3a5                	bnez	a5,ffffffc05020558c <alloc_page_helper+0x15e>
ffffffc05020552e:	d7fff0ef          	jal	ra,ffffffc0502052ac <allocPage>
ffffffc050205532:	f8a43423          	sd	a0,-120(s0)
ffffffc050205536:	f8843503          	ld	a0,-120(s0)
ffffffc05020553a:	c75ff0ef          	jal	ra,ffffffc0502051ae <kva2pa>
ffffffc05020553e:	f8a43023          	sd	a0,-128(s0)
ffffffc050205542:	f8043783          	ld	a5,-128(s0)
ffffffc050205546:	83b1                	srli	a5,a5,0xc
ffffffc050205548:	00a79713          	slli	a4,a5,0xa
ffffffc05020554c:	fe843783          	ld	a5,-24(s0)
ffffffc050205550:	e398                	sd	a4,0(a5)
ffffffc050205552:	4585                	li	a1,1
ffffffc050205554:	fe843503          	ld	a0,-24(s0)
ffffffc050205558:	cefff0ef          	jal	ra,ffffffc050205246 <set_attribute>
ffffffc05020555c:	fe843783          	ld	a5,-24(s0)
ffffffc050205560:	639c                	ld	a5,0(a5)
ffffffc050205562:	853e                	mv	a0,a5
ffffffc050205564:	c83ff0ef          	jal	ra,ffffffc0502051e6 <get_pa>
ffffffc050205568:	87aa                	mv	a5,a0
ffffffc05020556a:	853e                	mv	a0,a5
ffffffc05020556c:	c5fff0ef          	jal	ra,ffffffc0502051ca <pa2kva>
ffffffc050205570:	87aa                	mv	a5,a0
ffffffc050205572:	853e                	mv	a0,a5
ffffffc050205574:	cfbff0ef          	jal	ra,ffffffc05020526e <clear_pgdir>
ffffffc050205578:	fd843783          	ld	a5,-40(s0)
ffffffc05020557c:	00379713          	slli	a4,a5,0x3
ffffffc050205580:	f8843783          	ld	a5,-120(s0)
ffffffc050205584:	97ba                	add	a5,a5,a4
ffffffc050205586:	fef43023          	sd	a5,-32(s0)
ffffffc05020558a:	a03d                	j	ffffffc0502055b8 <alloc_page_helper+0x18a>
ffffffc05020558c:	fe843783          	ld	a5,-24(s0)
ffffffc050205590:	639c                	ld	a5,0(a5)
ffffffc050205592:	83a9                	srli	a5,a5,0xa
ffffffc050205594:	07b2                	slli	a5,a5,0xc
ffffffc050205596:	f8f43c23          	sd	a5,-104(s0)
ffffffc05020559a:	f9843503          	ld	a0,-104(s0)
ffffffc05020559e:	c2dff0ef          	jal	ra,ffffffc0502051ca <pa2kva>
ffffffc0502055a2:	f8a43823          	sd	a0,-112(s0)
ffffffc0502055a6:	fd843783          	ld	a5,-40(s0)
ffffffc0502055aa:	00379713          	slli	a4,a5,0x3
ffffffc0502055ae:	f9043783          	ld	a5,-112(s0)
ffffffc0502055b2:	97ba                	add	a5,a5,a4
ffffffc0502055b4:	fef43023          	sd	a5,-32(s0)
ffffffc0502055b8:	fe043783          	ld	a5,-32(s0)
ffffffc0502055bc:	639c                	ld	a5,0(a5)
ffffffc0502055be:	8b85                	andi	a5,a5,1
ffffffc0502055c0:	c399                	beqz	a5,ffffffc0502055c6 <alloc_page_helper+0x198>
ffffffc0502055c2:	4781                	li	a5,0
ffffffc0502055c4:	a81d                	j	ffffffc0502055fa <alloc_page_helper+0x1cc>
ffffffc0502055c6:	ce7ff0ef          	jal	ra,ffffffc0502052ac <allocPage>
ffffffc0502055ca:	f6a43c23          	sd	a0,-136(s0)
ffffffc0502055ce:	f7843503          	ld	a0,-136(s0)
ffffffc0502055d2:	bddff0ef          	jal	ra,ffffffc0502051ae <kva2pa>
ffffffc0502055d6:	f6a43823          	sd	a0,-144(s0)
ffffffc0502055da:	f7043783          	ld	a5,-144(s0)
ffffffc0502055de:	83b1                	srli	a5,a5,0xc
ffffffc0502055e0:	85be                	mv	a1,a5
ffffffc0502055e2:	fe043503          	ld	a0,-32(s0)
ffffffc0502055e6:	c2fff0ef          	jal	ra,ffffffc050205214 <set_pfn>
ffffffc0502055ea:	0df00593          	li	a1,223
ffffffc0502055ee:	fe043503          	ld	a0,-32(s0)
ffffffc0502055f2:	c55ff0ef          	jal	ra,ffffffc050205246 <set_attribute>
ffffffc0502055f6:	f7843783          	ld	a5,-136(s0)
ffffffc0502055fa:	853e                	mv	a0,a5
ffffffc0502055fc:	60ea                	ld	ra,152(sp)
ffffffc0502055fe:	644a                	ld	s0,144(sp)
ffffffc050205600:	610d                	addi	sp,sp,160
ffffffc050205602:	8082                	ret

ffffffc050205604 <walk_pgdir>:
ffffffc050205604:	711d                	addi	sp,sp,-96
ffffffc050205606:	ec86                	sd	ra,88(sp)
ffffffc050205608:	e8a2                	sd	s0,80(sp)
ffffffc05020560a:	e4a6                	sd	s1,72(sp)
ffffffc05020560c:	1080                	addi	s0,sp,96
ffffffc05020560e:	faa43423          	sd	a0,-88(s0)
ffffffc050205612:	fab43023          	sd	a1,-96(s0)
ffffffc050205616:	fa843703          	ld	a4,-88(s0)
ffffffc05020561a:	57fd                	li	a5,-1
ffffffc05020561c:	83e5                	srli	a5,a5,0x19
ffffffc05020561e:	8ff9                	and	a5,a5,a4
ffffffc050205620:	faf43423          	sd	a5,-88(s0)
ffffffc050205624:	fa843783          	ld	a5,-88(s0)
ffffffc050205628:	83b1                	srli	a5,a5,0xc
ffffffc05020562a:	1ff7f793          	andi	a5,a5,511
ffffffc05020562e:	fcf43c23          	sd	a5,-40(s0)
ffffffc050205632:	fa843783          	ld	a5,-88(s0)
ffffffc050205636:	83d5                	srli	a5,a5,0x15
ffffffc050205638:	1ff7f793          	andi	a5,a5,511
ffffffc05020563c:	fcf43823          	sd	a5,-48(s0)
ffffffc050205640:	fa843783          	ld	a5,-88(s0)
ffffffc050205644:	83f9                	srli	a5,a5,0x1e
ffffffc050205646:	1ff7f793          	andi	a5,a5,511
ffffffc05020564a:	fcf43423          	sd	a5,-56(s0)
ffffffc05020564e:	fc843783          	ld	a5,-56(s0)
ffffffc050205652:	00379713          	slli	a4,a5,0x3
ffffffc050205656:	fa043783          	ld	a5,-96(s0)
ffffffc05020565a:	97ba                	add	a5,a5,a4
ffffffc05020565c:	fcf43023          	sd	a5,-64(s0)
ffffffc050205660:	fa043c23          	sd	zero,-72(s0)
ffffffc050205664:	fa043823          	sd	zero,-80(s0)
ffffffc050205668:	fc043783          	ld	a5,-64(s0)
ffffffc05020566c:	639c                	ld	a5,0(a5)
ffffffc05020566e:	8b85                	andi	a5,a5,1
ffffffc050205670:	e399                	bnez	a5,ffffffc050205676 <walk_pgdir+0x72>
ffffffc050205672:	4781                	li	a5,0
ffffffc050205674:	a08d                	j	ffffffc0502056d6 <walk_pgdir+0xd2>
ffffffc050205676:	fd043783          	ld	a5,-48(s0)
ffffffc05020567a:	00379493          	slli	s1,a5,0x3
ffffffc05020567e:	fc043783          	ld	a5,-64(s0)
ffffffc050205682:	639c                	ld	a5,0(a5)
ffffffc050205684:	83a9                	srli	a5,a5,0xa
ffffffc050205686:	07b2                	slli	a5,a5,0xc
ffffffc050205688:	853e                	mv	a0,a5
ffffffc05020568a:	b41ff0ef          	jal	ra,ffffffc0502051ca <pa2kva>
ffffffc05020568e:	87aa                	mv	a5,a0
ffffffc050205690:	97a6                	add	a5,a5,s1
ffffffc050205692:	faf43c23          	sd	a5,-72(s0)
ffffffc050205696:	fb843783          	ld	a5,-72(s0)
ffffffc05020569a:	639c                	ld	a5,0(a5)
ffffffc05020569c:	8b85                	andi	a5,a5,1
ffffffc05020569e:	e399                	bnez	a5,ffffffc0502056a4 <walk_pgdir+0xa0>
ffffffc0502056a0:	4781                	li	a5,0
ffffffc0502056a2:	a815                	j	ffffffc0502056d6 <walk_pgdir+0xd2>
ffffffc0502056a4:	fd843783          	ld	a5,-40(s0)
ffffffc0502056a8:	00379493          	slli	s1,a5,0x3
ffffffc0502056ac:	fb843783          	ld	a5,-72(s0)
ffffffc0502056b0:	639c                	ld	a5,0(a5)
ffffffc0502056b2:	83a9                	srli	a5,a5,0xa
ffffffc0502056b4:	07b2                	slli	a5,a5,0xc
ffffffc0502056b6:	853e                	mv	a0,a5
ffffffc0502056b8:	b13ff0ef          	jal	ra,ffffffc0502051ca <pa2kva>
ffffffc0502056bc:	87aa                	mv	a5,a0
ffffffc0502056be:	97a6                	add	a5,a5,s1
ffffffc0502056c0:	faf43823          	sd	a5,-80(s0)
ffffffc0502056c4:	fb043783          	ld	a5,-80(s0)
ffffffc0502056c8:	639c                	ld	a5,0(a5)
ffffffc0502056ca:	8b85                	andi	a5,a5,1
ffffffc0502056cc:	e399                	bnez	a5,ffffffc0502056d2 <walk_pgdir+0xce>
ffffffc0502056ce:	4781                	li	a5,0
ffffffc0502056d0:	a019                	j	ffffffc0502056d6 <walk_pgdir+0xd2>
ffffffc0502056d2:	fb043783          	ld	a5,-80(s0)
ffffffc0502056d6:	853e                	mv	a0,a5
ffffffc0502056d8:	60e6                	ld	ra,88(sp)
ffffffc0502056da:	6446                	ld	s0,80(sp)
ffffffc0502056dc:	64a6                	ld	s1,72(sp)
ffffffc0502056de:	6125                	addi	sp,sp,96
ffffffc0502056e0:	8082                	ret

ffffffc0502056e2 <shm_page_get>:
ffffffc0502056e2:	7115                	addi	sp,sp,-224
ffffffc0502056e4:	ed86                	sd	ra,216(sp)
ffffffc0502056e6:	e9a2                	sd	s0,208(sp)
ffffffc0502056e8:	1180                	addi	s0,sp,224
ffffffc0502056ea:	87aa                	mv	a5,a0
ffffffc0502056ec:	f2f42623          	sw	a5,-212(s0)
ffffffc0502056f0:	abdfc0ef          	jal	ra,ffffffc0502021ac <get_current_cpu_id>
ffffffc0502056f4:	fca43823          	sd	a0,-48(s0)
ffffffc0502056f8:	f2c42703          	lw	a4,-212(s0)
ffffffc0502056fc:	47d1                	li	a5,20
ffffffc0502056fe:	02f767bb          	remw	a5,a4,a5
ffffffc050205702:	fcf42623          	sw	a5,-52(s0)
ffffffc050205706:	0004c717          	auipc	a4,0x4c
ffffffc05020570a:	be270713          	addi	a4,a4,-1054 # ffffffc0502512e8 <next_running>
ffffffc05020570e:	fd043783          	ld	a5,-48(s0)
ffffffc050205712:	078e                	slli	a5,a5,0x3
ffffffc050205714:	97ba                	add	a5,a5,a4
ffffffc050205716:	639c                	ld	a5,0(a5)
ffffffc050205718:	1147a783          	lw	a5,276(a5)
ffffffc05020571c:	00c7979b          	slliw	a5,a5,0xc
ffffffc050205720:	2781                	sext.w	a5,a5
ffffffc050205722:	873e                	mv	a4,a5
ffffffc050205724:	07b00793          	li	a5,123
ffffffc050205728:	07f6                	slli	a5,a5,0x1d
ffffffc05020572a:	97ba                	add	a5,a5,a4
ffffffc05020572c:	fcf43023          	sd	a5,-64(s0)
ffffffc050205730:	fcc42703          	lw	a4,-52(s0)
ffffffc050205734:	000567b7          	lui	a5,0x56
ffffffc050205738:	9fb9                	addw	a5,a5,a4
ffffffc05020573a:	2781                	sext.w	a5,a5
ffffffc05020573c:	00c7979b          	slliw	a5,a5,0xc
ffffffc050205740:	2781                	sext.w	a5,a5
ffffffc050205742:	faf43c23          	sd	a5,-72(s0)
ffffffc050205746:	0004c717          	auipc	a4,0x4c
ffffffc05020574a:	ba270713          	addi	a4,a4,-1118 # ffffffc0502512e8 <next_running>
ffffffc05020574e:	fd043783          	ld	a5,-48(s0)
ffffffc050205752:	078e                	slli	a5,a5,0x3
ffffffc050205754:	97ba                	add	a5,a5,a4
ffffffc050205756:	639c                	ld	a5,0(a5)
ffffffc050205758:	77fc                	ld	a5,232(a5)
ffffffc05020575a:	853e                	mv	a0,a5
ffffffc05020575c:	a6fff0ef          	jal	ra,ffffffc0502051ca <pa2kva>
ffffffc050205760:	faa43823          	sd	a0,-80(s0)
ffffffc050205764:	0004c717          	auipc	a4,0x4c
ffffffc050205768:	b8470713          	addi	a4,a4,-1148 # ffffffc0502512e8 <next_running>
ffffffc05020576c:	fd043783          	ld	a5,-48(s0)
ffffffc050205770:	078e                	slli	a5,a5,0x3
ffffffc050205772:	97ba                	add	a5,a5,a4
ffffffc050205774:	639c                	ld	a5,0(a5)
ffffffc050205776:	1147a703          	lw	a4,276(a5) # 56114 <boot_stack_top_base-0x501abeec>
ffffffc05020577a:	2705                	addiw	a4,a4,1
ffffffc05020577c:	2701                	sext.w	a4,a4
ffffffc05020577e:	10e7aa23          	sw	a4,276(a5)
ffffffc050205782:	00048717          	auipc	a4,0x48
ffffffc050205786:	fae70713          	addi	a4,a4,-82 # ffffffc05024d730 <shm>
ffffffc05020578a:	fcc42683          	lw	a3,-52(s0)
ffffffc05020578e:	05800793          	li	a5,88
ffffffc050205792:	02f687b3          	mul	a5,a3,a5
ffffffc050205796:	97ba                	add	a5,a5,a4
ffffffc050205798:	439c                	lw	a5,0(a5)
ffffffc05020579a:	2785                	addiw	a5,a5,1
ffffffc05020579c:	0007871b          	sext.w	a4,a5
ffffffc0502057a0:	00048697          	auipc	a3,0x48
ffffffc0502057a4:	f9068693          	addi	a3,a3,-112 # ffffffc05024d730 <shm>
ffffffc0502057a8:	fcc42603          	lw	a2,-52(s0)
ffffffc0502057ac:	05800793          	li	a5,88
ffffffc0502057b0:	02f607b3          	mul	a5,a2,a5
ffffffc0502057b4:	97b6                	add	a5,a5,a3
ffffffc0502057b6:	c398                	sw	a4,0(a5)
ffffffc0502057b8:	00048717          	auipc	a4,0x48
ffffffc0502057bc:	f7870713          	addi	a4,a4,-136 # ffffffc05024d730 <shm>
ffffffc0502057c0:	fcc42683          	lw	a3,-52(s0)
ffffffc0502057c4:	05800793          	li	a5,88
ffffffc0502057c8:	02f687b3          	mul	a5,a3,a5
ffffffc0502057cc:	97ba                	add	a5,a5,a4
ffffffc0502057ce:	439c                	lw	a5,0(a5)
ffffffc0502057d0:	37fd                	addiw	a5,a5,-1
ffffffc0502057d2:	0007861b          	sext.w	a2,a5
ffffffc0502057d6:	00048697          	auipc	a3,0x48
ffffffc0502057da:	f5a68693          	addi	a3,a3,-166 # ffffffc05024d730 <shm>
ffffffc0502057de:	fcc42703          	lw	a4,-52(s0)
ffffffc0502057e2:	87ba                	mv	a5,a4
ffffffc0502057e4:	0786                	slli	a5,a5,0x1
ffffffc0502057e6:	97ba                	add	a5,a5,a4
ffffffc0502057e8:	078a                	slli	a5,a5,0x2
ffffffc0502057ea:	8f99                	sub	a5,a5,a4
ffffffc0502057ec:	97b2                	add	a5,a5,a2
ffffffc0502057ee:	078e                	slli	a5,a5,0x3
ffffffc0502057f0:	97b6                	add	a5,a5,a3
ffffffc0502057f2:	fc043703          	ld	a4,-64(s0)
ffffffc0502057f6:	e798                	sd	a4,8(a5)
ffffffc0502057f8:	fc043703          	ld	a4,-64(s0)
ffffffc0502057fc:	57fd                	li	a5,-1
ffffffc0502057fe:	83e5                	srli	a5,a5,0x19
ffffffc050205800:	8ff9                	and	a5,a5,a4
ffffffc050205802:	faf43423          	sd	a5,-88(s0)
ffffffc050205806:	fa843783          	ld	a5,-88(s0)
ffffffc05020580a:	83b1                	srli	a5,a5,0xc
ffffffc05020580c:	1ff7f793          	andi	a5,a5,511
ffffffc050205810:	faf43023          	sd	a5,-96(s0)
ffffffc050205814:	fa843783          	ld	a5,-88(s0)
ffffffc050205818:	83d5                	srli	a5,a5,0x15
ffffffc05020581a:	1ff7f793          	andi	a5,a5,511
ffffffc05020581e:	f8f43c23          	sd	a5,-104(s0)
ffffffc050205822:	fa843783          	ld	a5,-88(s0)
ffffffc050205826:	83f9                	srli	a5,a5,0x1e
ffffffc050205828:	1ff7f793          	andi	a5,a5,511
ffffffc05020582c:	f8f43823          	sd	a5,-112(s0)
ffffffc050205830:	f9043783          	ld	a5,-112(s0)
ffffffc050205834:	00379713          	slli	a4,a5,0x3
ffffffc050205838:	fb043783          	ld	a5,-80(s0)
ffffffc05020583c:	97ba                	add	a5,a5,a4
ffffffc05020583e:	f8f43423          	sd	a5,-120(s0)
ffffffc050205842:	fe043423          	sd	zero,-24(s0)
ffffffc050205846:	fe043023          	sd	zero,-32(s0)
ffffffc05020584a:	f8843783          	ld	a5,-120(s0)
ffffffc05020584e:	639c                	ld	a5,0(a5)
ffffffc050205850:	8b85                	andi	a5,a5,1
ffffffc050205852:	e3a5                	bnez	a5,ffffffc0502058b2 <shm_page_get+0x1d0>
ffffffc050205854:	a59ff0ef          	jal	ra,ffffffc0502052ac <allocPage>
ffffffc050205858:	f6a43823          	sd	a0,-144(s0)
ffffffc05020585c:	f7043503          	ld	a0,-144(s0)
ffffffc050205860:	94fff0ef          	jal	ra,ffffffc0502051ae <kva2pa>
ffffffc050205864:	f6a43423          	sd	a0,-152(s0)
ffffffc050205868:	f6843783          	ld	a5,-152(s0)
ffffffc05020586c:	83b1                	srli	a5,a5,0xc
ffffffc05020586e:	00a79713          	slli	a4,a5,0xa
ffffffc050205872:	f8843783          	ld	a5,-120(s0)
ffffffc050205876:	e398                	sd	a4,0(a5)
ffffffc050205878:	4585                	li	a1,1
ffffffc05020587a:	f8843503          	ld	a0,-120(s0)
ffffffc05020587e:	9c9ff0ef          	jal	ra,ffffffc050205246 <set_attribute>
ffffffc050205882:	f8843783          	ld	a5,-120(s0)
ffffffc050205886:	639c                	ld	a5,0(a5)
ffffffc050205888:	853e                	mv	a0,a5
ffffffc05020588a:	95dff0ef          	jal	ra,ffffffc0502051e6 <get_pa>
ffffffc05020588e:	87aa                	mv	a5,a0
ffffffc050205890:	853e                	mv	a0,a5
ffffffc050205892:	939ff0ef          	jal	ra,ffffffc0502051ca <pa2kva>
ffffffc050205896:	87aa                	mv	a5,a0
ffffffc050205898:	853e                	mv	a0,a5
ffffffc05020589a:	9d5ff0ef          	jal	ra,ffffffc05020526e <clear_pgdir>
ffffffc05020589e:	f9843783          	ld	a5,-104(s0)
ffffffc0502058a2:	00379713          	slli	a4,a5,0x3
ffffffc0502058a6:	f7043783          	ld	a5,-144(s0)
ffffffc0502058aa:	97ba                	add	a5,a5,a4
ffffffc0502058ac:	fef43423          	sd	a5,-24(s0)
ffffffc0502058b0:	a03d                	j	ffffffc0502058de <shm_page_get+0x1fc>
ffffffc0502058b2:	f8843783          	ld	a5,-120(s0)
ffffffc0502058b6:	639c                	ld	a5,0(a5)
ffffffc0502058b8:	83a9                	srli	a5,a5,0xa
ffffffc0502058ba:	07b2                	slli	a5,a5,0xc
ffffffc0502058bc:	f8f43023          	sd	a5,-128(s0)
ffffffc0502058c0:	f8043503          	ld	a0,-128(s0)
ffffffc0502058c4:	907ff0ef          	jal	ra,ffffffc0502051ca <pa2kva>
ffffffc0502058c8:	f6a43c23          	sd	a0,-136(s0)
ffffffc0502058cc:	f9843783          	ld	a5,-104(s0)
ffffffc0502058d0:	00379713          	slli	a4,a5,0x3
ffffffc0502058d4:	f7843783          	ld	a5,-136(s0)
ffffffc0502058d8:	97ba                	add	a5,a5,a4
ffffffc0502058da:	fef43423          	sd	a5,-24(s0)
ffffffc0502058de:	fe843783          	ld	a5,-24(s0)
ffffffc0502058e2:	639c                	ld	a5,0(a5)
ffffffc0502058e4:	8b85                	andi	a5,a5,1
ffffffc0502058e6:	e3a5                	bnez	a5,ffffffc050205946 <shm_page_get+0x264>
ffffffc0502058e8:	9c5ff0ef          	jal	ra,ffffffc0502052ac <allocPage>
ffffffc0502058ec:	f4a43823          	sd	a0,-176(s0)
ffffffc0502058f0:	f5043503          	ld	a0,-176(s0)
ffffffc0502058f4:	8bbff0ef          	jal	ra,ffffffc0502051ae <kva2pa>
ffffffc0502058f8:	f4a43423          	sd	a0,-184(s0)
ffffffc0502058fc:	f4843783          	ld	a5,-184(s0)
ffffffc050205900:	83b1                	srli	a5,a5,0xc
ffffffc050205902:	00a79713          	slli	a4,a5,0xa
ffffffc050205906:	fe843783          	ld	a5,-24(s0)
ffffffc05020590a:	e398                	sd	a4,0(a5)
ffffffc05020590c:	4585                	li	a1,1
ffffffc05020590e:	fe843503          	ld	a0,-24(s0)
ffffffc050205912:	935ff0ef          	jal	ra,ffffffc050205246 <set_attribute>
ffffffc050205916:	fe843783          	ld	a5,-24(s0)
ffffffc05020591a:	639c                	ld	a5,0(a5)
ffffffc05020591c:	853e                	mv	a0,a5
ffffffc05020591e:	8c9ff0ef          	jal	ra,ffffffc0502051e6 <get_pa>
ffffffc050205922:	87aa                	mv	a5,a0
ffffffc050205924:	853e                	mv	a0,a5
ffffffc050205926:	8a5ff0ef          	jal	ra,ffffffc0502051ca <pa2kva>
ffffffc05020592a:	87aa                	mv	a5,a0
ffffffc05020592c:	853e                	mv	a0,a5
ffffffc05020592e:	941ff0ef          	jal	ra,ffffffc05020526e <clear_pgdir>
ffffffc050205932:	fa043783          	ld	a5,-96(s0)
ffffffc050205936:	00379713          	slli	a4,a5,0x3
ffffffc05020593a:	f5043783          	ld	a5,-176(s0)
ffffffc05020593e:	97ba                	add	a5,a5,a4
ffffffc050205940:	fef43023          	sd	a5,-32(s0)
ffffffc050205944:	a03d                	j	ffffffc050205972 <shm_page_get+0x290>
ffffffc050205946:	fe843783          	ld	a5,-24(s0)
ffffffc05020594a:	639c                	ld	a5,0(a5)
ffffffc05020594c:	83a9                	srli	a5,a5,0xa
ffffffc05020594e:	07b2                	slli	a5,a5,0xc
ffffffc050205950:	f6f43023          	sd	a5,-160(s0)
ffffffc050205954:	f6043503          	ld	a0,-160(s0)
ffffffc050205958:	873ff0ef          	jal	ra,ffffffc0502051ca <pa2kva>
ffffffc05020595c:	f4a43c23          	sd	a0,-168(s0)
ffffffc050205960:	fa043783          	ld	a5,-96(s0)
ffffffc050205964:	00379713          	slli	a4,a5,0x3
ffffffc050205968:	f5843783          	ld	a5,-168(s0)
ffffffc05020596c:	97ba                	add	a5,a5,a4
ffffffc05020596e:	fef43023          	sd	a5,-32(s0)
ffffffc050205972:	fe043783          	ld	a5,-32(s0)
ffffffc050205976:	639c                	ld	a5,0(a5)
ffffffc050205978:	8b85                	andi	a5,a5,1
ffffffc05020597a:	c399                	beqz	a5,ffffffc050205980 <shm_page_get+0x29e>
ffffffc05020597c:	4781                	li	a5,0
ffffffc05020597e:	a875                	j	ffffffc050205a3a <shm_page_get+0x358>
ffffffc050205980:	fb843783          	ld	a5,-72(s0)
ffffffc050205984:	f4f43023          	sd	a5,-192(s0)
ffffffc050205988:	f4043783          	ld	a5,-192(s0)
ffffffc05020598c:	83b1                	srli	a5,a5,0xc
ffffffc05020598e:	85be                	mv	a1,a5
ffffffc050205990:	fe043503          	ld	a0,-32(s0)
ffffffc050205994:	881ff0ef          	jal	ra,ffffffc050205214 <set_pfn>
ffffffc050205998:	0df00593          	li	a1,223
ffffffc05020599c:	fe043503          	ld	a0,-32(s0)
ffffffc0502059a0:	8a7ff0ef          	jal	ra,ffffffc050205246 <set_attribute>
ffffffc0502059a4:	00048717          	auipc	a4,0x48
ffffffc0502059a8:	d8c70713          	addi	a4,a4,-628 # ffffffc05024d730 <shm>
ffffffc0502059ac:	fcc42683          	lw	a3,-52(s0)
ffffffc0502059b0:	05800793          	li	a5,88
ffffffc0502059b4:	02f687b3          	mul	a5,a3,a5
ffffffc0502059b8:	97ba                	add	a5,a5,a4
ffffffc0502059ba:	439c                	lw	a5,0(a5)
ffffffc0502059bc:	873e                	mv	a4,a5
ffffffc0502059be:	4785                	li	a5,1
ffffffc0502059c0:	06f71b63          	bne	a4,a5,ffffffc050205a36 <shm_page_get+0x354>
ffffffc0502059c4:	00048717          	auipc	a4,0x48
ffffffc0502059c8:	d6c70713          	addi	a4,a4,-660 # ffffffc05024d730 <shm>
ffffffc0502059cc:	fcc42683          	lw	a3,-52(s0)
ffffffc0502059d0:	05800793          	li	a5,88
ffffffc0502059d4:	02f687b3          	mul	a5,a3,a5
ffffffc0502059d8:	97ba                	add	a5,a5,a4
ffffffc0502059da:	43dc                	lw	a5,4(a5)
ffffffc0502059dc:	efa9                	bnez	a5,ffffffc050205a36 <shm_page_get+0x354>
ffffffc0502059de:	fb843503          	ld	a0,-72(s0)
ffffffc0502059e2:	fe8ff0ef          	jal	ra,ffffffc0502051ca <pa2kva>
ffffffc0502059e6:	f2a43c23          	sd	a0,-200(s0)
ffffffc0502059ea:	fc042e23          	sw	zero,-36(s0)
ffffffc0502059ee:	a839                	j	ffffffc050205a0c <shm_page_get+0x32a>
ffffffc0502059f0:	fdc42783          	lw	a5,-36(s0)
ffffffc0502059f4:	00379713          	slli	a4,a5,0x3
ffffffc0502059f8:	f3843783          	ld	a5,-200(s0)
ffffffc0502059fc:	97ba                	add	a5,a5,a4
ffffffc0502059fe:	0007b023          	sd	zero,0(a5)
ffffffc050205a02:	fdc42783          	lw	a5,-36(s0)
ffffffc050205a06:	2785                	addiw	a5,a5,1
ffffffc050205a08:	fcf42e23          	sw	a5,-36(s0)
ffffffc050205a0c:	fdc42783          	lw	a5,-36(s0)
ffffffc050205a10:	0007871b          	sext.w	a4,a5
ffffffc050205a14:	1ff00793          	li	a5,511
ffffffc050205a18:	fce7dce3          	bge	a5,a4,ffffffc0502059f0 <shm_page_get+0x30e>
ffffffc050205a1c:	00048717          	auipc	a4,0x48
ffffffc050205a20:	d1470713          	addi	a4,a4,-748 # ffffffc05024d730 <shm>
ffffffc050205a24:	fcc42683          	lw	a3,-52(s0)
ffffffc050205a28:	05800793          	li	a5,88
ffffffc050205a2c:	02f687b3          	mul	a5,a3,a5
ffffffc050205a30:	97ba                	add	a5,a5,a4
ffffffc050205a32:	4705                	li	a4,1
ffffffc050205a34:	c3d8                	sw	a4,4(a5)
ffffffc050205a36:	fc043783          	ld	a5,-64(s0)
ffffffc050205a3a:	853e                	mv	a0,a5
ffffffc050205a3c:	60ee                	ld	ra,216(sp)
ffffffc050205a3e:	644e                	ld	s0,208(sp)
ffffffc050205a40:	612d                	addi	sp,sp,224
ffffffc050205a42:	8082                	ret

ffffffc050205a44 <shm_page_dt>:
ffffffc050205a44:	7139                	addi	sp,sp,-64
ffffffc050205a46:	fc06                	sd	ra,56(sp)
ffffffc050205a48:	f822                	sd	s0,48(sp)
ffffffc050205a4a:	0080                	addi	s0,sp,64
ffffffc050205a4c:	fca43423          	sd	a0,-56(s0)
ffffffc050205a50:	f5cfc0ef          	jal	ra,ffffffc0502021ac <get_current_cpu_id>
ffffffc050205a54:	fca43c23          	sd	a0,-40(s0)
ffffffc050205a58:	fe042623          	sw	zero,-20(s0)
ffffffc050205a5c:	fe042423          	sw	zero,-24(s0)
ffffffc050205a60:	fe042223          	sw	zero,-28(s0)
ffffffc050205a64:	fe042023          	sw	zero,-32(s0)
ffffffc050205a68:	fe042423          	sw	zero,-24(s0)
ffffffc050205a6c:	a0b5                	j	ffffffc050205ad8 <shm_page_dt+0x94>
ffffffc050205a6e:	fe042223          	sw	zero,-28(s0)
ffffffc050205a72:	a099                	j	ffffffc050205ab8 <shm_page_dt+0x74>
ffffffc050205a74:	00048697          	auipc	a3,0x48
ffffffc050205a78:	cbc68693          	addi	a3,a3,-836 # ffffffc05024d730 <shm>
ffffffc050205a7c:	fe442603          	lw	a2,-28(s0)
ffffffc050205a80:	fe842703          	lw	a4,-24(s0)
ffffffc050205a84:	87ba                	mv	a5,a4
ffffffc050205a86:	0786                	slli	a5,a5,0x1
ffffffc050205a88:	97ba                	add	a5,a5,a4
ffffffc050205a8a:	078a                	slli	a5,a5,0x2
ffffffc050205a8c:	8f99                	sub	a5,a5,a4
ffffffc050205a8e:	97b2                	add	a5,a5,a2
ffffffc050205a90:	078e                	slli	a5,a5,0x3
ffffffc050205a92:	97b6                	add	a5,a5,a3
ffffffc050205a94:	679c                	ld	a5,8(a5)
ffffffc050205a96:	fc843703          	ld	a4,-56(s0)
ffffffc050205a9a:	00f71a63          	bne	a4,a5,ffffffc050205aae <shm_page_dt+0x6a>
ffffffc050205a9e:	fe842783          	lw	a5,-24(s0)
ffffffc050205aa2:	fef42623          	sw	a5,-20(s0)
ffffffc050205aa6:	4785                	li	a5,1
ffffffc050205aa8:	fef42023          	sw	a5,-32(s0)
ffffffc050205aac:	a829                	j	ffffffc050205ac6 <shm_page_dt+0x82>
ffffffc050205aae:	fe442783          	lw	a5,-28(s0)
ffffffc050205ab2:	2785                	addiw	a5,a5,1
ffffffc050205ab4:	fef42223          	sw	a5,-28(s0)
ffffffc050205ab8:	fe442783          	lw	a5,-28(s0)
ffffffc050205abc:	0007871b          	sext.w	a4,a5
ffffffc050205ac0:	47a5                	li	a5,9
ffffffc050205ac2:	fae7d9e3          	bge	a5,a4,ffffffc050205a74 <shm_page_dt+0x30>
ffffffc050205ac6:	fe042783          	lw	a5,-32(s0)
ffffffc050205aca:	2781                	sext.w	a5,a5
ffffffc050205acc:	ef91                	bnez	a5,ffffffc050205ae8 <shm_page_dt+0xa4>
ffffffc050205ace:	fe842783          	lw	a5,-24(s0)
ffffffc050205ad2:	2785                	addiw	a5,a5,1
ffffffc050205ad4:	fef42423          	sw	a5,-24(s0)
ffffffc050205ad8:	fe842783          	lw	a5,-24(s0)
ffffffc050205adc:	0007871b          	sext.w	a4,a5
ffffffc050205ae0:	47cd                	li	a5,19
ffffffc050205ae2:	f8e7d6e3          	bge	a5,a4,ffffffc050205a6e <shm_page_dt+0x2a>
ffffffc050205ae6:	a011                	j	ffffffc050205aea <shm_page_dt+0xa6>
ffffffc050205ae8:	0001                	nop
ffffffc050205aea:	0004b717          	auipc	a4,0x4b
ffffffc050205aee:	7fe70713          	addi	a4,a4,2046 # ffffffc0502512e8 <next_running>
ffffffc050205af2:	fd843783          	ld	a5,-40(s0)
ffffffc050205af6:	078e                	slli	a5,a5,0x3
ffffffc050205af8:	97ba                	add	a5,a5,a4
ffffffc050205afa:	639c                	ld	a5,0(a5)
ffffffc050205afc:	77fc                	ld	a5,232(a5)
ffffffc050205afe:	853e                	mv	a0,a5
ffffffc050205b00:	ecaff0ef          	jal	ra,ffffffc0502051ca <pa2kva>
ffffffc050205b04:	87aa                	mv	a5,a0
ffffffc050205b06:	85be                	mv	a1,a5
ffffffc050205b08:	fc843503          	ld	a0,-56(s0)
ffffffc050205b0c:	af9ff0ef          	jal	ra,ffffffc050205604 <walk_pgdir>
ffffffc050205b10:	87aa                	mv	a5,a0
ffffffc050205b12:	fcf43823          	sd	a5,-48(s0)
ffffffc050205b16:	fd043783          	ld	a5,-48(s0)
ffffffc050205b1a:	e799                	bnez	a5,ffffffc050205b28 <shm_page_dt+0xe4>
ffffffc050205b1c:	00005517          	auipc	a0,0x5
ffffffc050205b20:	91450513          	addi	a0,a0,-1772 # ffffffc05020a430 <__FUNCTION__.1603+0x10>
ffffffc050205b24:	723030ef          	jal	ra,ffffffc050209a46 <printk>
ffffffc050205b28:	fd043783          	ld	a5,-48(s0)
ffffffc050205b2c:	0007b023          	sd	zero,0(a5)
ffffffc050205b30:	00048697          	auipc	a3,0x48
ffffffc050205b34:	c0068693          	addi	a3,a3,-1024 # ffffffc05024d730 <shm>
ffffffc050205b38:	fe442603          	lw	a2,-28(s0)
ffffffc050205b3c:	fec42703          	lw	a4,-20(s0)
ffffffc050205b40:	87ba                	mv	a5,a4
ffffffc050205b42:	0786                	slli	a5,a5,0x1
ffffffc050205b44:	97ba                	add	a5,a5,a4
ffffffc050205b46:	078a                	slli	a5,a5,0x2
ffffffc050205b48:	8f99                	sub	a5,a5,a4
ffffffc050205b4a:	97b2                	add	a5,a5,a2
ffffffc050205b4c:	078e                	slli	a5,a5,0x3
ffffffc050205b4e:	97b6                	add	a5,a5,a3
ffffffc050205b50:	0007b423          	sd	zero,8(a5)
ffffffc050205b54:	00048717          	auipc	a4,0x48
ffffffc050205b58:	bdc70713          	addi	a4,a4,-1060 # ffffffc05024d730 <shm>
ffffffc050205b5c:	fec42683          	lw	a3,-20(s0)
ffffffc050205b60:	05800793          	li	a5,88
ffffffc050205b64:	02f687b3          	mul	a5,a3,a5
ffffffc050205b68:	97ba                	add	a5,a5,a4
ffffffc050205b6a:	439c                	lw	a5,0(a5)
ffffffc050205b6c:	37fd                	addiw	a5,a5,-1
ffffffc050205b6e:	0007871b          	sext.w	a4,a5
ffffffc050205b72:	00048697          	auipc	a3,0x48
ffffffc050205b76:	bbe68693          	addi	a3,a3,-1090 # ffffffc05024d730 <shm>
ffffffc050205b7a:	fec42603          	lw	a2,-20(s0)
ffffffc050205b7e:	05800793          	li	a5,88
ffffffc050205b82:	02f607b3          	mul	a5,a2,a5
ffffffc050205b86:	97b6                	add	a5,a5,a3
ffffffc050205b88:	c398                	sw	a4,0(a5)
ffffffc050205b8a:	00048717          	auipc	a4,0x48
ffffffc050205b8e:	ba670713          	addi	a4,a4,-1114 # ffffffc05024d730 <shm>
ffffffc050205b92:	fec42683          	lw	a3,-20(s0)
ffffffc050205b96:	05800793          	li	a5,88
ffffffc050205b9a:	02f687b3          	mul	a5,a3,a5
ffffffc050205b9e:	97ba                	add	a5,a5,a4
ffffffc050205ba0:	439c                	lw	a5,0(a5)
ffffffc050205ba2:	ef91                	bnez	a5,ffffffc050205bbe <shm_page_dt+0x17a>
ffffffc050205ba4:	00048717          	auipc	a4,0x48
ffffffc050205ba8:	b8c70713          	addi	a4,a4,-1140 # ffffffc05024d730 <shm>
ffffffc050205bac:	fec42683          	lw	a3,-20(s0)
ffffffc050205bb0:	05800793          	li	a5,88
ffffffc050205bb4:	02f687b3          	mul	a5,a3,a5
ffffffc050205bb8:	97ba                	add	a5,a5,a4
ffffffc050205bba:	0007a223          	sw	zero,4(a5)
ffffffc050205bbe:	0001                	nop
ffffffc050205bc0:	70e2                	ld	ra,56(sp)
ffffffc050205bc2:	7442                	ld	s0,48(sp)
ffffffc050205bc4:	6121                	addi	sp,sp,64
ffffffc050205bc6:	8082                	ret

ffffffc050205bc8 <local_flush_tlb_all>:
ffffffc050205bc8:	1141                	addi	sp,sp,-16
ffffffc050205bca:	e422                	sd	s0,8(sp)
ffffffc050205bcc:	0800                	addi	s0,sp,16
ffffffc050205bce:	12000073          	sfence.vma
ffffffc050205bd2:	0001                	nop
ffffffc050205bd4:	6422                	ld	s0,8(sp)
ffffffc050205bd6:	0141                	addi	sp,sp,16
ffffffc050205bd8:	8082                	ret

ffffffc050205bda <kva2pa>:
ffffffc050205bda:	1101                	addi	sp,sp,-32
ffffffc050205bdc:	ec22                	sd	s0,24(sp)
ffffffc050205bde:	1000                	addi	s0,sp,32
ffffffc050205be0:	fea43423          	sd	a0,-24(s0)
ffffffc050205be4:	fe843703          	ld	a4,-24(s0)
ffffffc050205be8:	4785                	li	a5,1
ffffffc050205bea:	179a                	slli	a5,a5,0x26
ffffffc050205bec:	97ba                	add	a5,a5,a4
ffffffc050205bee:	853e                	mv	a0,a5
ffffffc050205bf0:	6462                	ld	s0,24(sp)
ffffffc050205bf2:	6105                	addi	sp,sp,32
ffffffc050205bf4:	8082                	ret

ffffffc050205bf6 <pa2kva>:
ffffffc050205bf6:	1101                	addi	sp,sp,-32
ffffffc050205bf8:	ec22                	sd	s0,24(sp)
ffffffc050205bfa:	1000                	addi	s0,sp,32
ffffffc050205bfc:	fea43423          	sd	a0,-24(s0)
ffffffc050205c00:	fe843703          	ld	a4,-24(s0)
ffffffc050205c04:	57fd                	li	a5,-1
ffffffc050205c06:	179a                	slli	a5,a5,0x26
ffffffc050205c08:	97ba                	add	a5,a5,a4
ffffffc050205c0a:	853e                	mv	a0,a5
ffffffc050205c0c:	6462                	ld	s0,24(sp)
ffffffc050205c0e:	6105                	addi	sp,sp,32
ffffffc050205c10:	8082                	ret

ffffffc050205c12 <get_pa>:
ffffffc050205c12:	7179                	addi	sp,sp,-48
ffffffc050205c14:	f422                	sd	s0,40(sp)
ffffffc050205c16:	1800                	addi	s0,sp,48
ffffffc050205c18:	fca43c23          	sd	a0,-40(s0)
ffffffc050205c1c:	57fd                	li	a5,-1
ffffffc050205c1e:	fef43423          	sd	a5,-24(s0)
ffffffc050205c22:	fd843703          	ld	a4,-40(s0)
ffffffc050205c26:	fe843783          	ld	a5,-24(s0)
ffffffc050205c2a:	8ff9                	and	a5,a5,a4
ffffffc050205c2c:	83a9                	srli	a5,a5,0xa
ffffffc050205c2e:	07b2                	slli	a5,a5,0xc
ffffffc050205c30:	fef43023          	sd	a5,-32(s0)
ffffffc050205c34:	fe043783          	ld	a5,-32(s0)
ffffffc050205c38:	853e                	mv	a0,a5
ffffffc050205c3a:	7422                	ld	s0,40(sp)
ffffffc050205c3c:	6145                	addi	sp,sp,48
ffffffc050205c3e:	8082                	ret

ffffffc050205c40 <set_pfn>:
ffffffc050205c40:	7179                	addi	sp,sp,-48
ffffffc050205c42:	f422                	sd	s0,40(sp)
ffffffc050205c44:	1800                	addi	s0,sp,48
ffffffc050205c46:	fca43c23          	sd	a0,-40(s0)
ffffffc050205c4a:	fcb43823          	sd	a1,-48(s0)
ffffffc050205c4e:	c0000793          	li	a5,-1024
ffffffc050205c52:	fef43423          	sd	a5,-24(s0)
ffffffc050205c56:	fd043783          	ld	a5,-48(s0)
ffffffc050205c5a:	00a79713          	slli	a4,a5,0xa
ffffffc050205c5e:	fe843783          	ld	a5,-24(s0)
ffffffc050205c62:	8f7d                	and	a4,a4,a5
ffffffc050205c64:	fd843783          	ld	a5,-40(s0)
ffffffc050205c68:	e398                	sd	a4,0(a5)
ffffffc050205c6a:	0001                	nop
ffffffc050205c6c:	7422                	ld	s0,40(sp)
ffffffc050205c6e:	6145                	addi	sp,sp,48
ffffffc050205c70:	8082                	ret

ffffffc050205c72 <set_attribute>:
ffffffc050205c72:	1101                	addi	sp,sp,-32
ffffffc050205c74:	ec22                	sd	s0,24(sp)
ffffffc050205c76:	1000                	addi	s0,sp,32
ffffffc050205c78:	fea43423          	sd	a0,-24(s0)
ffffffc050205c7c:	feb43023          	sd	a1,-32(s0)
ffffffc050205c80:	fe843783          	ld	a5,-24(s0)
ffffffc050205c84:	6398                	ld	a4,0(a5)
ffffffc050205c86:	fe043783          	ld	a5,-32(s0)
ffffffc050205c8a:	8f5d                	or	a4,a4,a5
ffffffc050205c8c:	fe843783          	ld	a5,-24(s0)
ffffffc050205c90:	e398                	sd	a4,0(a5)
ffffffc050205c92:	0001                	nop
ffffffc050205c94:	6462                	ld	s0,24(sp)
ffffffc050205c96:	6105                	addi	sp,sp,32
ffffffc050205c98:	8082                	ret

ffffffc050205c9a <clear_pgdir>:
ffffffc050205c9a:	7179                	addi	sp,sp,-48
ffffffc050205c9c:	f422                	sd	s0,40(sp)
ffffffc050205c9e:	1800                	addi	s0,sp,48
ffffffc050205ca0:	fca43c23          	sd	a0,-40(s0)
ffffffc050205ca4:	fe042623          	sw	zero,-20(s0)
ffffffc050205ca8:	a829                	j	ffffffc050205cc2 <clear_pgdir+0x28>
ffffffc050205caa:	fec42703          	lw	a4,-20(s0)
ffffffc050205cae:	fd843783          	ld	a5,-40(s0)
ffffffc050205cb2:	97ba                	add	a5,a5,a4
ffffffc050205cb4:	0007b023          	sd	zero,0(a5)
ffffffc050205cb8:	fec42783          	lw	a5,-20(s0)
ffffffc050205cbc:	27a1                	addiw	a5,a5,8
ffffffc050205cbe:	fef42623          	sw	a5,-20(s0)
ffffffc050205cc2:	fec42783          	lw	a5,-20(s0)
ffffffc050205cc6:	873e                	mv	a4,a5
ffffffc050205cc8:	6785                	lui	a5,0x1
ffffffc050205cca:	fef760e3          	bltu	a4,a5,ffffffc050205caa <clear_pgdir+0x10>
ffffffc050205cce:	0001                	nop
ffffffc050205cd0:	0001                	nop
ffffffc050205cd2:	7422                	ld	s0,40(sp)
ffffffc050205cd4:	6145                	addi	sp,sp,48
ffffffc050205cd6:	8082                	ret

ffffffc050205cd8 <ioremap>:
ffffffc050205cd8:	7171                	addi	sp,sp,-176
ffffffc050205cda:	f506                	sd	ra,168(sp)
ffffffc050205cdc:	f122                	sd	s0,160(sp)
ffffffc050205cde:	1900                	addi	s0,sp,176
ffffffc050205ce0:	f4a43c23          	sd	a0,-168(s0)
ffffffc050205ce4:	f4b43823          	sd	a1,-176(s0)
ffffffc050205ce8:	fc0517b7          	lui	a5,0xfc051
ffffffc050205cec:	07b2                	slli	a5,a5,0xc
ffffffc050205cee:	fcf43423          	sd	a5,-56(s0)
ffffffc050205cf2:	fe043423          	sd	zero,-24(s0)
ffffffc050205cf6:	fe042223          	sw	zero,-28(s0)
ffffffc050205cfa:	aacd                	j	ffffffc050205eec <ioremap+0x214>
ffffffc050205cfc:	00005797          	auipc	a5,0x5
ffffffc050205d00:	ca478793          	addi	a5,a5,-860 # ffffffc05020a9a0 <io_base>
ffffffc050205d04:	639c                	ld	a5,0(a5)
ffffffc050205d06:	fcf43023          	sd	a5,-64(s0)
ffffffc050205d0a:	fc043703          	ld	a4,-64(s0)
ffffffc050205d0e:	57fd                	li	a5,-1
ffffffc050205d10:	83e5                	srli	a5,a5,0x19
ffffffc050205d12:	8ff9                	and	a5,a5,a4
ffffffc050205d14:	fcf43023          	sd	a5,-64(s0)
ffffffc050205d18:	fc043783          	ld	a5,-64(s0)
ffffffc050205d1c:	83b1                	srli	a5,a5,0xc
ffffffc050205d1e:	1ff7f793          	andi	a5,a5,511
ffffffc050205d22:	faf43c23          	sd	a5,-72(s0)
ffffffc050205d26:	fc043783          	ld	a5,-64(s0)
ffffffc050205d2a:	83d5                	srli	a5,a5,0x15
ffffffc050205d2c:	1ff7f793          	andi	a5,a5,511
ffffffc050205d30:	faf43823          	sd	a5,-80(s0)
ffffffc050205d34:	fc043783          	ld	a5,-64(s0)
ffffffc050205d38:	83f9                	srli	a5,a5,0x1e
ffffffc050205d3a:	1ff7f793          	andi	a5,a5,511
ffffffc050205d3e:	faf43423          	sd	a5,-88(s0)
ffffffc050205d42:	fa843783          	ld	a5,-88(s0)
ffffffc050205d46:	00379713          	slli	a4,a5,0x3
ffffffc050205d4a:	fc843783          	ld	a5,-56(s0)
ffffffc050205d4e:	97ba                	add	a5,a5,a4
ffffffc050205d50:	faf43023          	sd	a5,-96(s0)
ffffffc050205d54:	fc043c23          	sd	zero,-40(s0)
ffffffc050205d58:	fc043823          	sd	zero,-48(s0)
ffffffc050205d5c:	fa043783          	ld	a5,-96(s0)
ffffffc050205d60:	639c                	ld	a5,0(a5)
ffffffc050205d62:	8b85                	andi	a5,a5,1
ffffffc050205d64:	e3a5                	bnez	a5,ffffffc050205dc4 <ioremap+0xec>
ffffffc050205d66:	d46ff0ef          	jal	ra,ffffffc0502052ac <allocPage>
ffffffc050205d6a:	f8a43423          	sd	a0,-120(s0)
ffffffc050205d6e:	f8843503          	ld	a0,-120(s0)
ffffffc050205d72:	e69ff0ef          	jal	ra,ffffffc050205bda <kva2pa>
ffffffc050205d76:	f8a43023          	sd	a0,-128(s0)
ffffffc050205d7a:	f8043783          	ld	a5,-128(s0)
ffffffc050205d7e:	83b1                	srli	a5,a5,0xc
ffffffc050205d80:	00a79713          	slli	a4,a5,0xa
ffffffc050205d84:	fa043783          	ld	a5,-96(s0)
ffffffc050205d88:	e398                	sd	a4,0(a5)
ffffffc050205d8a:	4585                	li	a1,1
ffffffc050205d8c:	fa043503          	ld	a0,-96(s0)
ffffffc050205d90:	ee3ff0ef          	jal	ra,ffffffc050205c72 <set_attribute>
ffffffc050205d94:	fa043783          	ld	a5,-96(s0)
ffffffc050205d98:	639c                	ld	a5,0(a5)
ffffffc050205d9a:	853e                	mv	a0,a5
ffffffc050205d9c:	e77ff0ef          	jal	ra,ffffffc050205c12 <get_pa>
ffffffc050205da0:	87aa                	mv	a5,a0
ffffffc050205da2:	853e                	mv	a0,a5
ffffffc050205da4:	e53ff0ef          	jal	ra,ffffffc050205bf6 <pa2kva>
ffffffc050205da8:	87aa                	mv	a5,a0
ffffffc050205daa:	853e                	mv	a0,a5
ffffffc050205dac:	eefff0ef          	jal	ra,ffffffc050205c9a <clear_pgdir>
ffffffc050205db0:	fb043783          	ld	a5,-80(s0)
ffffffc050205db4:	00379713          	slli	a4,a5,0x3
ffffffc050205db8:	f8843783          	ld	a5,-120(s0)
ffffffc050205dbc:	97ba                	add	a5,a5,a4
ffffffc050205dbe:	fcf43c23          	sd	a5,-40(s0)
ffffffc050205dc2:	a03d                	j	ffffffc050205df0 <ioremap+0x118>
ffffffc050205dc4:	fa043783          	ld	a5,-96(s0)
ffffffc050205dc8:	639c                	ld	a5,0(a5)
ffffffc050205dca:	83a9                	srli	a5,a5,0xa
ffffffc050205dcc:	07b2                	slli	a5,a5,0xc
ffffffc050205dce:	f8f43c23          	sd	a5,-104(s0)
ffffffc050205dd2:	f9843503          	ld	a0,-104(s0)
ffffffc050205dd6:	e21ff0ef          	jal	ra,ffffffc050205bf6 <pa2kva>
ffffffc050205dda:	f8a43823          	sd	a0,-112(s0)
ffffffc050205dde:	fb043783          	ld	a5,-80(s0)
ffffffc050205de2:	00379713          	slli	a4,a5,0x3
ffffffc050205de6:	f9043783          	ld	a5,-112(s0)
ffffffc050205dea:	97ba                	add	a5,a5,a4
ffffffc050205dec:	fcf43c23          	sd	a5,-40(s0)
ffffffc050205df0:	fd843783          	ld	a5,-40(s0)
ffffffc050205df4:	639c                	ld	a5,0(a5)
ffffffc050205df6:	8b85                	andi	a5,a5,1
ffffffc050205df8:	e3a5                	bnez	a5,ffffffc050205e58 <ioremap+0x180>
ffffffc050205dfa:	cb2ff0ef          	jal	ra,ffffffc0502052ac <allocPage>
ffffffc050205dfe:	f6a43423          	sd	a0,-152(s0)
ffffffc050205e02:	f6843503          	ld	a0,-152(s0)
ffffffc050205e06:	dd5ff0ef          	jal	ra,ffffffc050205bda <kva2pa>
ffffffc050205e0a:	f6a43023          	sd	a0,-160(s0)
ffffffc050205e0e:	f6043783          	ld	a5,-160(s0)
ffffffc050205e12:	83b1                	srli	a5,a5,0xc
ffffffc050205e14:	00a79713          	slli	a4,a5,0xa
ffffffc050205e18:	fd843783          	ld	a5,-40(s0)
ffffffc050205e1c:	e398                	sd	a4,0(a5)
ffffffc050205e1e:	4585                	li	a1,1
ffffffc050205e20:	fd843503          	ld	a0,-40(s0)
ffffffc050205e24:	e4fff0ef          	jal	ra,ffffffc050205c72 <set_attribute>
ffffffc050205e28:	fd843783          	ld	a5,-40(s0)
ffffffc050205e2c:	639c                	ld	a5,0(a5)
ffffffc050205e2e:	853e                	mv	a0,a5
ffffffc050205e30:	de3ff0ef          	jal	ra,ffffffc050205c12 <get_pa>
ffffffc050205e34:	87aa                	mv	a5,a0
ffffffc050205e36:	853e                	mv	a0,a5
ffffffc050205e38:	dbfff0ef          	jal	ra,ffffffc050205bf6 <pa2kva>
ffffffc050205e3c:	87aa                	mv	a5,a0
ffffffc050205e3e:	853e                	mv	a0,a5
ffffffc050205e40:	e5bff0ef          	jal	ra,ffffffc050205c9a <clear_pgdir>
ffffffc050205e44:	fb843783          	ld	a5,-72(s0)
ffffffc050205e48:	00379713          	slli	a4,a5,0x3
ffffffc050205e4c:	f6843783          	ld	a5,-152(s0)
ffffffc050205e50:	97ba                	add	a5,a5,a4
ffffffc050205e52:	fcf43823          	sd	a5,-48(s0)
ffffffc050205e56:	a03d                	j	ffffffc050205e84 <ioremap+0x1ac>
ffffffc050205e58:	fd843783          	ld	a5,-40(s0)
ffffffc050205e5c:	639c                	ld	a5,0(a5)
ffffffc050205e5e:	83a9                	srli	a5,a5,0xa
ffffffc050205e60:	07b2                	slli	a5,a5,0xc
ffffffc050205e62:	f6f43c23          	sd	a5,-136(s0)
ffffffc050205e66:	f7843503          	ld	a0,-136(s0)
ffffffc050205e6a:	d8dff0ef          	jal	ra,ffffffc050205bf6 <pa2kva>
ffffffc050205e6e:	f6a43823          	sd	a0,-144(s0)
ffffffc050205e72:	fb843783          	ld	a5,-72(s0)
ffffffc050205e76:	00379713          	slli	a4,a5,0x3
ffffffc050205e7a:	f7043783          	ld	a5,-144(s0)
ffffffc050205e7e:	97ba                	add	a5,a5,a4
ffffffc050205e80:	fcf43823          	sd	a5,-48(s0)
ffffffc050205e84:	f5843783          	ld	a5,-168(s0)
ffffffc050205e88:	83b1                	srli	a5,a5,0xc
ffffffc050205e8a:	85be                	mv	a1,a5
ffffffc050205e8c:	fd043503          	ld	a0,-48(s0)
ffffffc050205e90:	db1ff0ef          	jal	ra,ffffffc050205c40 <set_pfn>
ffffffc050205e94:	0cf00593          	li	a1,207
ffffffc050205e98:	fd043503          	ld	a0,-48(s0)
ffffffc050205e9c:	dd7ff0ef          	jal	ra,ffffffc050205c72 <set_attribute>
ffffffc050205ea0:	fe442783          	lw	a5,-28(s0)
ffffffc050205ea4:	2781                	sext.w	a5,a5
ffffffc050205ea6:	eb99                	bnez	a5,ffffffc050205ebc <ioremap+0x1e4>
ffffffc050205ea8:	4785                	li	a5,1
ffffffc050205eaa:	fef42223          	sw	a5,-28(s0)
ffffffc050205eae:	00005797          	auipc	a5,0x5
ffffffc050205eb2:	af278793          	addi	a5,a5,-1294 # ffffffc05020a9a0 <io_base>
ffffffc050205eb6:	639c                	ld	a5,0(a5)
ffffffc050205eb8:	fef43423          	sd	a5,-24(s0)
ffffffc050205ebc:	f5843703          	ld	a4,-168(s0)
ffffffc050205ec0:	6785                	lui	a5,0x1
ffffffc050205ec2:	97ba                	add	a5,a5,a4
ffffffc050205ec4:	f4f43c23          	sd	a5,-168(s0)
ffffffc050205ec8:	f5043703          	ld	a4,-176(s0)
ffffffc050205ecc:	77fd                	lui	a5,0xfffff
ffffffc050205ece:	97ba                	add	a5,a5,a4
ffffffc050205ed0:	f4f43823          	sd	a5,-176(s0)
ffffffc050205ed4:	00005797          	auipc	a5,0x5
ffffffc050205ed8:	acc78793          	addi	a5,a5,-1332 # ffffffc05020a9a0 <io_base>
ffffffc050205edc:	6398                	ld	a4,0(a5)
ffffffc050205ede:	6785                	lui	a5,0x1
ffffffc050205ee0:	973e                	add	a4,a4,a5
ffffffc050205ee2:	00005797          	auipc	a5,0x5
ffffffc050205ee6:	abe78793          	addi	a5,a5,-1346 # ffffffc05020a9a0 <io_base>
ffffffc050205eea:	e398                	sd	a4,0(a5)
ffffffc050205eec:	f5043783          	ld	a5,-176(s0)
ffffffc050205ef0:	e00796e3          	bnez	a5,ffffffc050205cfc <ioremap+0x24>
ffffffc050205ef4:	cd5ff0ef          	jal	ra,ffffffc050205bc8 <local_flush_tlb_all>
ffffffc050205ef8:	fe843783          	ld	a5,-24(s0)
ffffffc050205efc:	853e                	mv	a0,a5
ffffffc050205efe:	70aa                	ld	ra,168(sp)
ffffffc050205f00:	740a                	ld	s0,160(sp)
ffffffc050205f02:	614d                	addi	sp,sp,176
ffffffc050205f04:	8082                	ret

ffffffc050205f06 <iounmap>:
ffffffc050205f06:	1101                	addi	sp,sp,-32
ffffffc050205f08:	ec22                	sd	s0,24(sp)
ffffffc050205f0a:	1000                	addi	s0,sp,32
ffffffc050205f0c:	fea43423          	sd	a0,-24(s0)
ffffffc050205f10:	0001                	nop
ffffffc050205f12:	6462                	ld	s0,24(sp)
ffffffc050205f14:	6105                	addi	sp,sp,32
ffffffc050205f16:	8082                	ret

ffffffc050205f18 <init_locks>:
ffffffc050205f18:	1101                	addi	sp,sp,-32
ffffffc050205f1a:	ec06                	sd	ra,24(sp)
ffffffc050205f1c:	e822                	sd	s0,16(sp)
ffffffc050205f1e:	1000                	addi	s0,sp,32
ffffffc050205f20:	fe042623          	sw	zero,-20(s0)
ffffffc050205f24:	a82d                	j	ffffffc050205f5e <init_locks+0x46>
ffffffc050205f26:	00048717          	auipc	a4,0x48
ffffffc050205f2a:	6aa70713          	addi	a4,a4,1706 # ffffffc05024e5d0 <mlocks>
ffffffc050205f2e:	fec42783          	lw	a5,-20(s0)
ffffffc050205f32:	0796                	slli	a5,a5,0x5
ffffffc050205f34:	97ba                	add	a5,a5,a4
ffffffc050205f36:	0007a023          	sw	zero,0(a5)
ffffffc050205f3a:	fec42783          	lw	a5,-20(s0)
ffffffc050205f3e:	00579713          	slli	a4,a5,0x5
ffffffc050205f42:	00048797          	auipc	a5,0x48
ffffffc050205f46:	68e78793          	addi	a5,a5,1678 # ffffffc05024e5d0 <mlocks>
ffffffc050205f4a:	97ba                	add	a5,a5,a4
ffffffc050205f4c:	07a1                	addi	a5,a5,8
ffffffc050205f4e:	853e                	mv	a0,a5
ffffffc050205f50:	515020ef          	jal	ra,ffffffc050208c64 <init_list_head>
ffffffc050205f54:	fec42783          	lw	a5,-20(s0)
ffffffc050205f58:	2785                	addiw	a5,a5,1
ffffffc050205f5a:	fef42623          	sw	a5,-20(s0)
ffffffc050205f5e:	fec42783          	lw	a5,-20(s0)
ffffffc050205f62:	0007871b          	sext.w	a4,a5
ffffffc050205f66:	47bd                	li	a5,15
ffffffc050205f68:	fae7dfe3          	bge	a5,a4,ffffffc050205f26 <init_locks+0xe>
ffffffc050205f6c:	0001                	nop
ffffffc050205f6e:	0001                	nop
ffffffc050205f70:	60e2                	ld	ra,24(sp)
ffffffc050205f72:	6442                	ld	s0,16(sp)
ffffffc050205f74:	6105                	addi	sp,sp,32
ffffffc050205f76:	8082                	ret

ffffffc050205f78 <spin_lock_init>:
ffffffc050205f78:	1101                	addi	sp,sp,-32
ffffffc050205f7a:	ec22                	sd	s0,24(sp)
ffffffc050205f7c:	1000                	addi	s0,sp,32
ffffffc050205f7e:	fea43423          	sd	a0,-24(s0)
ffffffc050205f82:	0001                	nop
ffffffc050205f84:	6462                	ld	s0,24(sp)
ffffffc050205f86:	6105                	addi	sp,sp,32
ffffffc050205f88:	8082                	ret

ffffffc050205f8a <spin_lock_try_acquire>:
ffffffc050205f8a:	1101                	addi	sp,sp,-32
ffffffc050205f8c:	ec22                	sd	s0,24(sp)
ffffffc050205f8e:	1000                	addi	s0,sp,32
ffffffc050205f90:	fea43423          	sd	a0,-24(s0)
ffffffc050205f94:	4781                	li	a5,0
ffffffc050205f96:	853e                	mv	a0,a5
ffffffc050205f98:	6462                	ld	s0,24(sp)
ffffffc050205f9a:	6105                	addi	sp,sp,32
ffffffc050205f9c:	8082                	ret

ffffffc050205f9e <spin_lock_acquire>:
ffffffc050205f9e:	1101                	addi	sp,sp,-32
ffffffc050205fa0:	ec22                	sd	s0,24(sp)
ffffffc050205fa2:	1000                	addi	s0,sp,32
ffffffc050205fa4:	fea43423          	sd	a0,-24(s0)
ffffffc050205fa8:	0001                	nop
ffffffc050205faa:	6462                	ld	s0,24(sp)
ffffffc050205fac:	6105                	addi	sp,sp,32
ffffffc050205fae:	8082                	ret

ffffffc050205fb0 <spin_lock_release>:
ffffffc050205fb0:	1101                	addi	sp,sp,-32
ffffffc050205fb2:	ec22                	sd	s0,24(sp)
ffffffc050205fb4:	1000                	addi	s0,sp,32
ffffffc050205fb6:	fea43423          	sd	a0,-24(s0)
ffffffc050205fba:	0001                	nop
ffffffc050205fbc:	6462                	ld	s0,24(sp)
ffffffc050205fbe:	6105                	addi	sp,sp,32
ffffffc050205fc0:	8082                	ret

ffffffc050205fc2 <do_mutex_lock_init>:
ffffffc050205fc2:	7179                	addi	sp,sp,-48
ffffffc050205fc4:	f422                	sd	s0,40(sp)
ffffffc050205fc6:	1800                	addi	s0,sp,48
ffffffc050205fc8:	87aa                	mv	a5,a0
ffffffc050205fca:	fcf42e23          	sw	a5,-36(s0)
ffffffc050205fce:	fdc42703          	lw	a4,-36(s0)
ffffffc050205fd2:	47a9                	li	a5,10
ffffffc050205fd4:	02f767bb          	remw	a5,a4,a5
ffffffc050205fd8:	fef42623          	sw	a5,-20(s0)
ffffffc050205fdc:	fec42783          	lw	a5,-20(s0)
ffffffc050205fe0:	853e                	mv	a0,a5
ffffffc050205fe2:	7422                	ld	s0,40(sp)
ffffffc050205fe4:	6145                	addi	sp,sp,48
ffffffc050205fe6:	8082                	ret

ffffffc050205fe8 <do_mutex_lock_acquire>:
ffffffc050205fe8:	7179                	addi	sp,sp,-48
ffffffc050205fea:	f406                	sd	ra,40(sp)
ffffffc050205fec:	f022                	sd	s0,32(sp)
ffffffc050205fee:	1800                	addi	s0,sp,48
ffffffc050205ff0:	87aa                	mv	a5,a0
ffffffc050205ff2:	fcf42e23          	sw	a5,-36(s0)
ffffffc050205ff6:	9b6fc0ef          	jal	ra,ffffffc0502021ac <get_current_cpu_id>
ffffffc050205ffa:	fea43423          	sd	a0,-24(s0)
ffffffc050205ffe:	00048717          	auipc	a4,0x48
ffffffc050206002:	5d270713          	addi	a4,a4,1490 # ffffffc05024e5d0 <mlocks>
ffffffc050206006:	fdc42783          	lw	a5,-36(s0)
ffffffc05020600a:	0796                	slli	a5,a5,0x5
ffffffc05020600c:	97ba                	add	a5,a5,a4
ffffffc05020600e:	439c                	lw	a5,0(a5)
ffffffc050206010:	2781                	sext.w	a5,a5
ffffffc050206012:	873e                	mv	a4,a5
ffffffc050206014:	4785                	li	a5,1
ffffffc050206016:	02f71c63          	bne	a4,a5,ffffffc05020604e <do_mutex_lock_acquire+0x66>
ffffffc05020601a:	0004b717          	auipc	a4,0x4b
ffffffc05020601e:	2ce70713          	addi	a4,a4,718 # ffffffc0502512e8 <next_running>
ffffffc050206022:	fe843783          	ld	a5,-24(s0)
ffffffc050206026:	078e                	slli	a5,a5,0x3
ffffffc050206028:	97ba                	add	a5,a5,a4
ffffffc05020602a:	639c                	ld	a5,0(a5)
ffffffc05020602c:	02078693          	addi	a3,a5,32
ffffffc050206030:	fdc42783          	lw	a5,-36(s0)
ffffffc050206034:	00579713          	slli	a4,a5,0x5
ffffffc050206038:	00048797          	auipc	a5,0x48
ffffffc05020603c:	59878793          	addi	a5,a5,1432 # ffffffc05024e5d0 <mlocks>
ffffffc050206040:	97ba                	add	a5,a5,a4
ffffffc050206042:	07a1                	addi	a5,a5,8
ffffffc050206044:	85be                	mv	a1,a5
ffffffc050206046:	8536                	mv	a0,a3
ffffffc050206048:	6b2010ef          	jal	ra,ffffffc0502076fa <do_block>
ffffffc05020604c:	a885                	j	ffffffc0502060bc <do_mutex_lock_acquire+0xd4>
ffffffc05020604e:	00048717          	auipc	a4,0x48
ffffffc050206052:	58270713          	addi	a4,a4,1410 # ffffffc05024e5d0 <mlocks>
ffffffc050206056:	fdc42783          	lw	a5,-36(s0)
ffffffc05020605a:	0796                	slli	a5,a5,0x5
ffffffc05020605c:	97ba                	add	a5,a5,a4
ffffffc05020605e:	4705                	li	a4,1
ffffffc050206060:	c398                	sw	a4,0(a5)
ffffffc050206062:	0004b717          	auipc	a4,0x4b
ffffffc050206066:	28670713          	addi	a4,a4,646 # ffffffc0502512e8 <next_running>
ffffffc05020606a:	fe843783          	ld	a5,-24(s0)
ffffffc05020606e:	078e                	slli	a5,a5,0x3
ffffffc050206070:	97ba                	add	a5,a5,a4
ffffffc050206072:	6394                	ld	a3,0(a5)
ffffffc050206074:	0004b717          	auipc	a4,0x4b
ffffffc050206078:	27470713          	addi	a4,a4,628 # ffffffc0502512e8 <next_running>
ffffffc05020607c:	fe843783          	ld	a5,-24(s0)
ffffffc050206080:	078e                	slli	a5,a5,0x3
ffffffc050206082:	97ba                	add	a5,a5,a4
ffffffc050206084:	639c                	ld	a5,0(a5)
ffffffc050206086:	53bc                	lw	a5,96(a5)
ffffffc050206088:	fdc42703          	lw	a4,-36(s0)
ffffffc05020608c:	00571613          	slli	a2,a4,0x5
ffffffc050206090:	00048717          	auipc	a4,0x48
ffffffc050206094:	54070713          	addi	a4,a4,1344 # ffffffc05024e5d0 <mlocks>
ffffffc050206098:	9732                	add	a4,a4,a2
ffffffc05020609a:	07b1                	addi	a5,a5,12
ffffffc05020609c:	078e                	slli	a5,a5,0x3
ffffffc05020609e:	97b6                	add	a5,a5,a3
ffffffc0502060a0:	e798                	sd	a4,8(a5)
ffffffc0502060a2:	0004b717          	auipc	a4,0x4b
ffffffc0502060a6:	24670713          	addi	a4,a4,582 # ffffffc0502512e8 <next_running>
ffffffc0502060aa:	fe843783          	ld	a5,-24(s0)
ffffffc0502060ae:	078e                	slli	a5,a5,0x3
ffffffc0502060b0:	97ba                	add	a5,a5,a4
ffffffc0502060b2:	639c                	ld	a5,0(a5)
ffffffc0502060b4:	53b8                	lw	a4,96(a5)
ffffffc0502060b6:	2705                	addiw	a4,a4,1
ffffffc0502060b8:	2701                	sext.w	a4,a4
ffffffc0502060ba:	d3b8                	sw	a4,96(a5)
ffffffc0502060bc:	0001                	nop
ffffffc0502060be:	70a2                	ld	ra,40(sp)
ffffffc0502060c0:	7402                	ld	s0,32(sp)
ffffffc0502060c2:	6145                	addi	sp,sp,48
ffffffc0502060c4:	8082                	ret

ffffffc0502060c6 <do_mutex_lock_release>:
ffffffc0502060c6:	7179                	addi	sp,sp,-48
ffffffc0502060c8:	f406                	sd	ra,40(sp)
ffffffc0502060ca:	f022                	sd	s0,32(sp)
ffffffc0502060cc:	1800                	addi	s0,sp,48
ffffffc0502060ce:	87aa                	mv	a5,a0
ffffffc0502060d0:	fcf42e23          	sw	a5,-36(s0)
ffffffc0502060d4:	8d8fc0ef          	jal	ra,ffffffc0502021ac <get_current_cpu_id>
ffffffc0502060d8:	fea43023          	sd	a0,-32(s0)
ffffffc0502060dc:	fe042623          	sw	zero,-20(s0)
ffffffc0502060e0:	a8d1                	j	ffffffc0502061b4 <do_mutex_lock_release+0xee>
ffffffc0502060e2:	0004b717          	auipc	a4,0x4b
ffffffc0502060e6:	20670713          	addi	a4,a4,518 # ffffffc0502512e8 <next_running>
ffffffc0502060ea:	fe043783          	ld	a5,-32(s0)
ffffffc0502060ee:	078e                	slli	a5,a5,0x3
ffffffc0502060f0:	97ba                	add	a5,a5,a4
ffffffc0502060f2:	6398                	ld	a4,0(a5)
ffffffc0502060f4:	fec42783          	lw	a5,-20(s0)
ffffffc0502060f8:	07b1                	addi	a5,a5,12
ffffffc0502060fa:	078e                	slli	a5,a5,0x3
ffffffc0502060fc:	97ba                	add	a5,a5,a4
ffffffc0502060fe:	6798                	ld	a4,8(a5)
ffffffc050206100:	fdc42783          	lw	a5,-36(s0)
ffffffc050206104:	00579693          	slli	a3,a5,0x5
ffffffc050206108:	00048797          	auipc	a5,0x48
ffffffc05020610c:	4c878793          	addi	a5,a5,1224 # ffffffc05024e5d0 <mlocks>
ffffffc050206110:	97b6                	add	a5,a5,a3
ffffffc050206112:	08f71c63          	bne	a4,a5,ffffffc0502061aa <do_mutex_lock_release+0xe4>
ffffffc050206116:	fec42783          	lw	a5,-20(s0)
ffffffc05020611a:	2785                	addiw	a5,a5,1
ffffffc05020611c:	fef42423          	sw	a5,-24(s0)
ffffffc050206120:	a881                	j	ffffffc050206170 <do_mutex_lock_release+0xaa>
ffffffc050206122:	0004b717          	auipc	a4,0x4b
ffffffc050206126:	1c670713          	addi	a4,a4,454 # ffffffc0502512e8 <next_running>
ffffffc05020612a:	fe043783          	ld	a5,-32(s0)
ffffffc05020612e:	078e                	slli	a5,a5,0x3
ffffffc050206130:	97ba                	add	a5,a5,a4
ffffffc050206132:	6398                	ld	a4,0(a5)
ffffffc050206134:	0004b697          	auipc	a3,0x4b
ffffffc050206138:	1b468693          	addi	a3,a3,436 # ffffffc0502512e8 <next_running>
ffffffc05020613c:	fe043783          	ld	a5,-32(s0)
ffffffc050206140:	078e                	slli	a5,a5,0x3
ffffffc050206142:	97b6                	add	a5,a5,a3
ffffffc050206144:	6394                	ld	a3,0(a5)
ffffffc050206146:	fe842783          	lw	a5,-24(s0)
ffffffc05020614a:	37fd                	addiw	a5,a5,-1
ffffffc05020614c:	0007861b          	sext.w	a2,a5
ffffffc050206150:	fe842783          	lw	a5,-24(s0)
ffffffc050206154:	07b1                	addi	a5,a5,12
ffffffc050206156:	078e                	slli	a5,a5,0x3
ffffffc050206158:	97ba                	add	a5,a5,a4
ffffffc05020615a:	6798                	ld	a4,8(a5)
ffffffc05020615c:	00c60793          	addi	a5,a2,12
ffffffc050206160:	078e                	slli	a5,a5,0x3
ffffffc050206162:	97b6                	add	a5,a5,a3
ffffffc050206164:	e798                	sd	a4,8(a5)
ffffffc050206166:	fe842783          	lw	a5,-24(s0)
ffffffc05020616a:	2785                	addiw	a5,a5,1
ffffffc05020616c:	fef42423          	sw	a5,-24(s0)
ffffffc050206170:	0004b717          	auipc	a4,0x4b
ffffffc050206174:	17870713          	addi	a4,a4,376 # ffffffc0502512e8 <next_running>
ffffffc050206178:	fe043783          	ld	a5,-32(s0)
ffffffc05020617c:	078e                	slli	a5,a5,0x3
ffffffc05020617e:	97ba                	add	a5,a5,a4
ffffffc050206180:	639c                	ld	a5,0(a5)
ffffffc050206182:	53b8                	lw	a4,96(a5)
ffffffc050206184:	fe842783          	lw	a5,-24(s0)
ffffffc050206188:	2781                	sext.w	a5,a5
ffffffc05020618a:	f8e7cce3          	blt	a5,a4,ffffffc050206122 <do_mutex_lock_release+0x5c>
ffffffc05020618e:	0004b717          	auipc	a4,0x4b
ffffffc050206192:	15a70713          	addi	a4,a4,346 # ffffffc0502512e8 <next_running>
ffffffc050206196:	fe043783          	ld	a5,-32(s0)
ffffffc05020619a:	078e                	slli	a5,a5,0x3
ffffffc05020619c:	97ba                	add	a5,a5,a4
ffffffc05020619e:	639c                	ld	a5,0(a5)
ffffffc0502061a0:	53b8                	lw	a4,96(a5)
ffffffc0502061a2:	377d                	addiw	a4,a4,-1
ffffffc0502061a4:	2701                	sext.w	a4,a4
ffffffc0502061a6:	d3b8                	sw	a4,96(a5)
ffffffc0502061a8:	a02d                	j	ffffffc0502061d2 <do_mutex_lock_release+0x10c>
ffffffc0502061aa:	fec42783          	lw	a5,-20(s0)
ffffffc0502061ae:	2785                	addiw	a5,a5,1
ffffffc0502061b0:	fef42623          	sw	a5,-20(s0)
ffffffc0502061b4:	0004b717          	auipc	a4,0x4b
ffffffc0502061b8:	13470713          	addi	a4,a4,308 # ffffffc0502512e8 <next_running>
ffffffc0502061bc:	fe043783          	ld	a5,-32(s0)
ffffffc0502061c0:	078e                	slli	a5,a5,0x3
ffffffc0502061c2:	97ba                	add	a5,a5,a4
ffffffc0502061c4:	639c                	ld	a5,0(a5)
ffffffc0502061c6:	53b8                	lw	a4,96(a5)
ffffffc0502061c8:	fec42783          	lw	a5,-20(s0)
ffffffc0502061cc:	2781                	sext.w	a5,a5
ffffffc0502061ce:	f0e7cae3          	blt	a5,a4,ffffffc0502060e2 <do_mutex_lock_release+0x1c>
ffffffc0502061d2:	fdc42783          	lw	a5,-36(s0)
ffffffc0502061d6:	00579713          	slli	a4,a5,0x5
ffffffc0502061da:	00048797          	auipc	a5,0x48
ffffffc0502061de:	3f678793          	addi	a5,a5,1014 # ffffffc05024e5d0 <mlocks>
ffffffc0502061e2:	97ba                	add	a5,a5,a4
ffffffc0502061e4:	07a1                	addi	a5,a5,8
ffffffc0502061e6:	853e                	mv	a0,a5
ffffffc0502061e8:	3b5020ef          	jal	ra,ffffffc050208d9c <list_empty>
ffffffc0502061ec:	87aa                	mv	a5,a0
ffffffc0502061ee:	cf81                	beqz	a5,ffffffc050206206 <do_mutex_lock_release+0x140>
ffffffc0502061f0:	00048717          	auipc	a4,0x48
ffffffc0502061f4:	3e070713          	addi	a4,a4,992 # ffffffc05024e5d0 <mlocks>
ffffffc0502061f8:	fdc42783          	lw	a5,-36(s0)
ffffffc0502061fc:	0796                	slli	a5,a5,0x5
ffffffc0502061fe:	97ba                	add	a5,a5,a4
ffffffc050206200:	0007a023          	sw	zero,0(a5)
ffffffc050206204:	a831                	j	ffffffc050206220 <do_mutex_lock_release+0x15a>
ffffffc050206206:	fdc42783          	lw	a5,-36(s0)
ffffffc05020620a:	00579713          	slli	a4,a5,0x5
ffffffc05020620e:	00048797          	auipc	a5,0x48
ffffffc050206212:	3c278793          	addi	a5,a5,962 # ffffffc05024e5d0 <mlocks>
ffffffc050206216:	97ba                	add	a5,a5,a4
ffffffc050206218:	07a1                	addi	a5,a5,8
ffffffc05020621a:	853e                	mv	a0,a5
ffffffc05020621c:	526010ef          	jal	ra,ffffffc050207742 <do_unblock>
ffffffc050206220:	0001                	nop
ffffffc050206222:	70a2                	ld	ra,40(sp)
ffffffc050206224:	7402                	ld	s0,32(sp)
ffffffc050206226:	6145                	addi	sp,sp,48
ffffffc050206228:	8082                	ret

ffffffc05020622a <init_barriers>:
ffffffc05020622a:	1101                	addi	sp,sp,-32
ffffffc05020622c:	ec06                	sd	ra,24(sp)
ffffffc05020622e:	e822                	sd	s0,16(sp)
ffffffc050206230:	1000                	addi	s0,sp,32
ffffffc050206232:	fe042623          	sw	zero,-20(s0)
ffffffc050206236:	a8b9                	j	ffffffc050206294 <init_barriers+0x6a>
ffffffc050206238:	00048697          	auipc	a3,0x48
ffffffc05020623c:	59868693          	addi	a3,a3,1432 # ffffffc05024e7d0 <barr>
ffffffc050206240:	fec42703          	lw	a4,-20(s0)
ffffffc050206244:	87ba                	mv	a5,a4
ffffffc050206246:	0786                	slli	a5,a5,0x1
ffffffc050206248:	97ba                	add	a5,a5,a4
ffffffc05020624a:	078e                	slli	a5,a5,0x3
ffffffc05020624c:	97b6                	add	a5,a5,a3
ffffffc05020624e:	0007a023          	sw	zero,0(a5)
ffffffc050206252:	00048697          	auipc	a3,0x48
ffffffc050206256:	57e68693          	addi	a3,a3,1406 # ffffffc05024e7d0 <barr>
ffffffc05020625a:	fec42703          	lw	a4,-20(s0)
ffffffc05020625e:	87ba                	mv	a5,a4
ffffffc050206260:	0786                	slli	a5,a5,0x1
ffffffc050206262:	97ba                	add	a5,a5,a4
ffffffc050206264:	078e                	slli	a5,a5,0x3
ffffffc050206266:	97b6                	add	a5,a5,a3
ffffffc050206268:	0007a223          	sw	zero,4(a5)
ffffffc05020626c:	fec42703          	lw	a4,-20(s0)
ffffffc050206270:	87ba                	mv	a5,a4
ffffffc050206272:	0786                	slli	a5,a5,0x1
ffffffc050206274:	97ba                	add	a5,a5,a4
ffffffc050206276:	078e                	slli	a5,a5,0x3
ffffffc050206278:	00048717          	auipc	a4,0x48
ffffffc05020627c:	55870713          	addi	a4,a4,1368 # ffffffc05024e7d0 <barr>
ffffffc050206280:	97ba                	add	a5,a5,a4
ffffffc050206282:	07a1                	addi	a5,a5,8
ffffffc050206284:	853e                	mv	a0,a5
ffffffc050206286:	1df020ef          	jal	ra,ffffffc050208c64 <init_list_head>
ffffffc05020628a:	fec42783          	lw	a5,-20(s0)
ffffffc05020628e:	2785                	addiw	a5,a5,1
ffffffc050206290:	fef42623          	sw	a5,-20(s0)
ffffffc050206294:	fec42783          	lw	a5,-20(s0)
ffffffc050206298:	0007871b          	sext.w	a4,a5
ffffffc05020629c:	47bd                	li	a5,15
ffffffc05020629e:	f8e7dde3          	bge	a5,a4,ffffffc050206238 <init_barriers+0xe>
ffffffc0502062a2:	0001                	nop
ffffffc0502062a4:	0001                	nop
ffffffc0502062a6:	60e2                	ld	ra,24(sp)
ffffffc0502062a8:	6442                	ld	s0,16(sp)
ffffffc0502062aa:	6105                	addi	sp,sp,32
ffffffc0502062ac:	8082                	ret

ffffffc0502062ae <do_barrier_init>:
ffffffc0502062ae:	7179                	addi	sp,sp,-48
ffffffc0502062b0:	f422                	sd	s0,40(sp)
ffffffc0502062b2:	1800                	addi	s0,sp,48
ffffffc0502062b4:	87aa                	mv	a5,a0
ffffffc0502062b6:	872e                	mv	a4,a1
ffffffc0502062b8:	fcf42e23          	sw	a5,-36(s0)
ffffffc0502062bc:	87ba                	mv	a5,a4
ffffffc0502062be:	fcf42c23          	sw	a5,-40(s0)
ffffffc0502062c2:	fdc42703          	lw	a4,-36(s0)
ffffffc0502062c6:	47a9                	li	a5,10
ffffffc0502062c8:	02f767bb          	remw	a5,a4,a5
ffffffc0502062cc:	fef42623          	sw	a5,-20(s0)
ffffffc0502062d0:	00048697          	auipc	a3,0x48
ffffffc0502062d4:	50068693          	addi	a3,a3,1280 # ffffffc05024e7d0 <barr>
ffffffc0502062d8:	fec42703          	lw	a4,-20(s0)
ffffffc0502062dc:	87ba                	mv	a5,a4
ffffffc0502062de:	0786                	slli	a5,a5,0x1
ffffffc0502062e0:	97ba                	add	a5,a5,a4
ffffffc0502062e2:	078e                	slli	a5,a5,0x3
ffffffc0502062e4:	97b6                	add	a5,a5,a3
ffffffc0502062e6:	fd842703          	lw	a4,-40(s0)
ffffffc0502062ea:	c398                	sw	a4,0(a5)
ffffffc0502062ec:	fec42783          	lw	a5,-20(s0)
ffffffc0502062f0:	853e                	mv	a0,a5
ffffffc0502062f2:	7422                	ld	s0,40(sp)
ffffffc0502062f4:	6145                	addi	sp,sp,48
ffffffc0502062f6:	8082                	ret

ffffffc0502062f8 <do_barrier_wait>:
ffffffc0502062f8:	7179                	addi	sp,sp,-48
ffffffc0502062fa:	f406                	sd	ra,40(sp)
ffffffc0502062fc:	f022                	sd	s0,32(sp)
ffffffc0502062fe:	1800                	addi	s0,sp,48
ffffffc050206300:	87aa                	mv	a5,a0
ffffffc050206302:	fcf42e23          	sw	a5,-36(s0)
ffffffc050206306:	ea7fb0ef          	jal	ra,ffffffc0502021ac <get_current_cpu_id>
ffffffc05020630a:	fea43423          	sd	a0,-24(s0)
ffffffc05020630e:	00048697          	auipc	a3,0x48
ffffffc050206312:	4c268693          	addi	a3,a3,1218 # ffffffc05024e7d0 <barr>
ffffffc050206316:	fdc42703          	lw	a4,-36(s0)
ffffffc05020631a:	87ba                	mv	a5,a4
ffffffc05020631c:	0786                	slli	a5,a5,0x1
ffffffc05020631e:	97ba                	add	a5,a5,a4
ffffffc050206320:	078e                	slli	a5,a5,0x3
ffffffc050206322:	97b6                	add	a5,a5,a3
ffffffc050206324:	43dc                	lw	a5,4(a5)
ffffffc050206326:	2785                	addiw	a5,a5,1
ffffffc050206328:	0007869b          	sext.w	a3,a5
ffffffc05020632c:	00048617          	auipc	a2,0x48
ffffffc050206330:	4a460613          	addi	a2,a2,1188 # ffffffc05024e7d0 <barr>
ffffffc050206334:	fdc42703          	lw	a4,-36(s0)
ffffffc050206338:	87ba                	mv	a5,a4
ffffffc05020633a:	0786                	slli	a5,a5,0x1
ffffffc05020633c:	97ba                	add	a5,a5,a4
ffffffc05020633e:	078e                	slli	a5,a5,0x3
ffffffc050206340:	97b2                	add	a5,a5,a2
ffffffc050206342:	c3d4                	sw	a3,4(a5)
ffffffc050206344:	00048697          	auipc	a3,0x48
ffffffc050206348:	48c68693          	addi	a3,a3,1164 # ffffffc05024e7d0 <barr>
ffffffc05020634c:	fdc42703          	lw	a4,-36(s0)
ffffffc050206350:	87ba                	mv	a5,a4
ffffffc050206352:	0786                	slli	a5,a5,0x1
ffffffc050206354:	97ba                	add	a5,a5,a4
ffffffc050206356:	078e                	slli	a5,a5,0x3
ffffffc050206358:	97b6                	add	a5,a5,a3
ffffffc05020635a:	43d0                	lw	a2,4(a5)
ffffffc05020635c:	00048697          	auipc	a3,0x48
ffffffc050206360:	47468693          	addi	a3,a3,1140 # ffffffc05024e7d0 <barr>
ffffffc050206364:	fdc42703          	lw	a4,-36(s0)
ffffffc050206368:	87ba                	mv	a5,a4
ffffffc05020636a:	0786                	slli	a5,a5,0x1
ffffffc05020636c:	97ba                	add	a5,a5,a4
ffffffc05020636e:	078e                	slli	a5,a5,0x3
ffffffc050206370:	97b6                	add	a5,a5,a3
ffffffc050206372:	439c                	lw	a5,0(a5)
ffffffc050206374:	8732                	mv	a4,a2
ffffffc050206376:	04f75d63          	bge	a4,a5,ffffffc0502063d0 <do_barrier_wait+0xd8>
ffffffc05020637a:	0004b717          	auipc	a4,0x4b
ffffffc05020637e:	f6e70713          	addi	a4,a4,-146 # ffffffc0502512e8 <next_running>
ffffffc050206382:	fe843783          	ld	a5,-24(s0)
ffffffc050206386:	078e                	slli	a5,a5,0x3
ffffffc050206388:	97ba                	add	a5,a5,a4
ffffffc05020638a:	639c                	ld	a5,0(a5)
ffffffc05020638c:	02078693          	addi	a3,a5,32
ffffffc050206390:	fdc42703          	lw	a4,-36(s0)
ffffffc050206394:	87ba                	mv	a5,a4
ffffffc050206396:	0786                	slli	a5,a5,0x1
ffffffc050206398:	97ba                	add	a5,a5,a4
ffffffc05020639a:	078e                	slli	a5,a5,0x3
ffffffc05020639c:	00048717          	auipc	a4,0x48
ffffffc0502063a0:	43470713          	addi	a4,a4,1076 # ffffffc05024e7d0 <barr>
ffffffc0502063a4:	97ba                	add	a5,a5,a4
ffffffc0502063a6:	07a1                	addi	a5,a5,8
ffffffc0502063a8:	85be                	mv	a1,a5
ffffffc0502063aa:	8536                	mv	a0,a3
ffffffc0502063ac:	34e010ef          	jal	ra,ffffffc0502076fa <do_block>
ffffffc0502063b0:	a8b1                	j	ffffffc05020640c <do_barrier_wait+0x114>
ffffffc0502063b2:	fdc42703          	lw	a4,-36(s0)
ffffffc0502063b6:	87ba                	mv	a5,a4
ffffffc0502063b8:	0786                	slli	a5,a5,0x1
ffffffc0502063ba:	97ba                	add	a5,a5,a4
ffffffc0502063bc:	078e                	slli	a5,a5,0x3
ffffffc0502063be:	00048717          	auipc	a4,0x48
ffffffc0502063c2:	41270713          	addi	a4,a4,1042 # ffffffc05024e7d0 <barr>
ffffffc0502063c6:	97ba                	add	a5,a5,a4
ffffffc0502063c8:	07a1                	addi	a5,a5,8
ffffffc0502063ca:	853e                	mv	a0,a5
ffffffc0502063cc:	376010ef          	jal	ra,ffffffc050207742 <do_unblock>
ffffffc0502063d0:	fdc42703          	lw	a4,-36(s0)
ffffffc0502063d4:	87ba                	mv	a5,a4
ffffffc0502063d6:	0786                	slli	a5,a5,0x1
ffffffc0502063d8:	97ba                	add	a5,a5,a4
ffffffc0502063da:	078e                	slli	a5,a5,0x3
ffffffc0502063dc:	00048717          	auipc	a4,0x48
ffffffc0502063e0:	3f470713          	addi	a4,a4,1012 # ffffffc05024e7d0 <barr>
ffffffc0502063e4:	97ba                	add	a5,a5,a4
ffffffc0502063e6:	07a1                	addi	a5,a5,8
ffffffc0502063e8:	853e                	mv	a0,a5
ffffffc0502063ea:	1b3020ef          	jal	ra,ffffffc050208d9c <list_empty>
ffffffc0502063ee:	87aa                	mv	a5,a0
ffffffc0502063f0:	d3e9                	beqz	a5,ffffffc0502063b2 <do_barrier_wait+0xba>
ffffffc0502063f2:	00048697          	auipc	a3,0x48
ffffffc0502063f6:	3de68693          	addi	a3,a3,990 # ffffffc05024e7d0 <barr>
ffffffc0502063fa:	fdc42703          	lw	a4,-36(s0)
ffffffc0502063fe:	87ba                	mv	a5,a4
ffffffc050206400:	0786                	slli	a5,a5,0x1
ffffffc050206402:	97ba                	add	a5,a5,a4
ffffffc050206404:	078e                	slli	a5,a5,0x3
ffffffc050206406:	97b6                	add	a5,a5,a3
ffffffc050206408:	0007a223          	sw	zero,4(a5)
ffffffc05020640c:	0001                	nop
ffffffc05020640e:	70a2                	ld	ra,40(sp)
ffffffc050206410:	7402                	ld	s0,32(sp)
ffffffc050206412:	6145                	addi	sp,sp,48
ffffffc050206414:	8082                	ret

ffffffc050206416 <do_barrier_destroy>:
ffffffc050206416:	1101                	addi	sp,sp,-32
ffffffc050206418:	ec06                	sd	ra,24(sp)
ffffffc05020641a:	e822                	sd	s0,16(sp)
ffffffc05020641c:	1000                	addi	s0,sp,32
ffffffc05020641e:	87aa                	mv	a5,a0
ffffffc050206420:	fef42623          	sw	a5,-20(s0)
ffffffc050206424:	00048697          	auipc	a3,0x48
ffffffc050206428:	3ac68693          	addi	a3,a3,940 # ffffffc05024e7d0 <barr>
ffffffc05020642c:	fec42703          	lw	a4,-20(s0)
ffffffc050206430:	87ba                	mv	a5,a4
ffffffc050206432:	0786                	slli	a5,a5,0x1
ffffffc050206434:	97ba                	add	a5,a5,a4
ffffffc050206436:	078e                	slli	a5,a5,0x3
ffffffc050206438:	97b6                	add	a5,a5,a3
ffffffc05020643a:	0007a223          	sw	zero,4(a5)
ffffffc05020643e:	00048697          	auipc	a3,0x48
ffffffc050206442:	39268693          	addi	a3,a3,914 # ffffffc05024e7d0 <barr>
ffffffc050206446:	fec42703          	lw	a4,-20(s0)
ffffffc05020644a:	87ba                	mv	a5,a4
ffffffc05020644c:	0786                	slli	a5,a5,0x1
ffffffc05020644e:	97ba                	add	a5,a5,a4
ffffffc050206450:	078e                	slli	a5,a5,0x3
ffffffc050206452:	97b6                	add	a5,a5,a3
ffffffc050206454:	0007a023          	sw	zero,0(a5)
ffffffc050206458:	a005                	j	ffffffc050206478 <do_barrier_destroy+0x62>
ffffffc05020645a:	fec42703          	lw	a4,-20(s0)
ffffffc05020645e:	87ba                	mv	a5,a4
ffffffc050206460:	0786                	slli	a5,a5,0x1
ffffffc050206462:	97ba                	add	a5,a5,a4
ffffffc050206464:	078e                	slli	a5,a5,0x3
ffffffc050206466:	00048717          	auipc	a4,0x48
ffffffc05020646a:	36a70713          	addi	a4,a4,874 # ffffffc05024e7d0 <barr>
ffffffc05020646e:	97ba                	add	a5,a5,a4
ffffffc050206470:	07a1                	addi	a5,a5,8
ffffffc050206472:	853e                	mv	a0,a5
ffffffc050206474:	2ce010ef          	jal	ra,ffffffc050207742 <do_unblock>
ffffffc050206478:	fec42703          	lw	a4,-20(s0)
ffffffc05020647c:	87ba                	mv	a5,a4
ffffffc05020647e:	0786                	slli	a5,a5,0x1
ffffffc050206480:	97ba                	add	a5,a5,a4
ffffffc050206482:	078e                	slli	a5,a5,0x3
ffffffc050206484:	00048717          	auipc	a4,0x48
ffffffc050206488:	34c70713          	addi	a4,a4,844 # ffffffc05024e7d0 <barr>
ffffffc05020648c:	97ba                	add	a5,a5,a4
ffffffc05020648e:	07a1                	addi	a5,a5,8
ffffffc050206490:	853e                	mv	a0,a5
ffffffc050206492:	10b020ef          	jal	ra,ffffffc050208d9c <list_empty>
ffffffc050206496:	87aa                	mv	a5,a0
ffffffc050206498:	d3e9                	beqz	a5,ffffffc05020645a <do_barrier_destroy+0x44>
ffffffc05020649a:	0001                	nop
ffffffc05020649c:	0001                	nop
ffffffc05020649e:	60e2                	ld	ra,24(sp)
ffffffc0502064a0:	6442                	ld	s0,16(sp)
ffffffc0502064a2:	6105                	addi	sp,sp,32
ffffffc0502064a4:	8082                	ret

ffffffc0502064a6 <init_conditions>:
ffffffc0502064a6:	1101                	addi	sp,sp,-32
ffffffc0502064a8:	ec06                	sd	ra,24(sp)
ffffffc0502064aa:	e822                	sd	s0,16(sp)
ffffffc0502064ac:	1000                	addi	s0,sp,32
ffffffc0502064ae:	fe042623          	sw	zero,-20(s0)
ffffffc0502064b2:	a091                	j	ffffffc0502064f6 <init_conditions+0x50>
ffffffc0502064b4:	fec42703          	lw	a4,-20(s0)
ffffffc0502064b8:	87ba                	mv	a5,a4
ffffffc0502064ba:	0786                	slli	a5,a5,0x1
ffffffc0502064bc:	97ba                	add	a5,a5,a4
ffffffc0502064be:	078e                	slli	a5,a5,0x3
ffffffc0502064c0:	00048717          	auipc	a4,0x48
ffffffc0502064c4:	49070713          	addi	a4,a4,1168 # ffffffc05024e950 <cond>
ffffffc0502064c8:	97ba                	add	a5,a5,a4
ffffffc0502064ca:	07a1                	addi	a5,a5,8
ffffffc0502064cc:	853e                	mv	a0,a5
ffffffc0502064ce:	796020ef          	jal	ra,ffffffc050208c64 <init_list_head>
ffffffc0502064d2:	00048697          	auipc	a3,0x48
ffffffc0502064d6:	47e68693          	addi	a3,a3,1150 # ffffffc05024e950 <cond>
ffffffc0502064da:	fec42703          	lw	a4,-20(s0)
ffffffc0502064de:	87ba                	mv	a5,a4
ffffffc0502064e0:	0786                	slli	a5,a5,0x1
ffffffc0502064e2:	97ba                	add	a5,a5,a4
ffffffc0502064e4:	078e                	slli	a5,a5,0x3
ffffffc0502064e6:	97b6                	add	a5,a5,a3
ffffffc0502064e8:	0007a023          	sw	zero,0(a5)
ffffffc0502064ec:	fec42783          	lw	a5,-20(s0)
ffffffc0502064f0:	2785                	addiw	a5,a5,1
ffffffc0502064f2:	fef42623          	sw	a5,-20(s0)
ffffffc0502064f6:	fec42783          	lw	a5,-20(s0)
ffffffc0502064fa:	0007871b          	sext.w	a4,a5
ffffffc0502064fe:	47bd                	li	a5,15
ffffffc050206500:	fae7dae3          	bge	a5,a4,ffffffc0502064b4 <init_conditions+0xe>
ffffffc050206504:	0001                	nop
ffffffc050206506:	0001                	nop
ffffffc050206508:	60e2                	ld	ra,24(sp)
ffffffc05020650a:	6442                	ld	s0,16(sp)
ffffffc05020650c:	6105                	addi	sp,sp,32
ffffffc05020650e:	8082                	ret

ffffffc050206510 <do_condition_init>:
ffffffc050206510:	7179                	addi	sp,sp,-48
ffffffc050206512:	f422                	sd	s0,40(sp)
ffffffc050206514:	1800                	addi	s0,sp,48
ffffffc050206516:	87aa                	mv	a5,a0
ffffffc050206518:	fcf42e23          	sw	a5,-36(s0)
ffffffc05020651c:	fdc42703          	lw	a4,-36(s0)
ffffffc050206520:	47a9                	li	a5,10
ffffffc050206522:	02f767bb          	remw	a5,a4,a5
ffffffc050206526:	fef42623          	sw	a5,-20(s0)
ffffffc05020652a:	00048697          	auipc	a3,0x48
ffffffc05020652e:	42668693          	addi	a3,a3,1062 # ffffffc05024e950 <cond>
ffffffc050206532:	fec42703          	lw	a4,-20(s0)
ffffffc050206536:	87ba                	mv	a5,a4
ffffffc050206538:	0786                	slli	a5,a5,0x1
ffffffc05020653a:	97ba                	add	a5,a5,a4
ffffffc05020653c:	078e                	slli	a5,a5,0x3
ffffffc05020653e:	97b6                	add	a5,a5,a3
ffffffc050206540:	4705                	li	a4,1
ffffffc050206542:	c398                	sw	a4,0(a5)
ffffffc050206544:	00048697          	auipc	a3,0x48
ffffffc050206548:	40c68693          	addi	a3,a3,1036 # ffffffc05024e950 <cond>
ffffffc05020654c:	fec42703          	lw	a4,-20(s0)
ffffffc050206550:	87ba                	mv	a5,a4
ffffffc050206552:	0786                	slli	a5,a5,0x1
ffffffc050206554:	97ba                	add	a5,a5,a4
ffffffc050206556:	078e                	slli	a5,a5,0x3
ffffffc050206558:	97b6                	add	a5,a5,a3
ffffffc05020655a:	0007a223          	sw	zero,4(a5)
ffffffc05020655e:	fec42783          	lw	a5,-20(s0)
ffffffc050206562:	853e                	mv	a0,a5
ffffffc050206564:	7422                	ld	s0,40(sp)
ffffffc050206566:	6145                	addi	sp,sp,48
ffffffc050206568:	8082                	ret

ffffffc05020656a <do_condition_wait>:
ffffffc05020656a:	7179                	addi	sp,sp,-48
ffffffc05020656c:	f406                	sd	ra,40(sp)
ffffffc05020656e:	f022                	sd	s0,32(sp)
ffffffc050206570:	1800                	addi	s0,sp,48
ffffffc050206572:	87aa                	mv	a5,a0
ffffffc050206574:	872e                	mv	a4,a1
ffffffc050206576:	fcf42e23          	sw	a5,-36(s0)
ffffffc05020657a:	87ba                	mv	a5,a4
ffffffc05020657c:	fcf42c23          	sw	a5,-40(s0)
ffffffc050206580:	c2dfb0ef          	jal	ra,ffffffc0502021ac <get_current_cpu_id>
ffffffc050206584:	fea43423          	sd	a0,-24(s0)
ffffffc050206588:	fd842783          	lw	a5,-40(s0)
ffffffc05020658c:	853e                	mv	a0,a5
ffffffc05020658e:	b39ff0ef          	jal	ra,ffffffc0502060c6 <do_mutex_lock_release>
ffffffc050206592:	0004b717          	auipc	a4,0x4b
ffffffc050206596:	d5670713          	addi	a4,a4,-682 # ffffffc0502512e8 <next_running>
ffffffc05020659a:	fe843783          	ld	a5,-24(s0)
ffffffc05020659e:	078e                	slli	a5,a5,0x3
ffffffc0502065a0:	97ba                	add	a5,a5,a4
ffffffc0502065a2:	639c                	ld	a5,0(a5)
ffffffc0502065a4:	02078693          	addi	a3,a5,32
ffffffc0502065a8:	fdc42703          	lw	a4,-36(s0)
ffffffc0502065ac:	87ba                	mv	a5,a4
ffffffc0502065ae:	0786                	slli	a5,a5,0x1
ffffffc0502065b0:	97ba                	add	a5,a5,a4
ffffffc0502065b2:	078e                	slli	a5,a5,0x3
ffffffc0502065b4:	00048717          	auipc	a4,0x48
ffffffc0502065b8:	39c70713          	addi	a4,a4,924 # ffffffc05024e950 <cond>
ffffffc0502065bc:	97ba                	add	a5,a5,a4
ffffffc0502065be:	07a1                	addi	a5,a5,8
ffffffc0502065c0:	85be                	mv	a1,a5
ffffffc0502065c2:	8536                	mv	a0,a3
ffffffc0502065c4:	136010ef          	jal	ra,ffffffc0502076fa <do_block>
ffffffc0502065c8:	fd842783          	lw	a5,-40(s0)
ffffffc0502065cc:	853e                	mv	a0,a5
ffffffc0502065ce:	a1bff0ef          	jal	ra,ffffffc050205fe8 <do_mutex_lock_acquire>
ffffffc0502065d2:	0001                	nop
ffffffc0502065d4:	70a2                	ld	ra,40(sp)
ffffffc0502065d6:	7402                	ld	s0,32(sp)
ffffffc0502065d8:	6145                	addi	sp,sp,48
ffffffc0502065da:	8082                	ret

ffffffc0502065dc <do_condition_signal>:
ffffffc0502065dc:	1101                	addi	sp,sp,-32
ffffffc0502065de:	ec06                	sd	ra,24(sp)
ffffffc0502065e0:	e822                	sd	s0,16(sp)
ffffffc0502065e2:	1000                	addi	s0,sp,32
ffffffc0502065e4:	87aa                	mv	a5,a0
ffffffc0502065e6:	fef42623          	sw	a5,-20(s0)
ffffffc0502065ea:	fec42703          	lw	a4,-20(s0)
ffffffc0502065ee:	87ba                	mv	a5,a4
ffffffc0502065f0:	0786                	slli	a5,a5,0x1
ffffffc0502065f2:	97ba                	add	a5,a5,a4
ffffffc0502065f4:	078e                	slli	a5,a5,0x3
ffffffc0502065f6:	00048717          	auipc	a4,0x48
ffffffc0502065fa:	35a70713          	addi	a4,a4,858 # ffffffc05024e950 <cond>
ffffffc0502065fe:	97ba                	add	a5,a5,a4
ffffffc050206600:	07a1                	addi	a5,a5,8
ffffffc050206602:	853e                	mv	a0,a5
ffffffc050206604:	13e010ef          	jal	ra,ffffffc050207742 <do_unblock>
ffffffc050206608:	0001                	nop
ffffffc05020660a:	60e2                	ld	ra,24(sp)
ffffffc05020660c:	6442                	ld	s0,16(sp)
ffffffc05020660e:	6105                	addi	sp,sp,32
ffffffc050206610:	8082                	ret

ffffffc050206612 <do_condition_broadcast>:
ffffffc050206612:	1101                	addi	sp,sp,-32
ffffffc050206614:	ec06                	sd	ra,24(sp)
ffffffc050206616:	e822                	sd	s0,16(sp)
ffffffc050206618:	1000                	addi	s0,sp,32
ffffffc05020661a:	87aa                	mv	a5,a0
ffffffc05020661c:	fef42623          	sw	a5,-20(s0)
ffffffc050206620:	a005                	j	ffffffc050206640 <do_condition_broadcast+0x2e>
ffffffc050206622:	fec42703          	lw	a4,-20(s0)
ffffffc050206626:	87ba                	mv	a5,a4
ffffffc050206628:	0786                	slli	a5,a5,0x1
ffffffc05020662a:	97ba                	add	a5,a5,a4
ffffffc05020662c:	078e                	slli	a5,a5,0x3
ffffffc05020662e:	00048717          	auipc	a4,0x48
ffffffc050206632:	32270713          	addi	a4,a4,802 # ffffffc05024e950 <cond>
ffffffc050206636:	97ba                	add	a5,a5,a4
ffffffc050206638:	07a1                	addi	a5,a5,8
ffffffc05020663a:	853e                	mv	a0,a5
ffffffc05020663c:	106010ef          	jal	ra,ffffffc050207742 <do_unblock>
ffffffc050206640:	fec42703          	lw	a4,-20(s0)
ffffffc050206644:	87ba                	mv	a5,a4
ffffffc050206646:	0786                	slli	a5,a5,0x1
ffffffc050206648:	97ba                	add	a5,a5,a4
ffffffc05020664a:	078e                	slli	a5,a5,0x3
ffffffc05020664c:	00048717          	auipc	a4,0x48
ffffffc050206650:	30470713          	addi	a4,a4,772 # ffffffc05024e950 <cond>
ffffffc050206654:	97ba                	add	a5,a5,a4
ffffffc050206656:	07a1                	addi	a5,a5,8
ffffffc050206658:	853e                	mv	a0,a5
ffffffc05020665a:	742020ef          	jal	ra,ffffffc050208d9c <list_empty>
ffffffc05020665e:	87aa                	mv	a5,a0
ffffffc050206660:	d3e9                	beqz	a5,ffffffc050206622 <do_condition_broadcast+0x10>
ffffffc050206662:	0001                	nop
ffffffc050206664:	0001                	nop
ffffffc050206666:	60e2                	ld	ra,24(sp)
ffffffc050206668:	6442                	ld	s0,16(sp)
ffffffc05020666a:	6105                	addi	sp,sp,32
ffffffc05020666c:	8082                	ret

ffffffc05020666e <do_condition_destroy>:
ffffffc05020666e:	1101                	addi	sp,sp,-32
ffffffc050206670:	ec06                	sd	ra,24(sp)
ffffffc050206672:	e822                	sd	s0,16(sp)
ffffffc050206674:	1000                	addi	s0,sp,32
ffffffc050206676:	87aa                	mv	a5,a0
ffffffc050206678:	fef42623          	sw	a5,-20(s0)
ffffffc05020667c:	a005                	j	ffffffc05020669c <do_condition_destroy+0x2e>
ffffffc05020667e:	fec42703          	lw	a4,-20(s0)
ffffffc050206682:	87ba                	mv	a5,a4
ffffffc050206684:	0786                	slli	a5,a5,0x1
ffffffc050206686:	97ba                	add	a5,a5,a4
ffffffc050206688:	078e                	slli	a5,a5,0x3
ffffffc05020668a:	00048717          	auipc	a4,0x48
ffffffc05020668e:	2c670713          	addi	a4,a4,710 # ffffffc05024e950 <cond>
ffffffc050206692:	97ba                	add	a5,a5,a4
ffffffc050206694:	07a1                	addi	a5,a5,8
ffffffc050206696:	853e                	mv	a0,a5
ffffffc050206698:	0aa010ef          	jal	ra,ffffffc050207742 <do_unblock>
ffffffc05020669c:	fec42703          	lw	a4,-20(s0)
ffffffc0502066a0:	87ba                	mv	a5,a4
ffffffc0502066a2:	0786                	slli	a5,a5,0x1
ffffffc0502066a4:	97ba                	add	a5,a5,a4
ffffffc0502066a6:	078e                	slli	a5,a5,0x3
ffffffc0502066a8:	00048717          	auipc	a4,0x48
ffffffc0502066ac:	2a870713          	addi	a4,a4,680 # ffffffc05024e950 <cond>
ffffffc0502066b0:	97ba                	add	a5,a5,a4
ffffffc0502066b2:	07a1                	addi	a5,a5,8
ffffffc0502066b4:	853e                	mv	a0,a5
ffffffc0502066b6:	6e6020ef          	jal	ra,ffffffc050208d9c <list_empty>
ffffffc0502066ba:	87aa                	mv	a5,a0
ffffffc0502066bc:	d3e9                	beqz	a5,ffffffc05020667e <do_condition_destroy+0x10>
ffffffc0502066be:	00048697          	auipc	a3,0x48
ffffffc0502066c2:	29268693          	addi	a3,a3,658 # ffffffc05024e950 <cond>
ffffffc0502066c6:	fec42703          	lw	a4,-20(s0)
ffffffc0502066ca:	87ba                	mv	a5,a4
ffffffc0502066cc:	0786                	slli	a5,a5,0x1
ffffffc0502066ce:	97ba                	add	a5,a5,a4
ffffffc0502066d0:	078e                	slli	a5,a5,0x3
ffffffc0502066d2:	97b6                	add	a5,a5,a3
ffffffc0502066d4:	0007a023          	sw	zero,0(a5)
ffffffc0502066d8:	0001                	nop
ffffffc0502066da:	60e2                	ld	ra,24(sp)
ffffffc0502066dc:	6442                	ld	s0,16(sp)
ffffffc0502066de:	6105                	addi	sp,sp,32
ffffffc0502066e0:	8082                	ret

ffffffc0502066e2 <init_mbox>:
ffffffc0502066e2:	1101                	addi	sp,sp,-32
ffffffc0502066e4:	ec22                	sd	s0,24(sp)
ffffffc0502066e6:	1000                	addi	s0,sp,32
ffffffc0502066e8:	fe042623          	sw	zero,-20(s0)
ffffffc0502066ec:	a895                	j	ffffffc050206760 <init_mbox+0x7e>
ffffffc0502066ee:	00047697          	auipc	a3,0x47
ffffffc0502066f2:	72268693          	addi	a3,a3,1826 # ffffffc05024de10 <mbox>
ffffffc0502066f6:	fec42703          	lw	a4,-20(s0)
ffffffc0502066fa:	87ba                	mv	a5,a4
ffffffc0502066fc:	0796                	slli	a5,a5,0x5
ffffffc0502066fe:	8f99                	sub	a5,a5,a4
ffffffc050206700:	078a                	slli	a5,a5,0x2
ffffffc050206702:	97b6                	add	a5,a5,a3
ffffffc050206704:	0607a023          	sw	zero,96(a5)
ffffffc050206708:	00047697          	auipc	a3,0x47
ffffffc05020670c:	70868693          	addi	a3,a3,1800 # ffffffc05024de10 <mbox>
ffffffc050206710:	fec42703          	lw	a4,-20(s0)
ffffffc050206714:	87ba                	mv	a5,a4
ffffffc050206716:	0796                	slli	a5,a5,0x5
ffffffc050206718:	8f99                	sub	a5,a5,a4
ffffffc05020671a:	078a                	slli	a5,a5,0x2
ffffffc05020671c:	97b6                	add	a5,a5,a3
ffffffc05020671e:	0607a423          	sw	zero,104(a5)
ffffffc050206722:	00047697          	auipc	a3,0x47
ffffffc050206726:	6ee68693          	addi	a3,a3,1774 # ffffffc05024de10 <mbox>
ffffffc05020672a:	fec42703          	lw	a4,-20(s0)
ffffffc05020672e:	87ba                	mv	a5,a4
ffffffc050206730:	0796                	slli	a5,a5,0x5
ffffffc050206732:	8f99                	sub	a5,a5,a4
ffffffc050206734:	078a                	slli	a5,a5,0x2
ffffffc050206736:	97b6                	add	a5,a5,a3
ffffffc050206738:	0607a623          	sw	zero,108(a5)
ffffffc05020673c:	00047697          	auipc	a3,0x47
ffffffc050206740:	6d468693          	addi	a3,a3,1748 # ffffffc05024de10 <mbox>
ffffffc050206744:	fec42703          	lw	a4,-20(s0)
ffffffc050206748:	87ba                	mv	a5,a4
ffffffc05020674a:	0796                	slli	a5,a5,0x5
ffffffc05020674c:	8f99                	sub	a5,a5,a4
ffffffc05020674e:	078a                	slli	a5,a5,0x2
ffffffc050206750:	97b6                	add	a5,a5,a3
ffffffc050206752:	0607a223          	sw	zero,100(a5)
ffffffc050206756:	fec42783          	lw	a5,-20(s0)
ffffffc05020675a:	2785                	addiw	a5,a5,1
ffffffc05020675c:	fef42623          	sw	a5,-20(s0)
ffffffc050206760:	fec42783          	lw	a5,-20(s0)
ffffffc050206764:	0007871b          	sext.w	a4,a5
ffffffc050206768:	47bd                	li	a5,15
ffffffc05020676a:	f8e7d2e3          	bge	a5,a4,ffffffc0502066ee <init_mbox+0xc>
ffffffc05020676e:	0001                	nop
ffffffc050206770:	0001                	nop
ffffffc050206772:	6462                	ld	s0,24(sp)
ffffffc050206774:	6105                	addi	sp,sp,32
ffffffc050206776:	8082                	ret

ffffffc050206778 <do_mbox_open>:
ffffffc050206778:	7179                	addi	sp,sp,-48
ffffffc05020677a:	f406                	sd	ra,40(sp)
ffffffc05020677c:	f022                	sd	s0,32(sp)
ffffffc05020677e:	1800                	addi	s0,sp,48
ffffffc050206780:	fca43c23          	sd	a0,-40(s0)
ffffffc050206784:	fe042623          	sw	zero,-20(s0)
ffffffc050206788:	fe042623          	sw	zero,-20(s0)
ffffffc05020678c:	a81d                	j	ffffffc0502067c2 <do_mbox_open+0x4a>
ffffffc05020678e:	fec42703          	lw	a4,-20(s0)
ffffffc050206792:	87ba                	mv	a5,a4
ffffffc050206794:	0796                	slli	a5,a5,0x5
ffffffc050206796:	8f99                	sub	a5,a5,a4
ffffffc050206798:	078a                	slli	a5,a5,0x2
ffffffc05020679a:	00047717          	auipc	a4,0x47
ffffffc05020679e:	67670713          	addi	a4,a4,1654 # ffffffc05024de10 <mbox>
ffffffc0502067a2:	97ba                	add	a5,a5,a4
ffffffc0502067a4:	85be                	mv	a1,a5
ffffffc0502067a6:	fd843503          	ld	a0,-40(s0)
ffffffc0502067aa:	50a030ef          	jal	ra,ffffffc050209cb4 <strcmp>
ffffffc0502067ae:	87aa                	mv	a5,a0
ffffffc0502067b0:	e781                	bnez	a5,ffffffc0502067b8 <do_mbox_open+0x40>
ffffffc0502067b2:	fec42783          	lw	a5,-20(s0)
ffffffc0502067b6:	ac15                	j	ffffffc0502069ea <do_mbox_open+0x272>
ffffffc0502067b8:	fec42783          	lw	a5,-20(s0)
ffffffc0502067bc:	2785                	addiw	a5,a5,1
ffffffc0502067be:	fef42623          	sw	a5,-20(s0)
ffffffc0502067c2:	fec42783          	lw	a5,-20(s0)
ffffffc0502067c6:	0007871b          	sext.w	a4,a5
ffffffc0502067ca:	47bd                	li	a5,15
ffffffc0502067cc:	fce7d1e3          	bge	a5,a4,ffffffc05020678e <do_mbox_open+0x16>
ffffffc0502067d0:	fe042623          	sw	zero,-20(s0)
ffffffc0502067d4:	a419                	j	ffffffc0502069da <do_mbox_open+0x262>
ffffffc0502067d6:	00047697          	auipc	a3,0x47
ffffffc0502067da:	63a68693          	addi	a3,a3,1594 # ffffffc05024de10 <mbox>
ffffffc0502067de:	fec42703          	lw	a4,-20(s0)
ffffffc0502067e2:	87ba                	mv	a5,a4
ffffffc0502067e4:	0796                	slli	a5,a5,0x5
ffffffc0502067e6:	8f99                	sub	a5,a5,a4
ffffffc0502067e8:	078a                	slli	a5,a5,0x2
ffffffc0502067ea:	97b6                	add	a5,a5,a3
ffffffc0502067ec:	53bc                	lw	a5,96(a5)
ffffffc0502067ee:	873e                	mv	a4,a5
ffffffc0502067f0:	4785                	li	a5,1
ffffffc0502067f2:	1cf70f63          	beq	a4,a5,ffffffc0502069d0 <do_mbox_open+0x258>
ffffffc0502067f6:	00047697          	auipc	a3,0x47
ffffffc0502067fa:	61a68693          	addi	a3,a3,1562 # ffffffc05024de10 <mbox>
ffffffc0502067fe:	fec42703          	lw	a4,-20(s0)
ffffffc050206802:	87ba                	mv	a5,a4
ffffffc050206804:	0796                	slli	a5,a5,0x5
ffffffc050206806:	8f99                	sub	a5,a5,a4
ffffffc050206808:	078a                	slli	a5,a5,0x2
ffffffc05020680a:	97b6                	add	a5,a5,a3
ffffffc05020680c:	4705                	li	a4,1
ffffffc05020680e:	d3b8                	sw	a4,96(a5)
ffffffc050206810:	fec42703          	lw	a4,-20(s0)
ffffffc050206814:	87ba                	mv	a5,a4
ffffffc050206816:	0796                	slli	a5,a5,0x5
ffffffc050206818:	8f99                	sub	a5,a5,a4
ffffffc05020681a:	078a                	slli	a5,a5,0x2
ffffffc05020681c:	00047717          	auipc	a4,0x47
ffffffc050206820:	5f470713          	addi	a4,a4,1524 # ffffffc05024de10 <mbox>
ffffffc050206824:	97ba                	add	a5,a5,a4
ffffffc050206826:	fd843583          	ld	a1,-40(s0)
ffffffc05020682a:	853e                	mv	a0,a5
ffffffc05020682c:	5ba030ef          	jal	ra,ffffffc050209de6 <strcpy>
ffffffc050206830:	00047697          	auipc	a3,0x47
ffffffc050206834:	5e068693          	addi	a3,a3,1504 # ffffffc05024de10 <mbox>
ffffffc050206838:	fec42703          	lw	a4,-20(s0)
ffffffc05020683c:	87ba                	mv	a5,a4
ffffffc05020683e:	0796                	slli	a5,a5,0x5
ffffffc050206840:	8f99                	sub	a5,a5,a4
ffffffc050206842:	078a                	slli	a5,a5,0x2
ffffffc050206844:	97b6                	add	a5,a5,a3
ffffffc050206846:	0607a223          	sw	zero,100(a5)
ffffffc05020684a:	00047697          	auipc	a3,0x47
ffffffc05020684e:	5c668693          	addi	a3,a3,1478 # ffffffc05024de10 <mbox>
ffffffc050206852:	fec42703          	lw	a4,-20(s0)
ffffffc050206856:	87ba                	mv	a5,a4
ffffffc050206858:	0796                	slli	a5,a5,0x5
ffffffc05020685a:	8f99                	sub	a5,a5,a4
ffffffc05020685c:	078a                	slli	a5,a5,0x2
ffffffc05020685e:	97b6                	add	a5,a5,a3
ffffffc050206860:	0607a423          	sw	zero,104(a5)
ffffffc050206864:	00047697          	auipc	a3,0x47
ffffffc050206868:	5ac68693          	addi	a3,a3,1452 # ffffffc05024de10 <mbox>
ffffffc05020686c:	fec42703          	lw	a4,-20(s0)
ffffffc050206870:	87ba                	mv	a5,a4
ffffffc050206872:	0796                	slli	a5,a5,0x5
ffffffc050206874:	8f99                	sub	a5,a5,a4
ffffffc050206876:	078a                	slli	a5,a5,0x2
ffffffc050206878:	97b6                	add	a5,a5,a3
ffffffc05020687a:	0607a623          	sw	zero,108(a5)
ffffffc05020687e:	47a9                	li	a5,10
ffffffc050206880:	fef42423          	sw	a5,-24(s0)
ffffffc050206884:	a891                	j	ffffffc0502068d8 <do_mbox_open+0x160>
ffffffc050206886:	00048717          	auipc	a4,0x48
ffffffc05020688a:	d4a70713          	addi	a4,a4,-694 # ffffffc05024e5d0 <mlocks>
ffffffc05020688e:	fe842783          	lw	a5,-24(s0)
ffffffc050206892:	0796                	slli	a5,a5,0x5
ffffffc050206894:	97ba                	add	a5,a5,a4
ffffffc050206896:	439c                	lw	a5,0(a5)
ffffffc050206898:	2781                	sext.w	a5,a5
ffffffc05020689a:	eb95                	bnez	a5,ffffffc0502068ce <do_mbox_open+0x156>
ffffffc05020689c:	00048717          	auipc	a4,0x48
ffffffc0502068a0:	d3470713          	addi	a4,a4,-716 # ffffffc05024e5d0 <mlocks>
ffffffc0502068a4:	fe842783          	lw	a5,-24(s0)
ffffffc0502068a8:	0796                	slli	a5,a5,0x5
ffffffc0502068aa:	97ba                	add	a5,a5,a4
ffffffc0502068ac:	4705                	li	a4,1
ffffffc0502068ae:	c398                	sw	a4,0(a5)
ffffffc0502068b0:	00047697          	auipc	a3,0x47
ffffffc0502068b4:	56068693          	addi	a3,a3,1376 # ffffffc05024de10 <mbox>
ffffffc0502068b8:	fec42703          	lw	a4,-20(s0)
ffffffc0502068bc:	87ba                	mv	a5,a4
ffffffc0502068be:	0796                	slli	a5,a5,0x5
ffffffc0502068c0:	8f99                	sub	a5,a5,a4
ffffffc0502068c2:	078a                	slli	a5,a5,0x2
ffffffc0502068c4:	97b6                	add	a5,a5,a3
ffffffc0502068c6:	fe842703          	lw	a4,-24(s0)
ffffffc0502068ca:	dbb8                	sw	a4,112(a5)
ffffffc0502068cc:	a829                	j	ffffffc0502068e6 <do_mbox_open+0x16e>
ffffffc0502068ce:	fe842783          	lw	a5,-24(s0)
ffffffc0502068d2:	2785                	addiw	a5,a5,1
ffffffc0502068d4:	fef42423          	sw	a5,-24(s0)
ffffffc0502068d8:	fe842783          	lw	a5,-24(s0)
ffffffc0502068dc:	0007871b          	sext.w	a4,a5
ffffffc0502068e0:	47bd                	li	a5,15
ffffffc0502068e2:	fae7d2e3          	bge	a5,a4,ffffffc050206886 <do_mbox_open+0x10e>
ffffffc0502068e6:	47a9                	li	a5,10
ffffffc0502068e8:	fef42223          	sw	a5,-28(s0)
ffffffc0502068ec:	a8b9                	j	ffffffc05020694a <do_mbox_open+0x1d2>
ffffffc0502068ee:	00048697          	auipc	a3,0x48
ffffffc0502068f2:	06268693          	addi	a3,a3,98 # ffffffc05024e950 <cond>
ffffffc0502068f6:	fe442703          	lw	a4,-28(s0)
ffffffc0502068fa:	87ba                	mv	a5,a4
ffffffc0502068fc:	0786                	slli	a5,a5,0x1
ffffffc0502068fe:	97ba                	add	a5,a5,a4
ffffffc050206900:	078e                	slli	a5,a5,0x3
ffffffc050206902:	97b6                	add	a5,a5,a3
ffffffc050206904:	439c                	lw	a5,0(a5)
ffffffc050206906:	ef8d                	bnez	a5,ffffffc050206940 <do_mbox_open+0x1c8>
ffffffc050206908:	00048697          	auipc	a3,0x48
ffffffc05020690c:	04868693          	addi	a3,a3,72 # ffffffc05024e950 <cond>
ffffffc050206910:	fe442703          	lw	a4,-28(s0)
ffffffc050206914:	87ba                	mv	a5,a4
ffffffc050206916:	0786                	slli	a5,a5,0x1
ffffffc050206918:	97ba                	add	a5,a5,a4
ffffffc05020691a:	078e                	slli	a5,a5,0x3
ffffffc05020691c:	97b6                	add	a5,a5,a3
ffffffc05020691e:	4705                	li	a4,1
ffffffc050206920:	c398                	sw	a4,0(a5)
ffffffc050206922:	00047697          	auipc	a3,0x47
ffffffc050206926:	4ee68693          	addi	a3,a3,1262 # ffffffc05024de10 <mbox>
ffffffc05020692a:	fec42703          	lw	a4,-20(s0)
ffffffc05020692e:	87ba                	mv	a5,a4
ffffffc050206930:	0796                	slli	a5,a5,0x5
ffffffc050206932:	8f99                	sub	a5,a5,a4
ffffffc050206934:	078a                	slli	a5,a5,0x2
ffffffc050206936:	97b6                	add	a5,a5,a3
ffffffc050206938:	fe442703          	lw	a4,-28(s0)
ffffffc05020693c:	dfb8                	sw	a4,120(a5)
ffffffc05020693e:	a829                	j	ffffffc050206958 <do_mbox_open+0x1e0>
ffffffc050206940:	fe442783          	lw	a5,-28(s0)
ffffffc050206944:	2785                	addiw	a5,a5,1
ffffffc050206946:	fef42223          	sw	a5,-28(s0)
ffffffc05020694a:	fe442783          	lw	a5,-28(s0)
ffffffc05020694e:	0007871b          	sext.w	a4,a5
ffffffc050206952:	47bd                	li	a5,15
ffffffc050206954:	f8e7dde3          	bge	a5,a4,ffffffc0502068ee <do_mbox_open+0x176>
ffffffc050206958:	47a9                	li	a5,10
ffffffc05020695a:	fef42023          	sw	a5,-32(s0)
ffffffc05020695e:	a8b9                	j	ffffffc0502069bc <do_mbox_open+0x244>
ffffffc050206960:	00048697          	auipc	a3,0x48
ffffffc050206964:	ff068693          	addi	a3,a3,-16 # ffffffc05024e950 <cond>
ffffffc050206968:	fe042703          	lw	a4,-32(s0)
ffffffc05020696c:	87ba                	mv	a5,a4
ffffffc05020696e:	0786                	slli	a5,a5,0x1
ffffffc050206970:	97ba                	add	a5,a5,a4
ffffffc050206972:	078e                	slli	a5,a5,0x3
ffffffc050206974:	97b6                	add	a5,a5,a3
ffffffc050206976:	439c                	lw	a5,0(a5)
ffffffc050206978:	ef8d                	bnez	a5,ffffffc0502069b2 <do_mbox_open+0x23a>
ffffffc05020697a:	00048697          	auipc	a3,0x48
ffffffc05020697e:	fd668693          	addi	a3,a3,-42 # ffffffc05024e950 <cond>
ffffffc050206982:	fe042703          	lw	a4,-32(s0)
ffffffc050206986:	87ba                	mv	a5,a4
ffffffc050206988:	0786                	slli	a5,a5,0x1
ffffffc05020698a:	97ba                	add	a5,a5,a4
ffffffc05020698c:	078e                	slli	a5,a5,0x3
ffffffc05020698e:	97b6                	add	a5,a5,a3
ffffffc050206990:	4705                	li	a4,1
ffffffc050206992:	c398                	sw	a4,0(a5)
ffffffc050206994:	00047697          	auipc	a3,0x47
ffffffc050206998:	47c68693          	addi	a3,a3,1148 # ffffffc05024de10 <mbox>
ffffffc05020699c:	fec42703          	lw	a4,-20(s0)
ffffffc0502069a0:	87ba                	mv	a5,a4
ffffffc0502069a2:	0796                	slli	a5,a5,0x5
ffffffc0502069a4:	8f99                	sub	a5,a5,a4
ffffffc0502069a6:	078a                	slli	a5,a5,0x2
ffffffc0502069a8:	97b6                	add	a5,a5,a3
ffffffc0502069aa:	fe042703          	lw	a4,-32(s0)
ffffffc0502069ae:	dbf8                	sw	a4,116(a5)
ffffffc0502069b0:	a829                	j	ffffffc0502069ca <do_mbox_open+0x252>
ffffffc0502069b2:	fe042783          	lw	a5,-32(s0)
ffffffc0502069b6:	2785                	addiw	a5,a5,1
ffffffc0502069b8:	fef42023          	sw	a5,-32(s0)
ffffffc0502069bc:	fe042783          	lw	a5,-32(s0)
ffffffc0502069c0:	0007871b          	sext.w	a4,a5
ffffffc0502069c4:	47bd                	li	a5,15
ffffffc0502069c6:	f8e7dde3          	bge	a5,a4,ffffffc050206960 <do_mbox_open+0x1e8>
ffffffc0502069ca:	fec42783          	lw	a5,-20(s0)
ffffffc0502069ce:	a831                	j	ffffffc0502069ea <do_mbox_open+0x272>
ffffffc0502069d0:	fec42783          	lw	a5,-20(s0)
ffffffc0502069d4:	2785                	addiw	a5,a5,1
ffffffc0502069d6:	fef42623          	sw	a5,-20(s0)
ffffffc0502069da:	fec42783          	lw	a5,-20(s0)
ffffffc0502069de:	0007871b          	sext.w	a4,a5
ffffffc0502069e2:	47bd                	li	a5,15
ffffffc0502069e4:	dee7d9e3          	bge	a5,a4,ffffffc0502067d6 <do_mbox_open+0x5e>
ffffffc0502069e8:	57fd                	li	a5,-1
ffffffc0502069ea:	853e                	mv	a0,a5
ffffffc0502069ec:	70a2                	ld	ra,40(sp)
ffffffc0502069ee:	7402                	ld	s0,32(sp)
ffffffc0502069f0:	6145                	addi	sp,sp,48
ffffffc0502069f2:	8082                	ret

ffffffc0502069f4 <do_mbox_close>:
ffffffc0502069f4:	1101                	addi	sp,sp,-32
ffffffc0502069f6:	ec06                	sd	ra,24(sp)
ffffffc0502069f8:	e822                	sd	s0,16(sp)
ffffffc0502069fa:	1000                	addi	s0,sp,32
ffffffc0502069fc:	87aa                	mv	a5,a0
ffffffc0502069fe:	fef42623          	sw	a5,-20(s0)
ffffffc050206a02:	00047697          	auipc	a3,0x47
ffffffc050206a06:	40e68693          	addi	a3,a3,1038 # ffffffc05024de10 <mbox>
ffffffc050206a0a:	fec42703          	lw	a4,-20(s0)
ffffffc050206a0e:	87ba                	mv	a5,a4
ffffffc050206a10:	0796                	slli	a5,a5,0x5
ffffffc050206a12:	8f99                	sub	a5,a5,a4
ffffffc050206a14:	078a                	slli	a5,a5,0x2
ffffffc050206a16:	97b6                	add	a5,a5,a3
ffffffc050206a18:	0607a023          	sw	zero,96(a5)
ffffffc050206a1c:	00047697          	auipc	a3,0x47
ffffffc050206a20:	3f468693          	addi	a3,a3,1012 # ffffffc05024de10 <mbox>
ffffffc050206a24:	fec42703          	lw	a4,-20(s0)
ffffffc050206a28:	87ba                	mv	a5,a4
ffffffc050206a2a:	0796                	slli	a5,a5,0x5
ffffffc050206a2c:	8f99                	sub	a5,a5,a4
ffffffc050206a2e:	078a                	slli	a5,a5,0x2
ffffffc050206a30:	97b6                	add	a5,a5,a3
ffffffc050206a32:	0607a223          	sw	zero,100(a5)
ffffffc050206a36:	00047697          	auipc	a3,0x47
ffffffc050206a3a:	3da68693          	addi	a3,a3,986 # ffffffc05024de10 <mbox>
ffffffc050206a3e:	fec42703          	lw	a4,-20(s0)
ffffffc050206a42:	87ba                	mv	a5,a4
ffffffc050206a44:	0796                	slli	a5,a5,0x5
ffffffc050206a46:	8f99                	sub	a5,a5,a4
ffffffc050206a48:	078a                	slli	a5,a5,0x2
ffffffc050206a4a:	97b6                	add	a5,a5,a3
ffffffc050206a4c:	0607a423          	sw	zero,104(a5)
ffffffc050206a50:	00047697          	auipc	a3,0x47
ffffffc050206a54:	3c068693          	addi	a3,a3,960 # ffffffc05024de10 <mbox>
ffffffc050206a58:	fec42703          	lw	a4,-20(s0)
ffffffc050206a5c:	87ba                	mv	a5,a4
ffffffc050206a5e:	0796                	slli	a5,a5,0x5
ffffffc050206a60:	8f99                	sub	a5,a5,a4
ffffffc050206a62:	078a                	slli	a5,a5,0x2
ffffffc050206a64:	97b6                	add	a5,a5,a3
ffffffc050206a66:	0607a623          	sw	zero,108(a5)
ffffffc050206a6a:	fec42703          	lw	a4,-20(s0)
ffffffc050206a6e:	87ba                	mv	a5,a4
ffffffc050206a70:	0796                	slli	a5,a5,0x5
ffffffc050206a72:	8f99                	sub	a5,a5,a4
ffffffc050206a74:	078a                	slli	a5,a5,0x2
ffffffc050206a76:	00047717          	auipc	a4,0x47
ffffffc050206a7a:	39a70713          	addi	a4,a4,922 # ffffffc05024de10 <mbox>
ffffffc050206a7e:	97ba                	add	a5,a5,a4
ffffffc050206a80:	4679                	li	a2,30
ffffffc050206a82:	4581                	li	a1,0
ffffffc050206a84:	853e                	mv	a0,a5
ffffffc050206a86:	17a030ef          	jal	ra,ffffffc050209c00 <memset>
ffffffc050206a8a:	00047697          	auipc	a3,0x47
ffffffc050206a8e:	38668693          	addi	a3,a3,902 # ffffffc05024de10 <mbox>
ffffffc050206a92:	fec42703          	lw	a4,-20(s0)
ffffffc050206a96:	87ba                	mv	a5,a4
ffffffc050206a98:	0796                	slli	a5,a5,0x5
ffffffc050206a9a:	8f99                	sub	a5,a5,a4
ffffffc050206a9c:	078a                	slli	a5,a5,0x2
ffffffc050206a9e:	97b6                	add	a5,a5,a3
ffffffc050206aa0:	5fb8                	lw	a4,120(a5)
ffffffc050206aa2:	00048697          	auipc	a3,0x48
ffffffc050206aa6:	eae68693          	addi	a3,a3,-338 # ffffffc05024e950 <cond>
ffffffc050206aaa:	87ba                	mv	a5,a4
ffffffc050206aac:	0786                	slli	a5,a5,0x1
ffffffc050206aae:	97ba                	add	a5,a5,a4
ffffffc050206ab0:	078e                	slli	a5,a5,0x3
ffffffc050206ab2:	97b6                	add	a5,a5,a3
ffffffc050206ab4:	0007a223          	sw	zero,4(a5)
ffffffc050206ab8:	00047697          	auipc	a3,0x47
ffffffc050206abc:	35868693          	addi	a3,a3,856 # ffffffc05024de10 <mbox>
ffffffc050206ac0:	fec42703          	lw	a4,-20(s0)
ffffffc050206ac4:	87ba                	mv	a5,a4
ffffffc050206ac6:	0796                	slli	a5,a5,0x5
ffffffc050206ac8:	8f99                	sub	a5,a5,a4
ffffffc050206aca:	078a                	slli	a5,a5,0x2
ffffffc050206acc:	97b6                	add	a5,a5,a3
ffffffc050206ace:	5bf8                	lw	a4,116(a5)
ffffffc050206ad0:	00048697          	auipc	a3,0x48
ffffffc050206ad4:	e8068693          	addi	a3,a3,-384 # ffffffc05024e950 <cond>
ffffffc050206ad8:	87ba                	mv	a5,a4
ffffffc050206ada:	0786                	slli	a5,a5,0x1
ffffffc050206adc:	97ba                	add	a5,a5,a4
ffffffc050206ade:	078e                	slli	a5,a5,0x3
ffffffc050206ae0:	97b6                	add	a5,a5,a3
ffffffc050206ae2:	0007a223          	sw	zero,4(a5)
ffffffc050206ae6:	0001                	nop
ffffffc050206ae8:	60e2                	ld	ra,24(sp)
ffffffc050206aea:	6442                	ld	s0,16(sp)
ffffffc050206aec:	6105                	addi	sp,sp,32
ffffffc050206aee:	8082                	ret

ffffffc050206af0 <do_mbox_send>:
ffffffc050206af0:	7139                	addi	sp,sp,-64
ffffffc050206af2:	fc06                	sd	ra,56(sp)
ffffffc050206af4:	f822                	sd	s0,48(sp)
ffffffc050206af6:	0080                	addi	s0,sp,64
ffffffc050206af8:	87aa                	mv	a5,a0
ffffffc050206afa:	fcb43023          	sd	a1,-64(s0)
ffffffc050206afe:	8732                	mv	a4,a2
ffffffc050206b00:	fcf42623          	sw	a5,-52(s0)
ffffffc050206b04:	87ba                	mv	a5,a4
ffffffc050206b06:	fcf42423          	sw	a5,-56(s0)
ffffffc050206b0a:	00047697          	auipc	a3,0x47
ffffffc050206b0e:	30668693          	addi	a3,a3,774 # ffffffc05024de10 <mbox>
ffffffc050206b12:	fcc42703          	lw	a4,-52(s0)
ffffffc050206b16:	87ba                	mv	a5,a4
ffffffc050206b18:	0796                	slli	a5,a5,0x5
ffffffc050206b1a:	8f99                	sub	a5,a5,a4
ffffffc050206b1c:	078a                	slli	a5,a5,0x2
ffffffc050206b1e:	97b6                	add	a5,a5,a3
ffffffc050206b20:	5bbc                	lw	a5,112(a5)
ffffffc050206b22:	00048717          	auipc	a4,0x48
ffffffc050206b26:	aae70713          	addi	a4,a4,-1362 # ffffffc05024e5d0 <mlocks>
ffffffc050206b2a:	0796                	slli	a5,a5,0x5
ffffffc050206b2c:	97ba                	add	a5,a5,a4
ffffffc050206b2e:	0007a023          	sw	zero,0(a5)
ffffffc050206b32:	00047697          	auipc	a3,0x47
ffffffc050206b36:	2de68693          	addi	a3,a3,734 # ffffffc05024de10 <mbox>
ffffffc050206b3a:	fcc42703          	lw	a4,-52(s0)
ffffffc050206b3e:	87ba                	mv	a5,a4
ffffffc050206b40:	0796                	slli	a5,a5,0x5
ffffffc050206b42:	8f99                	sub	a5,a5,a4
ffffffc050206b44:	078a                	slli	a5,a5,0x2
ffffffc050206b46:	97b6                	add	a5,a5,a3
ffffffc050206b48:	5bbc                	lw	a5,112(a5)
ffffffc050206b4a:	853e                	mv	a0,a5
ffffffc050206b4c:	c9cff0ef          	jal	ra,ffffffc050205fe8 <do_mutex_lock_acquire>
ffffffc050206b50:	a041                	j	ffffffc050206bd0 <do_mbox_send+0xe0>
ffffffc050206b52:	00047697          	auipc	a3,0x47
ffffffc050206b56:	2be68693          	addi	a3,a3,702 # ffffffc05024de10 <mbox>
ffffffc050206b5a:	fcc42703          	lw	a4,-52(s0)
ffffffc050206b5e:	87ba                	mv	a5,a4
ffffffc050206b60:	0796                	slli	a5,a5,0x5
ffffffc050206b62:	8f99                	sub	a5,a5,a4
ffffffc050206b64:	078a                	slli	a5,a5,0x2
ffffffc050206b66:	97b6                	add	a5,a5,a3
ffffffc050206b68:	5bf0                	lw	a2,116(a5)
ffffffc050206b6a:	00047697          	auipc	a3,0x47
ffffffc050206b6e:	2a668693          	addi	a3,a3,678 # ffffffc05024de10 <mbox>
ffffffc050206b72:	fcc42703          	lw	a4,-52(s0)
ffffffc050206b76:	87ba                	mv	a5,a4
ffffffc050206b78:	0796                	slli	a5,a5,0x5
ffffffc050206b7a:	8f99                	sub	a5,a5,a4
ffffffc050206b7c:	078a                	slli	a5,a5,0x2
ffffffc050206b7e:	97b6                	add	a5,a5,a3
ffffffc050206b80:	5bbc                	lw	a5,112(a5)
ffffffc050206b82:	85be                	mv	a1,a5
ffffffc050206b84:	8532                	mv	a0,a2
ffffffc050206b86:	9e5ff0ef          	jal	ra,ffffffc05020656a <do_condition_wait>
ffffffc050206b8a:	00047697          	auipc	a3,0x47
ffffffc050206b8e:	28668693          	addi	a3,a3,646 # ffffffc05024de10 <mbox>
ffffffc050206b92:	fcc42703          	lw	a4,-52(s0)
ffffffc050206b96:	87ba                	mv	a5,a4
ffffffc050206b98:	0796                	slli	a5,a5,0x5
ffffffc050206b9a:	8f99                	sub	a5,a5,a4
ffffffc050206b9c:	078a                	slli	a5,a5,0x2
ffffffc050206b9e:	97b6                	add	a5,a5,a3
ffffffc050206ba0:	5bf8                	lw	a4,116(a5)
ffffffc050206ba2:	00048697          	auipc	a3,0x48
ffffffc050206ba6:	dae68693          	addi	a3,a3,-594 # ffffffc05024e950 <cond>
ffffffc050206baa:	87ba                	mv	a5,a4
ffffffc050206bac:	0786                	slli	a5,a5,0x1
ffffffc050206bae:	97ba                	add	a5,a5,a4
ffffffc050206bb0:	078e                	slli	a5,a5,0x3
ffffffc050206bb2:	97b6                	add	a5,a5,a3
ffffffc050206bb4:	43dc                	lw	a5,4(a5)
ffffffc050206bb6:	2785                	addiw	a5,a5,1
ffffffc050206bb8:	0007869b          	sext.w	a3,a5
ffffffc050206bbc:	00048617          	auipc	a2,0x48
ffffffc050206bc0:	d9460613          	addi	a2,a2,-620 # ffffffc05024e950 <cond>
ffffffc050206bc4:	87ba                	mv	a5,a4
ffffffc050206bc6:	0786                	slli	a5,a5,0x1
ffffffc050206bc8:	97ba                	add	a5,a5,a4
ffffffc050206bca:	078e                	slli	a5,a5,0x3
ffffffc050206bcc:	97b2                	add	a5,a5,a2
ffffffc050206bce:	c3d4                	sw	a3,4(a5)
ffffffc050206bd0:	00047697          	auipc	a3,0x47
ffffffc050206bd4:	24068693          	addi	a3,a3,576 # ffffffc05024de10 <mbox>
ffffffc050206bd8:	fcc42703          	lw	a4,-52(s0)
ffffffc050206bdc:	87ba                	mv	a5,a4
ffffffc050206bde:	0796                	slli	a5,a5,0x5
ffffffc050206be0:	8f99                	sub	a5,a5,a4
ffffffc050206be2:	078a                	slli	a5,a5,0x2
ffffffc050206be4:	97b6                	add	a5,a5,a3
ffffffc050206be6:	53fc                	lw	a5,100(a5)
ffffffc050206be8:	fc842703          	lw	a4,-56(s0)
ffffffc050206bec:	9fb9                	addw	a5,a5,a4
ffffffc050206bee:	2781                	sext.w	a5,a5
ffffffc050206bf0:	873e                	mv	a4,a5
ffffffc050206bf2:	04000793          	li	a5,64
ffffffc050206bf6:	f4e7cee3          	blt	a5,a4,ffffffc050206b52 <do_mbox_send+0x62>
ffffffc050206bfa:	00047697          	auipc	a3,0x47
ffffffc050206bfe:	21668693          	addi	a3,a3,534 # ffffffc05024de10 <mbox>
ffffffc050206c02:	fcc42703          	lw	a4,-52(s0)
ffffffc050206c06:	87ba                	mv	a5,a4
ffffffc050206c08:	0796                	slli	a5,a5,0x5
ffffffc050206c0a:	8f99                	sub	a5,a5,a4
ffffffc050206c0c:	078a                	slli	a5,a5,0x2
ffffffc050206c0e:	97b6                	add	a5,a5,a3
ffffffc050206c10:	53fc                	lw	a5,100(a5)
ffffffc050206c12:	fc842703          	lw	a4,-56(s0)
ffffffc050206c16:	9fb9                	addw	a5,a5,a4
ffffffc050206c18:	0007869b          	sext.w	a3,a5
ffffffc050206c1c:	00047617          	auipc	a2,0x47
ffffffc050206c20:	1f460613          	addi	a2,a2,500 # ffffffc05024de10 <mbox>
ffffffc050206c24:	fcc42703          	lw	a4,-52(s0)
ffffffc050206c28:	87ba                	mv	a5,a4
ffffffc050206c2a:	0796                	slli	a5,a5,0x5
ffffffc050206c2c:	8f99                	sub	a5,a5,a4
ffffffc050206c2e:	078a                	slli	a5,a5,0x2
ffffffc050206c30:	97b2                	add	a5,a5,a2
ffffffc050206c32:	d3f4                	sw	a3,100(a5)
ffffffc050206c34:	fc043783          	ld	a5,-64(s0)
ffffffc050206c38:	fef43023          	sd	a5,-32(s0)
ffffffc050206c3c:	fcc42703          	lw	a4,-52(s0)
ffffffc050206c40:	87ba                	mv	a5,a4
ffffffc050206c42:	0796                	slli	a5,a5,0x5
ffffffc050206c44:	8f99                	sub	a5,a5,a4
ffffffc050206c46:	078a                	slli	a5,a5,0x2
ffffffc050206c48:	01078713          	addi	a4,a5,16
ffffffc050206c4c:	00047797          	auipc	a5,0x47
ffffffc050206c50:	1c478793          	addi	a5,a5,452 # ffffffc05024de10 <mbox>
ffffffc050206c54:	97ba                	add	a5,a5,a4
ffffffc050206c56:	07b9                	addi	a5,a5,14
ffffffc050206c58:	fcf43c23          	sd	a5,-40(s0)
ffffffc050206c5c:	fe042623          	sw	zero,-20(s0)
ffffffc050206c60:	a8b9                	j	ffffffc050206cbe <do_mbox_send+0x1ce>
ffffffc050206c62:	fec42783          	lw	a5,-20(s0)
ffffffc050206c66:	fe043703          	ld	a4,-32(s0)
ffffffc050206c6a:	00f706b3          	add	a3,a4,a5
ffffffc050206c6e:	00047617          	auipc	a2,0x47
ffffffc050206c72:	1a260613          	addi	a2,a2,418 # ffffffc05024de10 <mbox>
ffffffc050206c76:	fcc42703          	lw	a4,-52(s0)
ffffffc050206c7a:	87ba                	mv	a5,a4
ffffffc050206c7c:	0796                	slli	a5,a5,0x5
ffffffc050206c7e:	8f99                	sub	a5,a5,a4
ffffffc050206c80:	078a                	slli	a5,a5,0x2
ffffffc050206c82:	97b2                	add	a5,a5,a2
ffffffc050206c84:	57fc                	lw	a5,108(a5)
ffffffc050206c86:	fec42703          	lw	a4,-20(s0)
ffffffc050206c8a:	9fb9                	addw	a5,a5,a4
ffffffc050206c8c:	2781                	sext.w	a5,a5
ffffffc050206c8e:	873e                	mv	a4,a5
ffffffc050206c90:	41f7579b          	sraiw	a5,a4,0x1f
ffffffc050206c94:	01a7d79b          	srliw	a5,a5,0x1a
ffffffc050206c98:	9f3d                	addw	a4,a4,a5
ffffffc050206c9a:	03f77713          	andi	a4,a4,63
ffffffc050206c9e:	40f707bb          	subw	a5,a4,a5
ffffffc050206ca2:	2781                	sext.w	a5,a5
ffffffc050206ca4:	873e                	mv	a4,a5
ffffffc050206ca6:	fd843783          	ld	a5,-40(s0)
ffffffc050206caa:	97ba                	add	a5,a5,a4
ffffffc050206cac:	0006c703          	lbu	a4,0(a3)
ffffffc050206cb0:	00e78023          	sb	a4,0(a5)
ffffffc050206cb4:	fec42783          	lw	a5,-20(s0)
ffffffc050206cb8:	2785                	addiw	a5,a5,1
ffffffc050206cba:	fef42623          	sw	a5,-20(s0)
ffffffc050206cbe:	fec42703          	lw	a4,-20(s0)
ffffffc050206cc2:	fc842783          	lw	a5,-56(s0)
ffffffc050206cc6:	2701                	sext.w	a4,a4
ffffffc050206cc8:	2781                	sext.w	a5,a5
ffffffc050206cca:	f8f74ce3          	blt	a4,a5,ffffffc050206c62 <do_mbox_send+0x172>
ffffffc050206cce:	00047697          	auipc	a3,0x47
ffffffc050206cd2:	14268693          	addi	a3,a3,322 # ffffffc05024de10 <mbox>
ffffffc050206cd6:	fcc42703          	lw	a4,-52(s0)
ffffffc050206cda:	87ba                	mv	a5,a4
ffffffc050206cdc:	0796                	slli	a5,a5,0x5
ffffffc050206cde:	8f99                	sub	a5,a5,a4
ffffffc050206ce0:	078a                	slli	a5,a5,0x2
ffffffc050206ce2:	97b6                	add	a5,a5,a3
ffffffc050206ce4:	57fc                	lw	a5,108(a5)
ffffffc050206ce6:	fc842703          	lw	a4,-56(s0)
ffffffc050206cea:	9fb9                	addw	a5,a5,a4
ffffffc050206cec:	2781                	sext.w	a5,a5
ffffffc050206cee:	873e                	mv	a4,a5
ffffffc050206cf0:	41f7579b          	sraiw	a5,a4,0x1f
ffffffc050206cf4:	01a7d79b          	srliw	a5,a5,0x1a
ffffffc050206cf8:	9f3d                	addw	a4,a4,a5
ffffffc050206cfa:	03f77713          	andi	a4,a4,63
ffffffc050206cfe:	40f707bb          	subw	a5,a4,a5
ffffffc050206d02:	0007869b          	sext.w	a3,a5
ffffffc050206d06:	00047617          	auipc	a2,0x47
ffffffc050206d0a:	10a60613          	addi	a2,a2,266 # ffffffc05024de10 <mbox>
ffffffc050206d0e:	fcc42703          	lw	a4,-52(s0)
ffffffc050206d12:	87ba                	mv	a5,a4
ffffffc050206d14:	0796                	slli	a5,a5,0x5
ffffffc050206d16:	8f99                	sub	a5,a5,a4
ffffffc050206d18:	078a                	slli	a5,a5,0x2
ffffffc050206d1a:	97b2                	add	a5,a5,a2
ffffffc050206d1c:	d7f4                	sw	a3,108(a5)
ffffffc050206d1e:	00047697          	auipc	a3,0x47
ffffffc050206d22:	0f268693          	addi	a3,a3,242 # ffffffc05024de10 <mbox>
ffffffc050206d26:	fcc42703          	lw	a4,-52(s0)
ffffffc050206d2a:	87ba                	mv	a5,a4
ffffffc050206d2c:	0796                	slli	a5,a5,0x5
ffffffc050206d2e:	8f99                	sub	a5,a5,a4
ffffffc050206d30:	078a                	slli	a5,a5,0x2
ffffffc050206d32:	97b6                	add	a5,a5,a3
ffffffc050206d34:	5fbc                	lw	a5,120(a5)
ffffffc050206d36:	853e                	mv	a0,a5
ffffffc050206d38:	8dbff0ef          	jal	ra,ffffffc050206612 <do_condition_broadcast>
ffffffc050206d3c:	00047697          	auipc	a3,0x47
ffffffc050206d40:	0d468693          	addi	a3,a3,212 # ffffffc05024de10 <mbox>
ffffffc050206d44:	fcc42703          	lw	a4,-52(s0)
ffffffc050206d48:	87ba                	mv	a5,a4
ffffffc050206d4a:	0796                	slli	a5,a5,0x5
ffffffc050206d4c:	8f99                	sub	a5,a5,a4
ffffffc050206d4e:	078a                	slli	a5,a5,0x2
ffffffc050206d50:	97b6                	add	a5,a5,a3
ffffffc050206d52:	5bbc                	lw	a5,112(a5)
ffffffc050206d54:	853e                	mv	a0,a5
ffffffc050206d56:	b70ff0ef          	jal	ra,ffffffc0502060c6 <do_mutex_lock_release>
ffffffc050206d5a:	00047697          	auipc	a3,0x47
ffffffc050206d5e:	0b668693          	addi	a3,a3,182 # ffffffc05024de10 <mbox>
ffffffc050206d62:	fcc42703          	lw	a4,-52(s0)
ffffffc050206d66:	87ba                	mv	a5,a4
ffffffc050206d68:	0796                	slli	a5,a5,0x5
ffffffc050206d6a:	8f99                	sub	a5,a5,a4
ffffffc050206d6c:	078a                	slli	a5,a5,0x2
ffffffc050206d6e:	97b6                	add	a5,a5,a3
ffffffc050206d70:	5bf8                	lw	a4,116(a5)
ffffffc050206d72:	00048697          	auipc	a3,0x48
ffffffc050206d76:	bde68693          	addi	a3,a3,-1058 # ffffffc05024e950 <cond>
ffffffc050206d7a:	87ba                	mv	a5,a4
ffffffc050206d7c:	0786                	slli	a5,a5,0x1
ffffffc050206d7e:	97ba                	add	a5,a5,a4
ffffffc050206d80:	078e                	slli	a5,a5,0x3
ffffffc050206d82:	97b6                	add	a5,a5,a3
ffffffc050206d84:	43dc                	lw	a5,4(a5)
ffffffc050206d86:	853e                	mv	a0,a5
ffffffc050206d88:	70e2                	ld	ra,56(sp)
ffffffc050206d8a:	7442                	ld	s0,48(sp)
ffffffc050206d8c:	6121                	addi	sp,sp,64
ffffffc050206d8e:	8082                	ret

ffffffc050206d90 <do_mbox_recv>:
ffffffc050206d90:	7139                	addi	sp,sp,-64
ffffffc050206d92:	fc06                	sd	ra,56(sp)
ffffffc050206d94:	f822                	sd	s0,48(sp)
ffffffc050206d96:	0080                	addi	s0,sp,64
ffffffc050206d98:	87aa                	mv	a5,a0
ffffffc050206d9a:	fcb43023          	sd	a1,-64(s0)
ffffffc050206d9e:	8732                	mv	a4,a2
ffffffc050206da0:	fcf42623          	sw	a5,-52(s0)
ffffffc050206da4:	87ba                	mv	a5,a4
ffffffc050206da6:	fcf42423          	sw	a5,-56(s0)
ffffffc050206daa:	00047697          	auipc	a3,0x47
ffffffc050206dae:	06668693          	addi	a3,a3,102 # ffffffc05024de10 <mbox>
ffffffc050206db2:	fcc42703          	lw	a4,-52(s0)
ffffffc050206db6:	87ba                	mv	a5,a4
ffffffc050206db8:	0796                	slli	a5,a5,0x5
ffffffc050206dba:	8f99                	sub	a5,a5,a4
ffffffc050206dbc:	078a                	slli	a5,a5,0x2
ffffffc050206dbe:	97b6                	add	a5,a5,a3
ffffffc050206dc0:	5bbc                	lw	a5,112(a5)
ffffffc050206dc2:	00048717          	auipc	a4,0x48
ffffffc050206dc6:	80e70713          	addi	a4,a4,-2034 # ffffffc05024e5d0 <mlocks>
ffffffc050206dca:	0796                	slli	a5,a5,0x5
ffffffc050206dcc:	97ba                	add	a5,a5,a4
ffffffc050206dce:	0007a023          	sw	zero,0(a5)
ffffffc050206dd2:	00047697          	auipc	a3,0x47
ffffffc050206dd6:	03e68693          	addi	a3,a3,62 # ffffffc05024de10 <mbox>
ffffffc050206dda:	fcc42703          	lw	a4,-52(s0)
ffffffc050206dde:	87ba                	mv	a5,a4
ffffffc050206de0:	0796                	slli	a5,a5,0x5
ffffffc050206de2:	8f99                	sub	a5,a5,a4
ffffffc050206de4:	078a                	slli	a5,a5,0x2
ffffffc050206de6:	97b6                	add	a5,a5,a3
ffffffc050206de8:	5bbc                	lw	a5,112(a5)
ffffffc050206dea:	853e                	mv	a0,a5
ffffffc050206dec:	9fcff0ef          	jal	ra,ffffffc050205fe8 <do_mutex_lock_acquire>
ffffffc050206df0:	a041                	j	ffffffc050206e70 <do_mbox_recv+0xe0>
ffffffc050206df2:	00047697          	auipc	a3,0x47
ffffffc050206df6:	01e68693          	addi	a3,a3,30 # ffffffc05024de10 <mbox>
ffffffc050206dfa:	fcc42703          	lw	a4,-52(s0)
ffffffc050206dfe:	87ba                	mv	a5,a4
ffffffc050206e00:	0796                	slli	a5,a5,0x5
ffffffc050206e02:	8f99                	sub	a5,a5,a4
ffffffc050206e04:	078a                	slli	a5,a5,0x2
ffffffc050206e06:	97b6                	add	a5,a5,a3
ffffffc050206e08:	5fb0                	lw	a2,120(a5)
ffffffc050206e0a:	00047697          	auipc	a3,0x47
ffffffc050206e0e:	00668693          	addi	a3,a3,6 # ffffffc05024de10 <mbox>
ffffffc050206e12:	fcc42703          	lw	a4,-52(s0)
ffffffc050206e16:	87ba                	mv	a5,a4
ffffffc050206e18:	0796                	slli	a5,a5,0x5
ffffffc050206e1a:	8f99                	sub	a5,a5,a4
ffffffc050206e1c:	078a                	slli	a5,a5,0x2
ffffffc050206e1e:	97b6                	add	a5,a5,a3
ffffffc050206e20:	5bbc                	lw	a5,112(a5)
ffffffc050206e22:	85be                	mv	a1,a5
ffffffc050206e24:	8532                	mv	a0,a2
ffffffc050206e26:	f44ff0ef          	jal	ra,ffffffc05020656a <do_condition_wait>
ffffffc050206e2a:	00047697          	auipc	a3,0x47
ffffffc050206e2e:	fe668693          	addi	a3,a3,-26 # ffffffc05024de10 <mbox>
ffffffc050206e32:	fcc42703          	lw	a4,-52(s0)
ffffffc050206e36:	87ba                	mv	a5,a4
ffffffc050206e38:	0796                	slli	a5,a5,0x5
ffffffc050206e3a:	8f99                	sub	a5,a5,a4
ffffffc050206e3c:	078a                	slli	a5,a5,0x2
ffffffc050206e3e:	97b6                	add	a5,a5,a3
ffffffc050206e40:	5fb8                	lw	a4,120(a5)
ffffffc050206e42:	00048697          	auipc	a3,0x48
ffffffc050206e46:	b0e68693          	addi	a3,a3,-1266 # ffffffc05024e950 <cond>
ffffffc050206e4a:	87ba                	mv	a5,a4
ffffffc050206e4c:	0786                	slli	a5,a5,0x1
ffffffc050206e4e:	97ba                	add	a5,a5,a4
ffffffc050206e50:	078e                	slli	a5,a5,0x3
ffffffc050206e52:	97b6                	add	a5,a5,a3
ffffffc050206e54:	43dc                	lw	a5,4(a5)
ffffffc050206e56:	2785                	addiw	a5,a5,1
ffffffc050206e58:	0007869b          	sext.w	a3,a5
ffffffc050206e5c:	00048617          	auipc	a2,0x48
ffffffc050206e60:	af460613          	addi	a2,a2,-1292 # ffffffc05024e950 <cond>
ffffffc050206e64:	87ba                	mv	a5,a4
ffffffc050206e66:	0786                	slli	a5,a5,0x1
ffffffc050206e68:	97ba                	add	a5,a5,a4
ffffffc050206e6a:	078e                	slli	a5,a5,0x3
ffffffc050206e6c:	97b2                	add	a5,a5,a2
ffffffc050206e6e:	c3d4                	sw	a3,4(a5)
ffffffc050206e70:	00047697          	auipc	a3,0x47
ffffffc050206e74:	fa068693          	addi	a3,a3,-96 # ffffffc05024de10 <mbox>
ffffffc050206e78:	fcc42703          	lw	a4,-52(s0)
ffffffc050206e7c:	87ba                	mv	a5,a4
ffffffc050206e7e:	0796                	slli	a5,a5,0x5
ffffffc050206e80:	8f99                	sub	a5,a5,a4
ffffffc050206e82:	078a                	slli	a5,a5,0x2
ffffffc050206e84:	97b6                	add	a5,a5,a3
ffffffc050206e86:	53f8                	lw	a4,100(a5)
ffffffc050206e88:	fc842783          	lw	a5,-56(s0)
ffffffc050206e8c:	40f707bb          	subw	a5,a4,a5
ffffffc050206e90:	2781                	sext.w	a5,a5
ffffffc050206e92:	f607c0e3          	bltz	a5,ffffffc050206df2 <do_mbox_recv+0x62>
ffffffc050206e96:	00047697          	auipc	a3,0x47
ffffffc050206e9a:	f7a68693          	addi	a3,a3,-134 # ffffffc05024de10 <mbox>
ffffffc050206e9e:	fcc42703          	lw	a4,-52(s0)
ffffffc050206ea2:	87ba                	mv	a5,a4
ffffffc050206ea4:	0796                	slli	a5,a5,0x5
ffffffc050206ea6:	8f99                	sub	a5,a5,a4
ffffffc050206ea8:	078a                	slli	a5,a5,0x2
ffffffc050206eaa:	97b6                	add	a5,a5,a3
ffffffc050206eac:	53f8                	lw	a4,100(a5)
ffffffc050206eae:	fc842783          	lw	a5,-56(s0)
ffffffc050206eb2:	40f707bb          	subw	a5,a4,a5
ffffffc050206eb6:	0007869b          	sext.w	a3,a5
ffffffc050206eba:	00047617          	auipc	a2,0x47
ffffffc050206ebe:	f5660613          	addi	a2,a2,-170 # ffffffc05024de10 <mbox>
ffffffc050206ec2:	fcc42703          	lw	a4,-52(s0)
ffffffc050206ec6:	87ba                	mv	a5,a4
ffffffc050206ec8:	0796                	slli	a5,a5,0x5
ffffffc050206eca:	8f99                	sub	a5,a5,a4
ffffffc050206ecc:	078a                	slli	a5,a5,0x2
ffffffc050206ece:	97b2                	add	a5,a5,a2
ffffffc050206ed0:	d3f4                	sw	a3,100(a5)
ffffffc050206ed2:	fcc42703          	lw	a4,-52(s0)
ffffffc050206ed6:	87ba                	mv	a5,a4
ffffffc050206ed8:	0796                	slli	a5,a5,0x5
ffffffc050206eda:	8f99                	sub	a5,a5,a4
ffffffc050206edc:	078a                	slli	a5,a5,0x2
ffffffc050206ede:	01078713          	addi	a4,a5,16
ffffffc050206ee2:	00047797          	auipc	a5,0x47
ffffffc050206ee6:	f2e78793          	addi	a5,a5,-210 # ffffffc05024de10 <mbox>
ffffffc050206eea:	97ba                	add	a5,a5,a4
ffffffc050206eec:	07b9                	addi	a5,a5,14
ffffffc050206eee:	fef43023          	sd	a5,-32(s0)
ffffffc050206ef2:	fc043783          	ld	a5,-64(s0)
ffffffc050206ef6:	fcf43c23          	sd	a5,-40(s0)
ffffffc050206efa:	fe042623          	sw	zero,-20(s0)
ffffffc050206efe:	a8b1                	j	ffffffc050206f5a <do_mbox_recv+0x1ca>
ffffffc050206f00:	00047697          	auipc	a3,0x47
ffffffc050206f04:	f1068693          	addi	a3,a3,-240 # ffffffc05024de10 <mbox>
ffffffc050206f08:	fcc42703          	lw	a4,-52(s0)
ffffffc050206f0c:	87ba                	mv	a5,a4
ffffffc050206f0e:	0796                	slli	a5,a5,0x5
ffffffc050206f10:	8f99                	sub	a5,a5,a4
ffffffc050206f12:	078a                	slli	a5,a5,0x2
ffffffc050206f14:	97b6                	add	a5,a5,a3
ffffffc050206f16:	57bc                	lw	a5,104(a5)
ffffffc050206f18:	fec42703          	lw	a4,-20(s0)
ffffffc050206f1c:	9fb9                	addw	a5,a5,a4
ffffffc050206f1e:	2781                	sext.w	a5,a5
ffffffc050206f20:	873e                	mv	a4,a5
ffffffc050206f22:	41f7579b          	sraiw	a5,a4,0x1f
ffffffc050206f26:	01a7d79b          	srliw	a5,a5,0x1a
ffffffc050206f2a:	9f3d                	addw	a4,a4,a5
ffffffc050206f2c:	03f77713          	andi	a4,a4,63
ffffffc050206f30:	40f707bb          	subw	a5,a4,a5
ffffffc050206f34:	2781                	sext.w	a5,a5
ffffffc050206f36:	873e                	mv	a4,a5
ffffffc050206f38:	fe043783          	ld	a5,-32(s0)
ffffffc050206f3c:	973e                	add	a4,a4,a5
ffffffc050206f3e:	fec42783          	lw	a5,-20(s0)
ffffffc050206f42:	fd843683          	ld	a3,-40(s0)
ffffffc050206f46:	97b6                	add	a5,a5,a3
ffffffc050206f48:	00074703          	lbu	a4,0(a4)
ffffffc050206f4c:	00e78023          	sb	a4,0(a5)
ffffffc050206f50:	fec42783          	lw	a5,-20(s0)
ffffffc050206f54:	2785                	addiw	a5,a5,1
ffffffc050206f56:	fef42623          	sw	a5,-20(s0)
ffffffc050206f5a:	fec42703          	lw	a4,-20(s0)
ffffffc050206f5e:	fc842783          	lw	a5,-56(s0)
ffffffc050206f62:	2701                	sext.w	a4,a4
ffffffc050206f64:	2781                	sext.w	a5,a5
ffffffc050206f66:	f8f74de3          	blt	a4,a5,ffffffc050206f00 <do_mbox_recv+0x170>
ffffffc050206f6a:	00047697          	auipc	a3,0x47
ffffffc050206f6e:	ea668693          	addi	a3,a3,-346 # ffffffc05024de10 <mbox>
ffffffc050206f72:	fcc42703          	lw	a4,-52(s0)
ffffffc050206f76:	87ba                	mv	a5,a4
ffffffc050206f78:	0796                	slli	a5,a5,0x5
ffffffc050206f7a:	8f99                	sub	a5,a5,a4
ffffffc050206f7c:	078a                	slli	a5,a5,0x2
ffffffc050206f7e:	97b6                	add	a5,a5,a3
ffffffc050206f80:	57bc                	lw	a5,104(a5)
ffffffc050206f82:	fc842703          	lw	a4,-56(s0)
ffffffc050206f86:	9fb9                	addw	a5,a5,a4
ffffffc050206f88:	2781                	sext.w	a5,a5
ffffffc050206f8a:	873e                	mv	a4,a5
ffffffc050206f8c:	41f7579b          	sraiw	a5,a4,0x1f
ffffffc050206f90:	01a7d79b          	srliw	a5,a5,0x1a
ffffffc050206f94:	9f3d                	addw	a4,a4,a5
ffffffc050206f96:	03f77713          	andi	a4,a4,63
ffffffc050206f9a:	40f707bb          	subw	a5,a4,a5
ffffffc050206f9e:	0007869b          	sext.w	a3,a5
ffffffc050206fa2:	00047617          	auipc	a2,0x47
ffffffc050206fa6:	e6e60613          	addi	a2,a2,-402 # ffffffc05024de10 <mbox>
ffffffc050206faa:	fcc42703          	lw	a4,-52(s0)
ffffffc050206fae:	87ba                	mv	a5,a4
ffffffc050206fb0:	0796                	slli	a5,a5,0x5
ffffffc050206fb2:	8f99                	sub	a5,a5,a4
ffffffc050206fb4:	078a                	slli	a5,a5,0x2
ffffffc050206fb6:	97b2                	add	a5,a5,a2
ffffffc050206fb8:	d7b4                	sw	a3,104(a5)
ffffffc050206fba:	00047697          	auipc	a3,0x47
ffffffc050206fbe:	e5668693          	addi	a3,a3,-426 # ffffffc05024de10 <mbox>
ffffffc050206fc2:	fcc42703          	lw	a4,-52(s0)
ffffffc050206fc6:	87ba                	mv	a5,a4
ffffffc050206fc8:	0796                	slli	a5,a5,0x5
ffffffc050206fca:	8f99                	sub	a5,a5,a4
ffffffc050206fcc:	078a                	slli	a5,a5,0x2
ffffffc050206fce:	97b6                	add	a5,a5,a3
ffffffc050206fd0:	5bfc                	lw	a5,116(a5)
ffffffc050206fd2:	853e                	mv	a0,a5
ffffffc050206fd4:	e3eff0ef          	jal	ra,ffffffc050206612 <do_condition_broadcast>
ffffffc050206fd8:	00047697          	auipc	a3,0x47
ffffffc050206fdc:	e3868693          	addi	a3,a3,-456 # ffffffc05024de10 <mbox>
ffffffc050206fe0:	fcc42703          	lw	a4,-52(s0)
ffffffc050206fe4:	87ba                	mv	a5,a4
ffffffc050206fe6:	0796                	slli	a5,a5,0x5
ffffffc050206fe8:	8f99                	sub	a5,a5,a4
ffffffc050206fea:	078a                	slli	a5,a5,0x2
ffffffc050206fec:	97b6                	add	a5,a5,a3
ffffffc050206fee:	5bbc                	lw	a5,112(a5)
ffffffc050206ff0:	853e                	mv	a0,a5
ffffffc050206ff2:	8d4ff0ef          	jal	ra,ffffffc0502060c6 <do_mutex_lock_release>
ffffffc050206ff6:	00047697          	auipc	a3,0x47
ffffffc050206ffa:	e1a68693          	addi	a3,a3,-486 # ffffffc05024de10 <mbox>
ffffffc050206ffe:	fcc42703          	lw	a4,-52(s0)
ffffffc050207002:	87ba                	mv	a5,a4
ffffffc050207004:	0796                	slli	a5,a5,0x5
ffffffc050207006:	8f99                	sub	a5,a5,a4
ffffffc050207008:	078a                	slli	a5,a5,0x2
ffffffc05020700a:	97b6                	add	a5,a5,a3
ffffffc05020700c:	5fb8                	lw	a4,120(a5)
ffffffc05020700e:	00048697          	auipc	a3,0x48
ffffffc050207012:	94268693          	addi	a3,a3,-1726 # ffffffc05024e950 <cond>
ffffffc050207016:	87ba                	mv	a5,a4
ffffffc050207018:	0786                	slli	a5,a5,0x1
ffffffc05020701a:	97ba                	add	a5,a5,a4
ffffffc05020701c:	078e                	slli	a5,a5,0x3
ffffffc05020701e:	97b6                	add	a5,a5,a3
ffffffc050207020:	43dc                	lw	a5,4(a5)
ffffffc050207022:	853e                	mv	a0,a5
ffffffc050207024:	70e2                	ld	ra,56(sp)
ffffffc050207026:	7442                	ld	s0,48(sp)
ffffffc050207028:	6121                	addi	sp,sp,64
ffffffc05020702a:	8082                	ret

ffffffc05020702c <atomic_swap>:
ffffffc05020702c:	7179                	addi	sp,sp,-48
ffffffc05020702e:	f422                	sd	s0,40(sp)
ffffffc050207030:	1800                	addi	s0,sp,48
ffffffc050207032:	87aa                	mv	a5,a0
ffffffc050207034:	fcb43823          	sd	a1,-48(s0)
ffffffc050207038:	fcf42e23          	sw	a5,-36(s0)
ffffffc05020703c:	fd043783          	ld	a5,-48(s0)
ffffffc050207040:	fdc42703          	lw	a4,-36(s0)
ffffffc050207044:	0ee7a72f          	amoswap.w.aqrl	a4,a4,(a5)
ffffffc050207048:	fee42623          	sw	a4,-20(s0)
ffffffc05020704c:	fec42783          	lw	a5,-20(s0)
ffffffc050207050:	853e                	mv	a0,a5
ffffffc050207052:	7422                	ld	s0,40(sp)
ffffffc050207054:	6145                	addi	sp,sp,48
ffffffc050207056:	8082                	ret

ffffffc050207058 <smp_init>:
ffffffc050207058:	1141                	addi	sp,sp,-16
ffffffc05020705a:	e422                	sd	s0,8(sp)
ffffffc05020705c:	0800                	addi	s0,sp,16
ffffffc05020705e:	00048797          	auipc	a5,0x48
ffffffc050207062:	a7278793          	addi	a5,a5,-1422 # ffffffc05024ead0 <kernel_lock>
ffffffc050207066:	0007a023          	sw	zero,0(a5)
ffffffc05020706a:	0001                	nop
ffffffc05020706c:	6422                	ld	s0,8(sp)
ffffffc05020706e:	0141                	addi	sp,sp,16
ffffffc050207070:	8082                	ret

ffffffc050207072 <wakeup_other_hart>:
ffffffc050207072:	1141                	addi	sp,sp,-16
ffffffc050207074:	e406                	sd	ra,8(sp)
ffffffc050207076:	e022                	sd	s0,0(sp)
ffffffc050207078:	0800                	addi	s0,sp,16
ffffffc05020707a:	4501                	li	a0,0
ffffffc05020707c:	c88fc0ef          	jal	ra,ffffffc050203504 <send_ipi>
ffffffc050207080:	0001                	nop
ffffffc050207082:	60a2                	ld	ra,8(sp)
ffffffc050207084:	6402                	ld	s0,0(sp)
ffffffc050207086:	0141                	addi	sp,sp,16
ffffffc050207088:	8082                	ret

ffffffc05020708a <lock_kernel>:
ffffffc05020708a:	1141                	addi	sp,sp,-16
ffffffc05020708c:	e406                	sd	ra,8(sp)
ffffffc05020708e:	e022                	sd	s0,0(sp)
ffffffc050207090:	0800                	addi	s0,sp,16
ffffffc050207092:	0001                	nop
ffffffc050207094:	00048797          	auipc	a5,0x48
ffffffc050207098:	a3c78793          	addi	a5,a5,-1476 # ffffffc05024ead0 <kernel_lock>
ffffffc05020709c:	85be                	mv	a1,a5
ffffffc05020709e:	4505                	li	a0,1
ffffffc0502070a0:	f8dff0ef          	jal	ra,ffffffc05020702c <atomic_swap>
ffffffc0502070a4:	87aa                	mv	a5,a0
ffffffc0502070a6:	2781                	sext.w	a5,a5
ffffffc0502070a8:	f7f5                	bnez	a5,ffffffc050207094 <lock_kernel+0xa>
ffffffc0502070aa:	0001                	nop
ffffffc0502070ac:	0001                	nop
ffffffc0502070ae:	60a2                	ld	ra,8(sp)
ffffffc0502070b0:	6402                	ld	s0,0(sp)
ffffffc0502070b2:	0141                	addi	sp,sp,16
ffffffc0502070b4:	8082                	ret

ffffffc0502070b6 <unlock_kernel>:
ffffffc0502070b6:	1141                	addi	sp,sp,-16
ffffffc0502070b8:	e422                	sd	s0,8(sp)
ffffffc0502070ba:	0800                	addi	s0,sp,16
ffffffc0502070bc:	00048797          	auipc	a5,0x48
ffffffc0502070c0:	a1478793          	addi	a5,a5,-1516 # ffffffc05024ead0 <kernel_lock>
ffffffc0502070c4:	0007a023          	sw	zero,0(a5)
ffffffc0502070c8:	0001                	nop
ffffffc0502070ca:	6422                	ld	s0,8(sp)
ffffffc0502070cc:	0141                	addi	sp,sp,16
ffffffc0502070ce:	8082                	ret

ffffffc0502070d0 <get_ticks>:
ffffffc0502070d0:	1141                	addi	sp,sp,-16
ffffffc0502070d2:	e422                	sd	s0,8(sp)
ffffffc0502070d4:	0800                	addi	s0,sp,16
ffffffc0502070d6:	c0102773          	rdtime	a4
ffffffc0502070da:	00004797          	auipc	a5,0x4
ffffffc0502070de:	8de78793          	addi	a5,a5,-1826 # ffffffc05020a9b8 <time_elapsed>
ffffffc0502070e2:	e398                	sd	a4,0(a5)
ffffffc0502070e4:	00004797          	auipc	a5,0x4
ffffffc0502070e8:	8d478793          	addi	a5,a5,-1836 # ffffffc05020a9b8 <time_elapsed>
ffffffc0502070ec:	639c                	ld	a5,0(a5)
ffffffc0502070ee:	853e                	mv	a0,a5
ffffffc0502070f0:	6422                	ld	s0,8(sp)
ffffffc0502070f2:	0141                	addi	sp,sp,16
ffffffc0502070f4:	8082                	ret

ffffffc0502070f6 <get_timer>:
ffffffc0502070f6:	1141                	addi	sp,sp,-16
ffffffc0502070f8:	e406                	sd	ra,8(sp)
ffffffc0502070fa:	e022                	sd	s0,0(sp)
ffffffc0502070fc:	0800                	addi	s0,sp,16
ffffffc0502070fe:	fd3ff0ef          	jal	ra,ffffffc0502070d0 <get_ticks>
ffffffc050207102:	872a                	mv	a4,a0
ffffffc050207104:	00004797          	auipc	a5,0x4
ffffffc050207108:	8bc78793          	addi	a5,a5,-1860 # ffffffc05020a9c0 <time_base>
ffffffc05020710c:	639c                	ld	a5,0(a5)
ffffffc05020710e:	02f757b3          	divu	a5,a4,a5
ffffffc050207112:	853e                	mv	a0,a5
ffffffc050207114:	60a2                	ld	ra,8(sp)
ffffffc050207116:	6402                	ld	s0,0(sp)
ffffffc050207118:	0141                	addi	sp,sp,16
ffffffc05020711a:	8082                	ret

ffffffc05020711c <get_time_base>:
ffffffc05020711c:	1141                	addi	sp,sp,-16
ffffffc05020711e:	e422                	sd	s0,8(sp)
ffffffc050207120:	0800                	addi	s0,sp,16
ffffffc050207122:	00004797          	auipc	a5,0x4
ffffffc050207126:	89e78793          	addi	a5,a5,-1890 # ffffffc05020a9c0 <time_base>
ffffffc05020712a:	639c                	ld	a5,0(a5)
ffffffc05020712c:	853e                	mv	a0,a5
ffffffc05020712e:	6422                	ld	s0,8(sp)
ffffffc050207130:	0141                	addi	sp,sp,16
ffffffc050207132:	8082                	ret

ffffffc050207134 <latency>:
ffffffc050207134:	7179                	addi	sp,sp,-48
ffffffc050207136:	f406                	sd	ra,40(sp)
ffffffc050207138:	f022                	sd	s0,32(sp)
ffffffc05020713a:	1800                	addi	s0,sp,48
ffffffc05020713c:	fca43c23          	sd	a0,-40(s0)
ffffffc050207140:	fb7ff0ef          	jal	ra,ffffffc0502070f6 <get_timer>
ffffffc050207144:	fea43423          	sd	a0,-24(s0)
ffffffc050207148:	0001                	nop
ffffffc05020714a:	fadff0ef          	jal	ra,ffffffc0502070f6 <get_timer>
ffffffc05020714e:	872a                	mv	a4,a0
ffffffc050207150:	fe843783          	ld	a5,-24(s0)
ffffffc050207154:	40f707b3          	sub	a5,a4,a5
ffffffc050207158:	fd843703          	ld	a4,-40(s0)
ffffffc05020715c:	fee7e7e3          	bltu	a5,a4,ffffffc05020714a <latency+0x16>
ffffffc050207160:	0001                	nop
ffffffc050207162:	70a2                	ld	ra,40(sp)
ffffffc050207164:	7402                	ld	s0,32(sp)
ffffffc050207166:	6145                	addi	sp,sp,48
ffffffc050207168:	8082                	ret

ffffffc05020716a <check_sleeping>:
ffffffc05020716a:	7139                	addi	sp,sp,-64
ffffffc05020716c:	fc06                	sd	ra,56(sp)
ffffffc05020716e:	f822                	sd	s0,48(sp)
ffffffc050207170:	f426                	sd	s1,40(sp)
ffffffc050207172:	0080                	addi	s0,sp,64
ffffffc050207174:	00003797          	auipc	a5,0x3
ffffffc050207178:	7bc78793          	addi	a5,a5,1980 # ffffffc05020a930 <sleep_queue>
ffffffc05020717c:	639c                	ld	a5,0(a5)
ffffffc05020717e:	fcf43c23          	sd	a5,-40(s0)
ffffffc050207182:	a8b9                	j	ffffffc0502071e0 <check_sleeping+0x76>
ffffffc050207184:	fd843783          	ld	a5,-40(s0)
ffffffc050207188:	639c                	ld	a5,0(a5)
ffffffc05020718a:	fcf43823          	sd	a5,-48(s0)
ffffffc05020718e:	fd843783          	ld	a5,-40(s0)
ffffffc050207192:	1781                	addi	a5,a5,-32
ffffffc050207194:	fcf43423          	sd	a5,-56(s0)
ffffffc050207198:	fc843783          	ld	a5,-56(s0)
ffffffc05020719c:	1387b483          	ld	s1,312(a5)
ffffffc0502071a0:	f31ff0ef          	jal	ra,ffffffc0502070d0 <get_ticks>
ffffffc0502071a4:	87aa                	mv	a5,a0
ffffffc0502071a6:	0297e963          	bltu	a5,s1,ffffffc0502071d8 <check_sleeping+0x6e>
ffffffc0502071aa:	fc843783          	ld	a5,-56(s0)
ffffffc0502071ae:	4709                	li	a4,2
ffffffc0502071b0:	10e7a823          	sw	a4,272(a5)
ffffffc0502071b4:	fc843783          	ld	a5,-56(s0)
ffffffc0502071b8:	02078793          	addi	a5,a5,32
ffffffc0502071bc:	853e                	mv	a0,a5
ffffffc0502071be:	339010ef          	jal	ra,ffffffc050208cf6 <list_del>
ffffffc0502071c2:	fc843783          	ld	a5,-56(s0)
ffffffc0502071c6:	02078793          	addi	a5,a5,32
ffffffc0502071ca:	00003597          	auipc	a1,0x3
ffffffc0502071ce:	75658593          	addi	a1,a1,1878 # ffffffc05020a920 <ready_queue>
ffffffc0502071d2:	853e                	mv	a0,a5
ffffffc0502071d4:	39b010ef          	jal	ra,ffffffc050208d6e <list_add_tail>
ffffffc0502071d8:	fd043783          	ld	a5,-48(s0)
ffffffc0502071dc:	fcf43c23          	sd	a5,-40(s0)
ffffffc0502071e0:	00003517          	auipc	a0,0x3
ffffffc0502071e4:	75050513          	addi	a0,a0,1872 # ffffffc05020a930 <sleep_queue>
ffffffc0502071e8:	3b5010ef          	jal	ra,ffffffc050208d9c <list_empty>
ffffffc0502071ec:	87aa                	mv	a5,a0
ffffffc0502071ee:	eb89                	bnez	a5,ffffffc050207200 <check_sleeping+0x96>
ffffffc0502071f0:	fd843703          	ld	a4,-40(s0)
ffffffc0502071f4:	00003797          	auipc	a5,0x3
ffffffc0502071f8:	73c78793          	addi	a5,a5,1852 # ffffffc05020a930 <sleep_queue>
ffffffc0502071fc:	f8f714e3          	bne	a4,a5,ffffffc050207184 <check_sleeping+0x1a>
ffffffc050207200:	0001                	nop
ffffffc050207202:	70e2                	ld	ra,56(sp)
ffffffc050207204:	7442                	ld	s0,48(sp)
ffffffc050207206:	74a2                	ld	s1,40(sp)
ffffffc050207208:	6121                	addi	sp,sp,64
ffffffc05020720a:	8082                	ret

ffffffc05020720c <local_flush_tlb_all>:
ffffffc05020720c:	1141                	addi	sp,sp,-16
ffffffc05020720e:	e422                	sd	s0,8(sp)
ffffffc050207210:	0800                	addi	s0,sp,16
ffffffc050207212:	12000073          	sfence.vma
ffffffc050207216:	0001                	nop
ffffffc050207218:	6422                	ld	s0,8(sp)
ffffffc05020721a:	0141                	addi	sp,sp,16
ffffffc05020721c:	8082                	ret

ffffffc05020721e <set_satp>:
ffffffc05020721e:	7179                	addi	sp,sp,-48
ffffffc050207220:	f422                	sd	s0,40(sp)
ffffffc050207222:	1800                	addi	s0,sp,48
ffffffc050207224:	87aa                	mv	a5,a0
ffffffc050207226:	872e                	mv	a4,a1
ffffffc050207228:	fcc43823          	sd	a2,-48(s0)
ffffffc05020722c:	fcf42e23          	sw	a5,-36(s0)
ffffffc050207230:	87ba                	mv	a5,a4
ffffffc050207232:	fcf42c23          	sw	a5,-40(s0)
ffffffc050207236:	fdc46783          	lwu	a5,-36(s0)
ffffffc05020723a:	03c79713          	slli	a4,a5,0x3c
ffffffc05020723e:	fd846783          	lwu	a5,-40(s0)
ffffffc050207242:	17b2                	slli	a5,a5,0x2c
ffffffc050207244:	8fd9                	or	a5,a5,a4
ffffffc050207246:	fd043703          	ld	a4,-48(s0)
ffffffc05020724a:	8fd9                	or	a5,a5,a4
ffffffc05020724c:	fef43423          	sd	a5,-24(s0)
ffffffc050207250:	fe843783          	ld	a5,-24(s0)
ffffffc050207254:	12000073          	sfence.vma
ffffffc050207258:	18079073          	csrw	satp,a5
ffffffc05020725c:	0001                	nop
ffffffc05020725e:	7422                	ld	s0,40(sp)
ffffffc050207260:	6145                	addi	sp,sp,48
ffffffc050207262:	8082                	ret

ffffffc050207264 <kva2pa>:
ffffffc050207264:	1101                	addi	sp,sp,-32
ffffffc050207266:	ec22                	sd	s0,24(sp)
ffffffc050207268:	1000                	addi	s0,sp,32
ffffffc05020726a:	fea43423          	sd	a0,-24(s0)
ffffffc05020726e:	fe843703          	ld	a4,-24(s0)
ffffffc050207272:	4785                	li	a5,1
ffffffc050207274:	179a                	slli	a5,a5,0x26
ffffffc050207276:	97ba                	add	a5,a5,a4
ffffffc050207278:	853e                	mv	a0,a5
ffffffc05020727a:	6462                	ld	s0,24(sp)
ffffffc05020727c:	6105                	addi	sp,sp,32
ffffffc05020727e:	8082                	ret

ffffffc050207280 <pa2kva>:
ffffffc050207280:	1101                	addi	sp,sp,-32
ffffffc050207282:	ec22                	sd	s0,24(sp)
ffffffc050207284:	1000                	addi	s0,sp,32
ffffffc050207286:	fea43423          	sd	a0,-24(s0)
ffffffc05020728a:	fe843703          	ld	a4,-24(s0)
ffffffc05020728e:	57fd                	li	a5,-1
ffffffc050207290:	179a                	slli	a5,a5,0x26
ffffffc050207292:	97ba                	add	a5,a5,a4
ffffffc050207294:	853e                	mv	a0,a5
ffffffc050207296:	6462                	ld	s0,24(sp)
ffffffc050207298:	6105                	addi	sp,sp,32
ffffffc05020729a:	8082                	ret

ffffffc05020729c <do_scheduler>:
ffffffc05020729c:	7179                	addi	sp,sp,-48
ffffffc05020729e:	f406                	sd	ra,40(sp)
ffffffc0502072a0:	f022                	sd	s0,32(sp)
ffffffc0502072a2:	1800                	addi	s0,sp,48
ffffffc0502072a4:	f09fa0ef          	jal	ra,ffffffc0502021ac <get_current_cpu_id>
ffffffc0502072a8:	fca43c23          	sd	a0,-40(s0)
ffffffc0502072ac:	fd843783          	ld	a5,-40(s0)
ffffffc0502072b0:	c789                	beqz	a5,ffffffc0502072ba <do_scheduler+0x1e>
ffffffc0502072b2:	5ab010ef          	jal	ra,ffffffc05020905c <check_net_send>
ffffffc0502072b6:	677010ef          	jal	ra,ffffffc05020912c <check_net_recv>
ffffffc0502072ba:	0004a717          	auipc	a4,0x4a
ffffffc0502072be:	02e70713          	addi	a4,a4,46 # ffffffc0502512e8 <next_running>
ffffffc0502072c2:	fd843783          	ld	a5,-40(s0)
ffffffc0502072c6:	078e                	slli	a5,a5,0x3
ffffffc0502072c8:	97ba                	add	a5,a5,a4
ffffffc0502072ca:	6398                	ld	a4,0(a5)
ffffffc0502072cc:	0004a697          	auipc	a3,0x4a
ffffffc0502072d0:	00c68693          	addi	a3,a3,12 # ffffffc0502512d8 <current_running>
ffffffc0502072d4:	fd843783          	ld	a5,-40(s0)
ffffffc0502072d8:	078e                	slli	a5,a5,0x3
ffffffc0502072da:	97b6                	add	a5,a5,a3
ffffffc0502072dc:	e398                	sd	a4,0(a5)
ffffffc0502072de:	e8dff0ef          	jal	ra,ffffffc05020716a <check_sleeping>
ffffffc0502072e2:	a019                	j	ffffffc0502072e8 <do_scheduler+0x4c>
ffffffc0502072e4:	e87ff0ef          	jal	ra,ffffffc05020716a <check_sleeping>
ffffffc0502072e8:	00003517          	auipc	a0,0x3
ffffffc0502072ec:	63850513          	addi	a0,a0,1592 # ffffffc05020a920 <ready_queue>
ffffffc0502072f0:	2ad010ef          	jal	ra,ffffffc050208d9c <list_empty>
ffffffc0502072f4:	87aa                	mv	a5,a0
ffffffc0502072f6:	cb85                	beqz	a5,ffffffc050207326 <do_scheduler+0x8a>
ffffffc0502072f8:	00003517          	auipc	a0,0x3
ffffffc0502072fc:	63850513          	addi	a0,a0,1592 # ffffffc05020a930 <sleep_queue>
ffffffc050207300:	29d010ef          	jal	ra,ffffffc050208d9c <list_empty>
ffffffc050207304:	87aa                	mv	a5,a0
ffffffc050207306:	e385                	bnez	a5,ffffffc050207326 <do_scheduler+0x8a>
ffffffc050207308:	0004a717          	auipc	a4,0x4a
ffffffc05020730c:	fe070713          	addi	a4,a4,-32 # ffffffc0502512e8 <next_running>
ffffffc050207310:	fd843783          	ld	a5,-40(s0)
ffffffc050207314:	078e                	slli	a5,a5,0x3
ffffffc050207316:	97ba                	add	a5,a5,a4
ffffffc050207318:	639c                	ld	a5,0(a5)
ffffffc05020731a:	1107a783          	lw	a5,272(a5)
ffffffc05020731e:	873e                	mv	a4,a5
ffffffc050207320:	4785                	li	a5,1
ffffffc050207322:	fcf711e3          	bne	a4,a5,ffffffc0502072e4 <do_scheduler+0x48>
ffffffc050207326:	0004a717          	auipc	a4,0x4a
ffffffc05020732a:	fb270713          	addi	a4,a4,-78 # ffffffc0502512d8 <current_running>
ffffffc05020732e:	fd843783          	ld	a5,-40(s0)
ffffffc050207332:	078e                	slli	a5,a5,0x3
ffffffc050207334:	97ba                	add	a5,a5,a4
ffffffc050207336:	639c                	ld	a5,0(a5)
ffffffc050207338:	0f07a783          	lw	a5,240(a5)
ffffffc05020733c:	cfc1                	beqz	a5,ffffffc0502073d4 <do_scheduler+0x138>
ffffffc05020733e:	0004a717          	auipc	a4,0x4a
ffffffc050207342:	f9a70713          	addi	a4,a4,-102 # ffffffc0502512d8 <current_running>
ffffffc050207346:	fd843783          	ld	a5,-40(s0)
ffffffc05020734a:	078e                	slli	a5,a5,0x3
ffffffc05020734c:	97ba                	add	a5,a5,a4
ffffffc05020734e:	639c                	ld	a5,0(a5)
ffffffc050207350:	1107a783          	lw	a5,272(a5)
ffffffc050207354:	873e                	mv	a4,a5
ffffffc050207356:	4789                	li	a5,2
ffffffc050207358:	02f70163          	beq	a4,a5,ffffffc05020737a <do_scheduler+0xde>
ffffffc05020735c:	0004a717          	auipc	a4,0x4a
ffffffc050207360:	f7c70713          	addi	a4,a4,-132 # ffffffc0502512d8 <current_running>
ffffffc050207364:	fd843783          	ld	a5,-40(s0)
ffffffc050207368:	078e                	slli	a5,a5,0x3
ffffffc05020736a:	97ba                	add	a5,a5,a4
ffffffc05020736c:	639c                	ld	a5,0(a5)
ffffffc05020736e:	1107a783          	lw	a5,272(a5)
ffffffc050207372:	873e                	mv	a4,a5
ffffffc050207374:	4785                	li	a5,1
ffffffc050207376:	0cf71a63          	bne	a4,a5,ffffffc05020744a <do_scheduler+0x1ae>
ffffffc05020737a:	0004a717          	auipc	a4,0x4a
ffffffc05020737e:	f5e70713          	addi	a4,a4,-162 # ffffffc0502512d8 <current_running>
ffffffc050207382:	fd843783          	ld	a5,-40(s0)
ffffffc050207386:	078e                	slli	a5,a5,0x3
ffffffc050207388:	97ba                	add	a5,a5,a4
ffffffc05020738a:	639c                	ld	a5,0(a5)
ffffffc05020738c:	4709                	li	a4,2
ffffffc05020738e:	10e7a823          	sw	a4,272(a5)
ffffffc050207392:	0004a717          	auipc	a4,0x4a
ffffffc050207396:	f4670713          	addi	a4,a4,-186 # ffffffc0502512d8 <current_running>
ffffffc05020739a:	fd843783          	ld	a5,-40(s0)
ffffffc05020739e:	078e                	slli	a5,a5,0x3
ffffffc0502073a0:	97ba                	add	a5,a5,a4
ffffffc0502073a2:	639c                	ld	a5,0(a5)
ffffffc0502073a4:	02078793          	addi	a5,a5,32
ffffffc0502073a8:	853e                	mv	a0,a5
ffffffc0502073aa:	14d010ef          	jal	ra,ffffffc050208cf6 <list_del>
ffffffc0502073ae:	0004a717          	auipc	a4,0x4a
ffffffc0502073b2:	f2a70713          	addi	a4,a4,-214 # ffffffc0502512d8 <current_running>
ffffffc0502073b6:	fd843783          	ld	a5,-40(s0)
ffffffc0502073ba:	078e                	slli	a5,a5,0x3
ffffffc0502073bc:	97ba                	add	a5,a5,a4
ffffffc0502073be:	639c                	ld	a5,0(a5)
ffffffc0502073c0:	02078793          	addi	a5,a5,32
ffffffc0502073c4:	00003597          	auipc	a1,0x3
ffffffc0502073c8:	55c58593          	addi	a1,a1,1372 # ffffffc05020a920 <ready_queue>
ffffffc0502073cc:	853e                	mv	a0,a5
ffffffc0502073ce:	1a1010ef          	jal	ra,ffffffc050208d6e <list_add_tail>
ffffffc0502073d2:	a8a5                	j	ffffffc05020744a <do_scheduler+0x1ae>
ffffffc0502073d4:	0004a717          	auipc	a4,0x4a
ffffffc0502073d8:	f0470713          	addi	a4,a4,-252 # ffffffc0502512d8 <current_running>
ffffffc0502073dc:	fd843783          	ld	a5,-40(s0)
ffffffc0502073e0:	078e                	slli	a5,a5,0x3
ffffffc0502073e2:	97ba                	add	a5,a5,a4
ffffffc0502073e4:	639c                	ld	a5,0(a5)
ffffffc0502073e6:	6398                	ld	a4,0(a5)
ffffffc0502073e8:	fc0527b7          	lui	a5,0xfc052
ffffffc0502073ec:	0785                	addi	a5,a5,1
ffffffc0502073ee:	07b2                	slli	a5,a5,0xc
ffffffc0502073f0:	02f71063          	bne	a4,a5,ffffffc050207410 <do_scheduler+0x174>
ffffffc0502073f4:	0004a717          	auipc	a4,0x4a
ffffffc0502073f8:	ee470713          	addi	a4,a4,-284 # ffffffc0502512d8 <current_running>
ffffffc0502073fc:	fd843783          	ld	a5,-40(s0)
ffffffc050207400:	078e                	slli	a5,a5,0x3
ffffffc050207402:	97ba                	add	a5,a5,a4
ffffffc050207404:	00003717          	auipc	a4,0x3
ffffffc050207408:	29c70713          	addi	a4,a4,668 # ffffffc05020a6a0 <pid0_pcb>
ffffffc05020740c:	e398                	sd	a4,0(a5)
ffffffc05020740e:	a835                	j	ffffffc05020744a <do_scheduler+0x1ae>
ffffffc050207410:	0004a717          	auipc	a4,0x4a
ffffffc050207414:	ec870713          	addi	a4,a4,-312 # ffffffc0502512d8 <current_running>
ffffffc050207418:	fd843783          	ld	a5,-40(s0)
ffffffc05020741c:	078e                	slli	a5,a5,0x3
ffffffc05020741e:	97ba                	add	a5,a5,a4
ffffffc050207420:	639c                	ld	a5,0(a5)
ffffffc050207422:	6398                	ld	a4,0(a5)
ffffffc050207424:	fe0297b7          	lui	a5,0xfe029
ffffffc050207428:	0785                	addi	a5,a5,1
ffffffc05020742a:	07b6                	slli	a5,a5,0xd
ffffffc05020742c:	00f71f63          	bne	a4,a5,ffffffc05020744a <do_scheduler+0x1ae>
ffffffc050207430:	0004a717          	auipc	a4,0x4a
ffffffc050207434:	ea870713          	addi	a4,a4,-344 # ffffffc0502512d8 <current_running>
ffffffc050207438:	fd843783          	ld	a5,-40(s0)
ffffffc05020743c:	078e                	slli	a5,a5,0x3
ffffffc05020743e:	97ba                	add	a5,a5,a4
ffffffc050207440:	00003717          	auipc	a4,0x3
ffffffc050207444:	3a070713          	addi	a4,a4,928 # ffffffc05020a7e0 <pid0_pcb_slave>
ffffffc050207448:	e398                	sd	a4,0(a5)
ffffffc05020744a:	00003517          	auipc	a0,0x3
ffffffc05020744e:	4d650513          	addi	a0,a0,1238 # ffffffc05020a920 <ready_queue>
ffffffc050207452:	14b010ef          	jal	ra,ffffffc050208d9c <list_empty>
ffffffc050207456:	87aa                	mv	a5,a0
ffffffc050207458:	10079463          	bnez	a5,ffffffc050207560 <do_scheduler+0x2c4>
ffffffc05020745c:	00003797          	auipc	a5,0x3
ffffffc050207460:	4c478793          	addi	a5,a5,1220 # ffffffc05020a920 <ready_queue>
ffffffc050207464:	639c                	ld	a5,0(a5)
ffffffc050207466:	fef43423          	sd	a5,-24(s0)
ffffffc05020746a:	fe843783          	ld	a5,-24(s0)
ffffffc05020746e:	1781                	addi	a5,a5,-32
ffffffc050207470:	fef43023          	sd	a5,-32(s0)
ffffffc050207474:	a819                	j	ffffffc05020748a <do_scheduler+0x1ee>
ffffffc050207476:	fe843783          	ld	a5,-24(s0)
ffffffc05020747a:	639c                	ld	a5,0(a5)
ffffffc05020747c:	fef43423          	sd	a5,-24(s0)
ffffffc050207480:	fe843783          	ld	a5,-24(s0)
ffffffc050207484:	1781                	addi	a5,a5,-32
ffffffc050207486:	fef43023          	sd	a5,-32(s0)
ffffffc05020748a:	fe043783          	ld	a5,-32(s0)
ffffffc05020748e:	1207a783          	lw	a5,288(a5)
ffffffc050207492:	c3a9                	beqz	a5,ffffffc0502074d4 <do_scheduler+0x238>
ffffffc050207494:	fe043783          	ld	a5,-32(s0)
ffffffc050207498:	1207a783          	lw	a5,288(a5)
ffffffc05020749c:	873e                	mv	a4,a5
ffffffc05020749e:	4785                	li	a5,1
ffffffc0502074a0:	00f71563          	bne	a4,a5,ffffffc0502074aa <do_scheduler+0x20e>
ffffffc0502074a4:	fd843783          	ld	a5,-40(s0)
ffffffc0502074a8:	c795                	beqz	a5,ffffffc0502074d4 <do_scheduler+0x238>
ffffffc0502074aa:	fe043783          	ld	a5,-32(s0)
ffffffc0502074ae:	1207a783          	lw	a5,288(a5)
ffffffc0502074b2:	873e                	mv	a4,a5
ffffffc0502074b4:	4789                	li	a5,2
ffffffc0502074b6:	00f71763          	bne	a4,a5,ffffffc0502074c4 <do_scheduler+0x228>
ffffffc0502074ba:	fd843703          	ld	a4,-40(s0)
ffffffc0502074be:	4785                	li	a5,1
ffffffc0502074c0:	00f70a63          	beq	a4,a5,ffffffc0502074d4 <do_scheduler+0x238>
ffffffc0502074c4:	fe843703          	ld	a4,-24(s0)
ffffffc0502074c8:	00003797          	auipc	a5,0x3
ffffffc0502074cc:	45878793          	addi	a5,a5,1112 # ffffffc05020a920 <ready_queue>
ffffffc0502074d0:	faf713e3          	bne	a4,a5,ffffffc050207476 <do_scheduler+0x1da>
ffffffc0502074d4:	fe843703          	ld	a4,-24(s0)
ffffffc0502074d8:	00003797          	auipc	a5,0x3
ffffffc0502074dc:	44878793          	addi	a5,a5,1096 # ffffffc05020a920 <ready_queue>
ffffffc0502074e0:	04f71663          	bne	a4,a5,ffffffc05020752c <do_scheduler+0x290>
ffffffc0502074e4:	fd843783          	ld	a5,-40(s0)
ffffffc0502074e8:	ef99                	bnez	a5,ffffffc050207506 <do_scheduler+0x26a>
ffffffc0502074ea:	0004a717          	auipc	a4,0x4a
ffffffc0502074ee:	dfe70713          	addi	a4,a4,-514 # ffffffc0502512e8 <next_running>
ffffffc0502074f2:	fd843783          	ld	a5,-40(s0)
ffffffc0502074f6:	078e                	slli	a5,a5,0x3
ffffffc0502074f8:	97ba                	add	a5,a5,a4
ffffffc0502074fa:	00003717          	auipc	a4,0x3
ffffffc0502074fe:	1a670713          	addi	a4,a4,422 # ffffffc05020a6a0 <pid0_pcb>
ffffffc050207502:	e398                	sd	a4,0(a5)
ffffffc050207504:	a04d                	j	ffffffc0502075a6 <do_scheduler+0x30a>
ffffffc050207506:	fd843703          	ld	a4,-40(s0)
ffffffc05020750a:	4785                	li	a5,1
ffffffc05020750c:	08f71d63          	bne	a4,a5,ffffffc0502075a6 <do_scheduler+0x30a>
ffffffc050207510:	0004a717          	auipc	a4,0x4a
ffffffc050207514:	dd870713          	addi	a4,a4,-552 # ffffffc0502512e8 <next_running>
ffffffc050207518:	fd843783          	ld	a5,-40(s0)
ffffffc05020751c:	078e                	slli	a5,a5,0x3
ffffffc05020751e:	97ba                	add	a5,a5,a4
ffffffc050207520:	00003717          	auipc	a4,0x3
ffffffc050207524:	2c070713          	addi	a4,a4,704 # ffffffc05020a7e0 <pid0_pcb_slave>
ffffffc050207528:	e398                	sd	a4,0(a5)
ffffffc05020752a:	a8b5                	j	ffffffc0502075a6 <do_scheduler+0x30a>
ffffffc05020752c:	0004a717          	auipc	a4,0x4a
ffffffc050207530:	dbc70713          	addi	a4,a4,-580 # ffffffc0502512e8 <next_running>
ffffffc050207534:	fd843783          	ld	a5,-40(s0)
ffffffc050207538:	078e                	slli	a5,a5,0x3
ffffffc05020753a:	97ba                	add	a5,a5,a4
ffffffc05020753c:	fe043703          	ld	a4,-32(s0)
ffffffc050207540:	e398                	sd	a4,0(a5)
ffffffc050207542:	0004a717          	auipc	a4,0x4a
ffffffc050207546:	da670713          	addi	a4,a4,-602 # ffffffc0502512e8 <next_running>
ffffffc05020754a:	fd843783          	ld	a5,-40(s0)
ffffffc05020754e:	078e                	slli	a5,a5,0x3
ffffffc050207550:	97ba                	add	a5,a5,a4
ffffffc050207552:	639c                	ld	a5,0(a5)
ffffffc050207554:	02078793          	addi	a5,a5,32
ffffffc050207558:	853e                	mv	a0,a5
ffffffc05020755a:	79c010ef          	jal	ra,ffffffc050208cf6 <list_del>
ffffffc05020755e:	a0a1                	j	ffffffc0502075a6 <do_scheduler+0x30a>
ffffffc050207560:	fd843783          	ld	a5,-40(s0)
ffffffc050207564:	ef99                	bnez	a5,ffffffc050207582 <do_scheduler+0x2e6>
ffffffc050207566:	0004a717          	auipc	a4,0x4a
ffffffc05020756a:	d8270713          	addi	a4,a4,-638 # ffffffc0502512e8 <next_running>
ffffffc05020756e:	fd843783          	ld	a5,-40(s0)
ffffffc050207572:	078e                	slli	a5,a5,0x3
ffffffc050207574:	97ba                	add	a5,a5,a4
ffffffc050207576:	00003717          	auipc	a4,0x3
ffffffc05020757a:	12a70713          	addi	a4,a4,298 # ffffffc05020a6a0 <pid0_pcb>
ffffffc05020757e:	e398                	sd	a4,0(a5)
ffffffc050207580:	a01d                	j	ffffffc0502075a6 <do_scheduler+0x30a>
ffffffc050207582:	fd843703          	ld	a4,-40(s0)
ffffffc050207586:	4785                	li	a5,1
ffffffc050207588:	00f71f63          	bne	a4,a5,ffffffc0502075a6 <do_scheduler+0x30a>
ffffffc05020758c:	0004a717          	auipc	a4,0x4a
ffffffc050207590:	d5c70713          	addi	a4,a4,-676 # ffffffc0502512e8 <next_running>
ffffffc050207594:	fd843783          	ld	a5,-40(s0)
ffffffc050207598:	078e                	slli	a5,a5,0x3
ffffffc05020759a:	97ba                	add	a5,a5,a4
ffffffc05020759c:	00003717          	auipc	a4,0x3
ffffffc0502075a0:	24470713          	addi	a4,a4,580 # ffffffc05020a7e0 <pid0_pcb_slave>
ffffffc0502075a4:	e398                	sd	a4,0(a5)
ffffffc0502075a6:	0004a717          	auipc	a4,0x4a
ffffffc0502075aa:	d4270713          	addi	a4,a4,-702 # ffffffc0502512e8 <next_running>
ffffffc0502075ae:	fd843783          	ld	a5,-40(s0)
ffffffc0502075b2:	078e                	slli	a5,a5,0x3
ffffffc0502075b4:	97ba                	add	a5,a5,a4
ffffffc0502075b6:	639c                	ld	a5,0(a5)
ffffffc0502075b8:	fd843703          	ld	a4,-40(s0)
ffffffc0502075bc:	10e7bc23          	sd	a4,280(a5)
ffffffc0502075c0:	0004a717          	auipc	a4,0x4a
ffffffc0502075c4:	d2870713          	addi	a4,a4,-728 # ffffffc0502512e8 <next_running>
ffffffc0502075c8:	fd843783          	ld	a5,-40(s0)
ffffffc0502075cc:	078e                	slli	a5,a5,0x3
ffffffc0502075ce:	97ba                	add	a5,a5,a4
ffffffc0502075d0:	639c                	ld	a5,0(a5)
ffffffc0502075d2:	4705                	li	a4,1
ffffffc0502075d4:	10e7a823          	sw	a4,272(a5)
ffffffc0502075d8:	0004a717          	auipc	a4,0x4a
ffffffc0502075dc:	d1070713          	addi	a4,a4,-752 # ffffffc0502512e8 <next_running>
ffffffc0502075e0:	fd843783          	ld	a5,-40(s0)
ffffffc0502075e4:	078e                	slli	a5,a5,0x3
ffffffc0502075e6:	97ba                	add	a5,a5,a4
ffffffc0502075e8:	639c                	ld	a5,0(a5)
ffffffc0502075ea:	0f07a783          	lw	a5,240(a5)
ffffffc0502075ee:	0007869b          	sext.w	a3,a5
ffffffc0502075f2:	0004a717          	auipc	a4,0x4a
ffffffc0502075f6:	cf670713          	addi	a4,a4,-778 # ffffffc0502512e8 <next_running>
ffffffc0502075fa:	fd843783          	ld	a5,-40(s0)
ffffffc0502075fe:	078e                	slli	a5,a5,0x3
ffffffc050207600:	97ba                	add	a5,a5,a4
ffffffc050207602:	639c                	ld	a5,0(a5)
ffffffc050207604:	77fc                	ld	a5,232(a5)
ffffffc050207606:	83b1                	srli	a5,a5,0xc
ffffffc050207608:	863e                	mv	a2,a5
ffffffc05020760a:	85b6                	mv	a1,a3
ffffffc05020760c:	4521                	li	a0,8
ffffffc05020760e:	c11ff0ef          	jal	ra,ffffffc05020721e <set_satp>
ffffffc050207612:	bfbff0ef          	jal	ra,ffffffc05020720c <local_flush_tlb_all>
ffffffc050207616:	0004a717          	auipc	a4,0x4a
ffffffc05020761a:	cc270713          	addi	a4,a4,-830 # ffffffc0502512d8 <current_running>
ffffffc05020761e:	fd843783          	ld	a5,-40(s0)
ffffffc050207622:	078e                	slli	a5,a5,0x3
ffffffc050207624:	97ba                	add	a5,a5,a4
ffffffc050207626:	6394                	ld	a3,0(a5)
ffffffc050207628:	0004a717          	auipc	a4,0x4a
ffffffc05020762c:	cc070713          	addi	a4,a4,-832 # ffffffc0502512e8 <next_running>
ffffffc050207630:	fd843783          	ld	a5,-40(s0)
ffffffc050207634:	078e                	slli	a5,a5,0x3
ffffffc050207636:	97ba                	add	a5,a5,a4
ffffffc050207638:	639c                	ld	a5,0(a5)
ffffffc05020763a:	85be                	mv	a1,a5
ffffffc05020763c:	8536                	mv	a0,a3
ffffffc05020763e:	a07fa0ef          	jal	ra,ffffffc050202044 <switch_to>
ffffffc050207642:	0001                	nop
ffffffc050207644:	70a2                	ld	ra,40(sp)
ffffffc050207646:	7402                	ld	s0,32(sp)
ffffffc050207648:	6145                	addi	sp,sp,48
ffffffc05020764a:	8082                	ret

ffffffc05020764c <do_sleep>:
ffffffc05020764c:	7139                	addi	sp,sp,-64
ffffffc05020764e:	fc06                	sd	ra,56(sp)
ffffffc050207650:	f822                	sd	s0,48(sp)
ffffffc050207652:	f426                	sd	s1,40(sp)
ffffffc050207654:	f04a                	sd	s2,32(sp)
ffffffc050207656:	0080                	addi	s0,sp,64
ffffffc050207658:	87aa                	mv	a5,a0
ffffffc05020765a:	fcf42623          	sw	a5,-52(s0)
ffffffc05020765e:	b4ffa0ef          	jal	ra,ffffffc0502021ac <get_current_cpu_id>
ffffffc050207662:	fca43c23          	sd	a0,-40(s0)
ffffffc050207666:	0004a717          	auipc	a4,0x4a
ffffffc05020766a:	c8270713          	addi	a4,a4,-894 # ffffffc0502512e8 <next_running>
ffffffc05020766e:	fd843783          	ld	a5,-40(s0)
ffffffc050207672:	078e                	slli	a5,a5,0x3
ffffffc050207674:	97ba                	add	a5,a5,a4
ffffffc050207676:	639c                	ld	a5,0(a5)
ffffffc050207678:	1007a823          	sw	zero,272(a5)
ffffffc05020767c:	a55ff0ef          	jal	ra,ffffffc0502070d0 <get_ticks>
ffffffc050207680:	892a                	mv	s2,a0
ffffffc050207682:	fcc46483          	lwu	s1,-52(s0)
ffffffc050207686:	a97ff0ef          	jal	ra,ffffffc05020711c <get_time_base>
ffffffc05020768a:	87aa                	mv	a5,a0
ffffffc05020768c:	02f48733          	mul	a4,s1,a5
ffffffc050207690:	0004a697          	auipc	a3,0x4a
ffffffc050207694:	c5868693          	addi	a3,a3,-936 # ffffffc0502512e8 <next_running>
ffffffc050207698:	fd843783          	ld	a5,-40(s0)
ffffffc05020769c:	078e                	slli	a5,a5,0x3
ffffffc05020769e:	97b6                	add	a5,a5,a3
ffffffc0502076a0:	639c                	ld	a5,0(a5)
ffffffc0502076a2:	974a                	add	a4,a4,s2
ffffffc0502076a4:	12e7bc23          	sd	a4,312(a5)
ffffffc0502076a8:	0004a717          	auipc	a4,0x4a
ffffffc0502076ac:	c4070713          	addi	a4,a4,-960 # ffffffc0502512e8 <next_running>
ffffffc0502076b0:	fd843783          	ld	a5,-40(s0)
ffffffc0502076b4:	078e                	slli	a5,a5,0x3
ffffffc0502076b6:	97ba                	add	a5,a5,a4
ffffffc0502076b8:	639c                	ld	a5,0(a5)
ffffffc0502076ba:	02078793          	addi	a5,a5,32
ffffffc0502076be:	853e                	mv	a0,a5
ffffffc0502076c0:	636010ef          	jal	ra,ffffffc050208cf6 <list_del>
ffffffc0502076c4:	0004a717          	auipc	a4,0x4a
ffffffc0502076c8:	c2470713          	addi	a4,a4,-988 # ffffffc0502512e8 <next_running>
ffffffc0502076cc:	fd843783          	ld	a5,-40(s0)
ffffffc0502076d0:	078e                	slli	a5,a5,0x3
ffffffc0502076d2:	97ba                	add	a5,a5,a4
ffffffc0502076d4:	639c                	ld	a5,0(a5)
ffffffc0502076d6:	02078793          	addi	a5,a5,32
ffffffc0502076da:	00003597          	auipc	a1,0x3
ffffffc0502076de:	25658593          	addi	a1,a1,598 # ffffffc05020a930 <sleep_queue>
ffffffc0502076e2:	853e                	mv	a0,a5
ffffffc0502076e4:	68a010ef          	jal	ra,ffffffc050208d6e <list_add_tail>
ffffffc0502076e8:	bb5ff0ef          	jal	ra,ffffffc05020729c <do_scheduler>
ffffffc0502076ec:	0001                	nop
ffffffc0502076ee:	70e2                	ld	ra,56(sp)
ffffffc0502076f0:	7442                	ld	s0,48(sp)
ffffffc0502076f2:	74a2                	ld	s1,40(sp)
ffffffc0502076f4:	7902                	ld	s2,32(sp)
ffffffc0502076f6:	6121                	addi	sp,sp,64
ffffffc0502076f8:	8082                	ret

ffffffc0502076fa <do_block>:
ffffffc0502076fa:	7179                	addi	sp,sp,-48
ffffffc0502076fc:	f406                	sd	ra,40(sp)
ffffffc0502076fe:	f022                	sd	s0,32(sp)
ffffffc050207700:	1800                	addi	s0,sp,48
ffffffc050207702:	fca43c23          	sd	a0,-40(s0)
ffffffc050207706:	fcb43823          	sd	a1,-48(s0)
ffffffc05020770a:	aa3fa0ef          	jal	ra,ffffffc0502021ac <get_current_cpu_id>
ffffffc05020770e:	fea43423          	sd	a0,-24(s0)
ffffffc050207712:	fd043583          	ld	a1,-48(s0)
ffffffc050207716:	fd843503          	ld	a0,-40(s0)
ffffffc05020771a:	654010ef          	jal	ra,ffffffc050208d6e <list_add_tail>
ffffffc05020771e:	0004a717          	auipc	a4,0x4a
ffffffc050207722:	bca70713          	addi	a4,a4,-1078 # ffffffc0502512e8 <next_running>
ffffffc050207726:	fe843783          	ld	a5,-24(s0)
ffffffc05020772a:	078e                	slli	a5,a5,0x3
ffffffc05020772c:	97ba                	add	a5,a5,a4
ffffffc05020772e:	639c                	ld	a5,0(a5)
ffffffc050207730:	1007a823          	sw	zero,272(a5)
ffffffc050207734:	b69ff0ef          	jal	ra,ffffffc05020729c <do_scheduler>
ffffffc050207738:	0001                	nop
ffffffc05020773a:	70a2                	ld	ra,40(sp)
ffffffc05020773c:	7402                	ld	s0,32(sp)
ffffffc05020773e:	6145                	addi	sp,sp,48
ffffffc050207740:	8082                	ret

ffffffc050207742 <do_unblock>:
ffffffc050207742:	7179                	addi	sp,sp,-48
ffffffc050207744:	f406                	sd	ra,40(sp)
ffffffc050207746:	f022                	sd	s0,32(sp)
ffffffc050207748:	1800                	addi	s0,sp,48
ffffffc05020774a:	fca43c23          	sd	a0,-40(s0)
ffffffc05020774e:	fd843783          	ld	a5,-40(s0)
ffffffc050207752:	639c                	ld	a5,0(a5)
ffffffc050207754:	1781                	addi	a5,a5,-32
ffffffc050207756:	fef43423          	sd	a5,-24(s0)
ffffffc05020775a:	fd843783          	ld	a5,-40(s0)
ffffffc05020775e:	639c                	ld	a5,0(a5)
ffffffc050207760:	853e                	mv	a0,a5
ffffffc050207762:	594010ef          	jal	ra,ffffffc050208cf6 <list_del>
ffffffc050207766:	fe843783          	ld	a5,-24(s0)
ffffffc05020776a:	4709                	li	a4,2
ffffffc05020776c:	10e7a823          	sw	a4,272(a5)
ffffffc050207770:	fe843783          	ld	a5,-24(s0)
ffffffc050207774:	02078793          	addi	a5,a5,32
ffffffc050207778:	00003597          	auipc	a1,0x3
ffffffc05020777c:	1a858593          	addi	a1,a1,424 # ffffffc05020a920 <ready_queue>
ffffffc050207780:	853e                	mv	a0,a5
ffffffc050207782:	5ec010ef          	jal	ra,ffffffc050208d6e <list_add_tail>
ffffffc050207786:	0001                	nop
ffffffc050207788:	70a2                	ld	ra,40(sp)
ffffffc05020778a:	7402                	ld	s0,32(sp)
ffffffc05020778c:	6145                	addi	sp,sp,48
ffffffc05020778e:	8082                	ret

ffffffc050207790 <do_process_show>:
ffffffc050207790:	1101                	addi	sp,sp,-32
ffffffc050207792:	ec06                	sd	ra,24(sp)
ffffffc050207794:	e822                	sd	s0,16(sp)
ffffffc050207796:	1000                	addi	s0,sp,32
ffffffc050207798:	fe042623          	sw	zero,-20(s0)
ffffffc05020779c:	00003517          	auipc	a0,0x3
ffffffc0502077a0:	cbc50513          	addi	a0,a0,-836 # ffffffc05020a458 <__FUNCTION__.1603+0x38>
ffffffc0502077a4:	2a2020ef          	jal	ra,ffffffc050209a46 <printk>
ffffffc0502077a8:	fe042423          	sw	zero,-24(s0)
ffffffc0502077ac:	a16d                	j	ffffffc050207c56 <do_process_show+0x4c6>
ffffffc0502077ae:	fe042223          	sw	zero,-28(s0)
ffffffc0502077b2:	a99d                	j	ffffffc050207c28 <do_process_show+0x498>
ffffffc0502077b4:	fe442783          	lw	a5,-28(s0)
ffffffc0502077b8:	2781                	sext.w	a5,a5
ffffffc0502077ba:	22079063          	bnez	a5,ffffffc0502079da <do_process_show+0x24a>
ffffffc0502077be:	0004a697          	auipc	a3,0x4a
ffffffc0502077c2:	b3a68693          	addi	a3,a3,-1222 # ffffffc0502512f8 <pcb>
ffffffc0502077c6:	fe842703          	lw	a4,-24(s0)
ffffffc0502077ca:	87ba                	mv	a5,a4
ffffffc0502077cc:	078a                	slli	a5,a5,0x2
ffffffc0502077ce:	97ba                	add	a5,a5,a4
ffffffc0502077d0:	079a                	slli	a5,a5,0x6
ffffffc0502077d2:	97b6                	add	a5,a5,a3
ffffffc0502077d4:	1107a783          	lw	a5,272(a5)
ffffffc0502077d8:	873e                	mv	a4,a5
ffffffc0502077da:	4785                	li	a5,1
ffffffc0502077dc:	0af71463          	bne	a4,a5,ffffffc050207884 <do_process_show+0xf4>
ffffffc0502077e0:	0004a697          	auipc	a3,0x4a
ffffffc0502077e4:	b1868693          	addi	a3,a3,-1256 # ffffffc0502512f8 <pcb>
ffffffc0502077e8:	fe842703          	lw	a4,-24(s0)
ffffffc0502077ec:	87ba                	mv	a5,a4
ffffffc0502077ee:	078a                	slli	a5,a5,0x2
ffffffc0502077f0:	97ba                	add	a5,a5,a4
ffffffc0502077f2:	079a                	slli	a5,a5,0x6
ffffffc0502077f4:	97b6                	add	a5,a5,a3
ffffffc0502077f6:	0f07a783          	lw	a5,240(a5)
ffffffc0502077fa:	c7c9                	beqz	a5,ffffffc050207884 <do_process_show+0xf4>
ffffffc0502077fc:	0004a697          	auipc	a3,0x4a
ffffffc050207800:	afc68693          	addi	a3,a3,-1284 # ffffffc0502512f8 <pcb>
ffffffc050207804:	fe842703          	lw	a4,-24(s0)
ffffffc050207808:	87ba                	mv	a5,a4
ffffffc05020780a:	078a                	slli	a5,a5,0x2
ffffffc05020780c:	97ba                	add	a5,a5,a4
ffffffc05020780e:	079a                	slli	a5,a5,0x6
ffffffc050207810:	97b6                	add	a5,a5,a3
ffffffc050207812:	0f07a603          	lw	a2,240(a5)
ffffffc050207816:	0004a697          	auipc	a3,0x4a
ffffffc05020781a:	ae268693          	addi	a3,a3,-1310 # ffffffc0502512f8 <pcb>
ffffffc05020781e:	fe842703          	lw	a4,-24(s0)
ffffffc050207822:	87ba                	mv	a5,a4
ffffffc050207824:	078a                	slli	a5,a5,0x2
ffffffc050207826:	97ba                	add	a5,a5,a4
ffffffc050207828:	079a                	slli	a5,a5,0x6
ffffffc05020782a:	97b6                	add	a5,a5,a3
ffffffc05020782c:	0f47a503          	lw	a0,244(a5)
ffffffc050207830:	0004a697          	auipc	a3,0x4a
ffffffc050207834:	ac868693          	addi	a3,a3,-1336 # ffffffc0502512f8 <pcb>
ffffffc050207838:	fe842703          	lw	a4,-24(s0)
ffffffc05020783c:	87ba                	mv	a5,a4
ffffffc05020783e:	078a                	slli	a5,a5,0x2
ffffffc050207840:	97ba                	add	a5,a5,a4
ffffffc050207842:	079a                	slli	a5,a5,0x6
ffffffc050207844:	97b6                	add	a5,a5,a3
ffffffc050207846:	1207a803          	lw	a6,288(a5)
ffffffc05020784a:	0004a697          	auipc	a3,0x4a
ffffffc05020784e:	aae68693          	addi	a3,a3,-1362 # ffffffc0502512f8 <pcb>
ffffffc050207852:	fe842703          	lw	a4,-24(s0)
ffffffc050207856:	87ba                	mv	a5,a4
ffffffc050207858:	078a                	slli	a5,a5,0x2
ffffffc05020785a:	97ba                	add	a5,a5,a4
ffffffc05020785c:	079a                	slli	a5,a5,0x6
ffffffc05020785e:	97b6                	add	a5,a5,a3
ffffffc050207860:	1187b783          	ld	a5,280(a5)
ffffffc050207864:	fec42583          	lw	a1,-20(s0)
ffffffc050207868:	8742                	mv	a4,a6
ffffffc05020786a:	86aa                	mv	a3,a0
ffffffc05020786c:	00003517          	auipc	a0,0x3
ffffffc050207870:	c0450513          	addi	a0,a0,-1020 # ffffffc05020a470 <__FUNCTION__.1603+0x50>
ffffffc050207874:	1d2020ef          	jal	ra,ffffffc050209a46 <printk>
ffffffc050207878:	fec42783          	lw	a5,-20(s0)
ffffffc05020787c:	2785                	addiw	a5,a5,1
ffffffc05020787e:	fef42623          	sw	a5,-20(s0)
ffffffc050207882:	ae71                	j	ffffffc050207c1e <do_process_show+0x48e>
ffffffc050207884:	0004a697          	auipc	a3,0x4a
ffffffc050207888:	a7468693          	addi	a3,a3,-1420 # ffffffc0502512f8 <pcb>
ffffffc05020788c:	fe842703          	lw	a4,-24(s0)
ffffffc050207890:	87ba                	mv	a5,a4
ffffffc050207892:	078a                	slli	a5,a5,0x2
ffffffc050207894:	97ba                	add	a5,a5,a4
ffffffc050207896:	079a                	slli	a5,a5,0x6
ffffffc050207898:	97b6                	add	a5,a5,a3
ffffffc05020789a:	1107a783          	lw	a5,272(a5)
ffffffc05020789e:	873e                	mv	a4,a5
ffffffc0502078a0:	4789                	li	a5,2
ffffffc0502078a2:	08f71763          	bne	a4,a5,ffffffc050207930 <do_process_show+0x1a0>
ffffffc0502078a6:	0004a697          	auipc	a3,0x4a
ffffffc0502078aa:	a5268693          	addi	a3,a3,-1454 # ffffffc0502512f8 <pcb>
ffffffc0502078ae:	fe842703          	lw	a4,-24(s0)
ffffffc0502078b2:	87ba                	mv	a5,a4
ffffffc0502078b4:	078a                	slli	a5,a5,0x2
ffffffc0502078b6:	97ba                	add	a5,a5,a4
ffffffc0502078b8:	079a                	slli	a5,a5,0x6
ffffffc0502078ba:	97b6                	add	a5,a5,a3
ffffffc0502078bc:	0f07a783          	lw	a5,240(a5)
ffffffc0502078c0:	cba5                	beqz	a5,ffffffc050207930 <do_process_show+0x1a0>
ffffffc0502078c2:	0004a697          	auipc	a3,0x4a
ffffffc0502078c6:	a3668693          	addi	a3,a3,-1482 # ffffffc0502512f8 <pcb>
ffffffc0502078ca:	fe842703          	lw	a4,-24(s0)
ffffffc0502078ce:	87ba                	mv	a5,a4
ffffffc0502078d0:	078a                	slli	a5,a5,0x2
ffffffc0502078d2:	97ba                	add	a5,a5,a4
ffffffc0502078d4:	079a                	slli	a5,a5,0x6
ffffffc0502078d6:	97b6                	add	a5,a5,a3
ffffffc0502078d8:	0f07a603          	lw	a2,240(a5)
ffffffc0502078dc:	0004a697          	auipc	a3,0x4a
ffffffc0502078e0:	a1c68693          	addi	a3,a3,-1508 # ffffffc0502512f8 <pcb>
ffffffc0502078e4:	fe842703          	lw	a4,-24(s0)
ffffffc0502078e8:	87ba                	mv	a5,a4
ffffffc0502078ea:	078a                	slli	a5,a5,0x2
ffffffc0502078ec:	97ba                	add	a5,a5,a4
ffffffc0502078ee:	079a                	slli	a5,a5,0x6
ffffffc0502078f0:	97b6                	add	a5,a5,a3
ffffffc0502078f2:	0f47a583          	lw	a1,244(a5)
ffffffc0502078f6:	0004a697          	auipc	a3,0x4a
ffffffc0502078fa:	a0268693          	addi	a3,a3,-1534 # ffffffc0502512f8 <pcb>
ffffffc0502078fe:	fe842703          	lw	a4,-24(s0)
ffffffc050207902:	87ba                	mv	a5,a4
ffffffc050207904:	078a                	slli	a5,a5,0x2
ffffffc050207906:	97ba                	add	a5,a5,a4
ffffffc050207908:	079a                	slli	a5,a5,0x6
ffffffc05020790a:	97b6                	add	a5,a5,a3
ffffffc05020790c:	1207a703          	lw	a4,288(a5)
ffffffc050207910:	fec42783          	lw	a5,-20(s0)
ffffffc050207914:	86ae                	mv	a3,a1
ffffffc050207916:	85be                	mv	a1,a5
ffffffc050207918:	00003517          	auipc	a0,0x3
ffffffc05020791c:	ba850513          	addi	a0,a0,-1112 # ffffffc05020a4c0 <__FUNCTION__.1603+0xa0>
ffffffc050207920:	126020ef          	jal	ra,ffffffc050209a46 <printk>
ffffffc050207924:	fec42783          	lw	a5,-20(s0)
ffffffc050207928:	2785                	addiw	a5,a5,1
ffffffc05020792a:	fef42623          	sw	a5,-20(s0)
ffffffc05020792e:	acc5                	j	ffffffc050207c1e <do_process_show+0x48e>
ffffffc050207930:	0004a697          	auipc	a3,0x4a
ffffffc050207934:	9c868693          	addi	a3,a3,-1592 # ffffffc0502512f8 <pcb>
ffffffc050207938:	fe842703          	lw	a4,-24(s0)
ffffffc05020793c:	87ba                	mv	a5,a4
ffffffc05020793e:	078a                	slli	a5,a5,0x2
ffffffc050207940:	97ba                	add	a5,a5,a4
ffffffc050207942:	079a                	slli	a5,a5,0x6
ffffffc050207944:	97b6                	add	a5,a5,a3
ffffffc050207946:	1107a783          	lw	a5,272(a5)
ffffffc05020794a:	2c079a63          	bnez	a5,ffffffc050207c1e <do_process_show+0x48e>
ffffffc05020794e:	0004a697          	auipc	a3,0x4a
ffffffc050207952:	9aa68693          	addi	a3,a3,-1622 # ffffffc0502512f8 <pcb>
ffffffc050207956:	fe842703          	lw	a4,-24(s0)
ffffffc05020795a:	87ba                	mv	a5,a4
ffffffc05020795c:	078a                	slli	a5,a5,0x2
ffffffc05020795e:	97ba                	add	a5,a5,a4
ffffffc050207960:	079a                	slli	a5,a5,0x6
ffffffc050207962:	97b6                	add	a5,a5,a3
ffffffc050207964:	0f07a783          	lw	a5,240(a5)
ffffffc050207968:	2a078b63          	beqz	a5,ffffffc050207c1e <do_process_show+0x48e>
ffffffc05020796c:	0004a697          	auipc	a3,0x4a
ffffffc050207970:	98c68693          	addi	a3,a3,-1652 # ffffffc0502512f8 <pcb>
ffffffc050207974:	fe842703          	lw	a4,-24(s0)
ffffffc050207978:	87ba                	mv	a5,a4
ffffffc05020797a:	078a                	slli	a5,a5,0x2
ffffffc05020797c:	97ba                	add	a5,a5,a4
ffffffc05020797e:	079a                	slli	a5,a5,0x6
ffffffc050207980:	97b6                	add	a5,a5,a3
ffffffc050207982:	0f07a603          	lw	a2,240(a5)
ffffffc050207986:	0004a697          	auipc	a3,0x4a
ffffffc05020798a:	97268693          	addi	a3,a3,-1678 # ffffffc0502512f8 <pcb>
ffffffc05020798e:	fe842703          	lw	a4,-24(s0)
ffffffc050207992:	87ba                	mv	a5,a4
ffffffc050207994:	078a                	slli	a5,a5,0x2
ffffffc050207996:	97ba                	add	a5,a5,a4
ffffffc050207998:	079a                	slli	a5,a5,0x6
ffffffc05020799a:	97b6                	add	a5,a5,a3
ffffffc05020799c:	0f47a583          	lw	a1,244(a5)
ffffffc0502079a0:	0004a697          	auipc	a3,0x4a
ffffffc0502079a4:	95868693          	addi	a3,a3,-1704 # ffffffc0502512f8 <pcb>
ffffffc0502079a8:	fe842703          	lw	a4,-24(s0)
ffffffc0502079ac:	87ba                	mv	a5,a4
ffffffc0502079ae:	078a                	slli	a5,a5,0x2
ffffffc0502079b0:	97ba                	add	a5,a5,a4
ffffffc0502079b2:	079a                	slli	a5,a5,0x6
ffffffc0502079b4:	97b6                	add	a5,a5,a3
ffffffc0502079b6:	1207a703          	lw	a4,288(a5)
ffffffc0502079ba:	fec42783          	lw	a5,-20(s0)
ffffffc0502079be:	86ae                	mv	a3,a1
ffffffc0502079c0:	85be                	mv	a1,a5
ffffffc0502079c2:	00003517          	auipc	a0,0x3
ffffffc0502079c6:	b3650513          	addi	a0,a0,-1226 # ffffffc05020a4f8 <__FUNCTION__.1603+0xd8>
ffffffc0502079ca:	07c020ef          	jal	ra,ffffffc050209a46 <printk>
ffffffc0502079ce:	fec42783          	lw	a5,-20(s0)
ffffffc0502079d2:	2785                	addiw	a5,a5,1
ffffffc0502079d4:	fef42623          	sw	a5,-20(s0)
ffffffc0502079d8:	a499                	j	ffffffc050207c1e <do_process_show+0x48e>
ffffffc0502079da:	fe442783          	lw	a5,-28(s0)
ffffffc0502079de:	37fd                	addiw	a5,a5,-1
ffffffc0502079e0:	0007861b          	sext.w	a2,a5
ffffffc0502079e4:	0004a697          	auipc	a3,0x4a
ffffffc0502079e8:	91468693          	addi	a3,a3,-1772 # ffffffc0502512f8 <pcb>
ffffffc0502079ec:	fe842703          	lw	a4,-24(s0)
ffffffc0502079f0:	87ba                	mv	a5,a4
ffffffc0502079f2:	078a                	slli	a5,a5,0x2
ffffffc0502079f4:	97ba                	add	a5,a5,a4
ffffffc0502079f6:	0792                	slli	a5,a5,0x4
ffffffc0502079f8:	97b2                	add	a5,a5,a2
ffffffc0502079fa:	03c78793          	addi	a5,a5,60
ffffffc0502079fe:	078a                	slli	a5,a5,0x2
ffffffc050207a00:	97b6                	add	a5,a5,a3
ffffffc050207a02:	47dc                	lw	a5,12(a5)
ffffffc050207a04:	fef42023          	sw	a5,-32(s0)
ffffffc050207a08:	00047697          	auipc	a3,0x47
ffffffc050207a0c:	0d068693          	addi	a3,a3,208 # ffffffc05024ead8 <tcb>
ffffffc050207a10:	fe042703          	lw	a4,-32(s0)
ffffffc050207a14:	87ba                	mv	a5,a4
ffffffc050207a16:	078a                	slli	a5,a5,0x2
ffffffc050207a18:	97ba                	add	a5,a5,a4
ffffffc050207a1a:	079a                	slli	a5,a5,0x6
ffffffc050207a1c:	97b6                	add	a5,a5,a3
ffffffc050207a1e:	1107a783          	lw	a5,272(a5)
ffffffc050207a22:	873e                	mv	a4,a5
ffffffc050207a24:	4785                	li	a5,1
ffffffc050207a26:	0af71463          	bne	a4,a5,ffffffc050207ace <do_process_show+0x33e>
ffffffc050207a2a:	0004a697          	auipc	a3,0x4a
ffffffc050207a2e:	8ce68693          	addi	a3,a3,-1842 # ffffffc0502512f8 <pcb>
ffffffc050207a32:	fe842703          	lw	a4,-24(s0)
ffffffc050207a36:	87ba                	mv	a5,a4
ffffffc050207a38:	078a                	slli	a5,a5,0x2
ffffffc050207a3a:	97ba                	add	a5,a5,a4
ffffffc050207a3c:	079a                	slli	a5,a5,0x6
ffffffc050207a3e:	97b6                	add	a5,a5,a3
ffffffc050207a40:	0f07a783          	lw	a5,240(a5)
ffffffc050207a44:	c7c9                	beqz	a5,ffffffc050207ace <do_process_show+0x33e>
ffffffc050207a46:	0004a697          	auipc	a3,0x4a
ffffffc050207a4a:	8b268693          	addi	a3,a3,-1870 # ffffffc0502512f8 <pcb>
ffffffc050207a4e:	fe842703          	lw	a4,-24(s0)
ffffffc050207a52:	87ba                	mv	a5,a4
ffffffc050207a54:	078a                	slli	a5,a5,0x2
ffffffc050207a56:	97ba                	add	a5,a5,a4
ffffffc050207a58:	079a                	slli	a5,a5,0x6
ffffffc050207a5a:	97b6                	add	a5,a5,a3
ffffffc050207a5c:	0f07a603          	lw	a2,240(a5)
ffffffc050207a60:	00047697          	auipc	a3,0x47
ffffffc050207a64:	07868693          	addi	a3,a3,120 # ffffffc05024ead8 <tcb>
ffffffc050207a68:	fe042703          	lw	a4,-32(s0)
ffffffc050207a6c:	87ba                	mv	a5,a4
ffffffc050207a6e:	078a                	slli	a5,a5,0x2
ffffffc050207a70:	97ba                	add	a5,a5,a4
ffffffc050207a72:	079a                	slli	a5,a5,0x6
ffffffc050207a74:	97b6                	add	a5,a5,a3
ffffffc050207a76:	0f47a503          	lw	a0,244(a5)
ffffffc050207a7a:	00047697          	auipc	a3,0x47
ffffffc050207a7e:	05e68693          	addi	a3,a3,94 # ffffffc05024ead8 <tcb>
ffffffc050207a82:	fe042703          	lw	a4,-32(s0)
ffffffc050207a86:	87ba                	mv	a5,a4
ffffffc050207a88:	078a                	slli	a5,a5,0x2
ffffffc050207a8a:	97ba                	add	a5,a5,a4
ffffffc050207a8c:	079a                	slli	a5,a5,0x6
ffffffc050207a8e:	97b6                	add	a5,a5,a3
ffffffc050207a90:	1207a803          	lw	a6,288(a5)
ffffffc050207a94:	00047697          	auipc	a3,0x47
ffffffc050207a98:	04468693          	addi	a3,a3,68 # ffffffc05024ead8 <tcb>
ffffffc050207a9c:	fe042703          	lw	a4,-32(s0)
ffffffc050207aa0:	87ba                	mv	a5,a4
ffffffc050207aa2:	078a                	slli	a5,a5,0x2
ffffffc050207aa4:	97ba                	add	a5,a5,a4
ffffffc050207aa6:	079a                	slli	a5,a5,0x6
ffffffc050207aa8:	97b6                	add	a5,a5,a3
ffffffc050207aaa:	1187b783          	ld	a5,280(a5)
ffffffc050207aae:	fec42583          	lw	a1,-20(s0)
ffffffc050207ab2:	8742                	mv	a4,a6
ffffffc050207ab4:	86aa                	mv	a3,a0
ffffffc050207ab6:	00003517          	auipc	a0,0x3
ffffffc050207aba:	9ba50513          	addi	a0,a0,-1606 # ffffffc05020a470 <__FUNCTION__.1603+0x50>
ffffffc050207abe:	789010ef          	jal	ra,ffffffc050209a46 <printk>
ffffffc050207ac2:	fec42783          	lw	a5,-20(s0)
ffffffc050207ac6:	2785                	addiw	a5,a5,1
ffffffc050207ac8:	fef42623          	sw	a5,-20(s0)
ffffffc050207acc:	aa89                	j	ffffffc050207c1e <do_process_show+0x48e>
ffffffc050207ace:	00047697          	auipc	a3,0x47
ffffffc050207ad2:	00a68693          	addi	a3,a3,10 # ffffffc05024ead8 <tcb>
ffffffc050207ad6:	fe042703          	lw	a4,-32(s0)
ffffffc050207ada:	87ba                	mv	a5,a4
ffffffc050207adc:	078a                	slli	a5,a5,0x2
ffffffc050207ade:	97ba                	add	a5,a5,a4
ffffffc050207ae0:	079a                	slli	a5,a5,0x6
ffffffc050207ae2:	97b6                	add	a5,a5,a3
ffffffc050207ae4:	1107a783          	lw	a5,272(a5)
ffffffc050207ae8:	873e                	mv	a4,a5
ffffffc050207aea:	4789                	li	a5,2
ffffffc050207aec:	08f71763          	bne	a4,a5,ffffffc050207b7a <do_process_show+0x3ea>
ffffffc050207af0:	0004a697          	auipc	a3,0x4a
ffffffc050207af4:	80868693          	addi	a3,a3,-2040 # ffffffc0502512f8 <pcb>
ffffffc050207af8:	fe842703          	lw	a4,-24(s0)
ffffffc050207afc:	87ba                	mv	a5,a4
ffffffc050207afe:	078a                	slli	a5,a5,0x2
ffffffc050207b00:	97ba                	add	a5,a5,a4
ffffffc050207b02:	079a                	slli	a5,a5,0x6
ffffffc050207b04:	97b6                	add	a5,a5,a3
ffffffc050207b06:	0f07a783          	lw	a5,240(a5)
ffffffc050207b0a:	cba5                	beqz	a5,ffffffc050207b7a <do_process_show+0x3ea>
ffffffc050207b0c:	00049697          	auipc	a3,0x49
ffffffc050207b10:	7ec68693          	addi	a3,a3,2028 # ffffffc0502512f8 <pcb>
ffffffc050207b14:	fe842703          	lw	a4,-24(s0)
ffffffc050207b18:	87ba                	mv	a5,a4
ffffffc050207b1a:	078a                	slli	a5,a5,0x2
ffffffc050207b1c:	97ba                	add	a5,a5,a4
ffffffc050207b1e:	079a                	slli	a5,a5,0x6
ffffffc050207b20:	97b6                	add	a5,a5,a3
ffffffc050207b22:	0f07a603          	lw	a2,240(a5)
ffffffc050207b26:	00047697          	auipc	a3,0x47
ffffffc050207b2a:	fb268693          	addi	a3,a3,-78 # ffffffc05024ead8 <tcb>
ffffffc050207b2e:	fe042703          	lw	a4,-32(s0)
ffffffc050207b32:	87ba                	mv	a5,a4
ffffffc050207b34:	078a                	slli	a5,a5,0x2
ffffffc050207b36:	97ba                	add	a5,a5,a4
ffffffc050207b38:	079a                	slli	a5,a5,0x6
ffffffc050207b3a:	97b6                	add	a5,a5,a3
ffffffc050207b3c:	0f47a583          	lw	a1,244(a5)
ffffffc050207b40:	00047697          	auipc	a3,0x47
ffffffc050207b44:	f9868693          	addi	a3,a3,-104 # ffffffc05024ead8 <tcb>
ffffffc050207b48:	fe042703          	lw	a4,-32(s0)
ffffffc050207b4c:	87ba                	mv	a5,a4
ffffffc050207b4e:	078a                	slli	a5,a5,0x2
ffffffc050207b50:	97ba                	add	a5,a5,a4
ffffffc050207b52:	079a                	slli	a5,a5,0x6
ffffffc050207b54:	97b6                	add	a5,a5,a3
ffffffc050207b56:	1207a703          	lw	a4,288(a5)
ffffffc050207b5a:	fec42783          	lw	a5,-20(s0)
ffffffc050207b5e:	86ae                	mv	a3,a1
ffffffc050207b60:	85be                	mv	a1,a5
ffffffc050207b62:	00003517          	auipc	a0,0x3
ffffffc050207b66:	9ce50513          	addi	a0,a0,-1586 # ffffffc05020a530 <__FUNCTION__.1603+0x110>
ffffffc050207b6a:	6dd010ef          	jal	ra,ffffffc050209a46 <printk>
ffffffc050207b6e:	fec42783          	lw	a5,-20(s0)
ffffffc050207b72:	2785                	addiw	a5,a5,1
ffffffc050207b74:	fef42623          	sw	a5,-20(s0)
ffffffc050207b78:	a05d                	j	ffffffc050207c1e <do_process_show+0x48e>
ffffffc050207b7a:	00047697          	auipc	a3,0x47
ffffffc050207b7e:	f5e68693          	addi	a3,a3,-162 # ffffffc05024ead8 <tcb>
ffffffc050207b82:	fe042703          	lw	a4,-32(s0)
ffffffc050207b86:	87ba                	mv	a5,a4
ffffffc050207b88:	078a                	slli	a5,a5,0x2
ffffffc050207b8a:	97ba                	add	a5,a5,a4
ffffffc050207b8c:	079a                	slli	a5,a5,0x6
ffffffc050207b8e:	97b6                	add	a5,a5,a3
ffffffc050207b90:	1107a783          	lw	a5,272(a5)
ffffffc050207b94:	e7c9                	bnez	a5,ffffffc050207c1e <do_process_show+0x48e>
ffffffc050207b96:	00049697          	auipc	a3,0x49
ffffffc050207b9a:	76268693          	addi	a3,a3,1890 # ffffffc0502512f8 <pcb>
ffffffc050207b9e:	fe842703          	lw	a4,-24(s0)
ffffffc050207ba2:	87ba                	mv	a5,a4
ffffffc050207ba4:	078a                	slli	a5,a5,0x2
ffffffc050207ba6:	97ba                	add	a5,a5,a4
ffffffc050207ba8:	079a                	slli	a5,a5,0x6
ffffffc050207baa:	97b6                	add	a5,a5,a3
ffffffc050207bac:	0f07a783          	lw	a5,240(a5)
ffffffc050207bb0:	c7bd                	beqz	a5,ffffffc050207c1e <do_process_show+0x48e>
ffffffc050207bb2:	00049697          	auipc	a3,0x49
ffffffc050207bb6:	74668693          	addi	a3,a3,1862 # ffffffc0502512f8 <pcb>
ffffffc050207bba:	fe842703          	lw	a4,-24(s0)
ffffffc050207bbe:	87ba                	mv	a5,a4
ffffffc050207bc0:	078a                	slli	a5,a5,0x2
ffffffc050207bc2:	97ba                	add	a5,a5,a4
ffffffc050207bc4:	079a                	slli	a5,a5,0x6
ffffffc050207bc6:	97b6                	add	a5,a5,a3
ffffffc050207bc8:	0f07a603          	lw	a2,240(a5)
ffffffc050207bcc:	00047697          	auipc	a3,0x47
ffffffc050207bd0:	f0c68693          	addi	a3,a3,-244 # ffffffc05024ead8 <tcb>
ffffffc050207bd4:	fe042703          	lw	a4,-32(s0)
ffffffc050207bd8:	87ba                	mv	a5,a4
ffffffc050207bda:	078a                	slli	a5,a5,0x2
ffffffc050207bdc:	97ba                	add	a5,a5,a4
ffffffc050207bde:	079a                	slli	a5,a5,0x6
ffffffc050207be0:	97b6                	add	a5,a5,a3
ffffffc050207be2:	0f47a583          	lw	a1,244(a5)
ffffffc050207be6:	00047697          	auipc	a3,0x47
ffffffc050207bea:	ef268693          	addi	a3,a3,-270 # ffffffc05024ead8 <tcb>
ffffffc050207bee:	fe042703          	lw	a4,-32(s0)
ffffffc050207bf2:	87ba                	mv	a5,a4
ffffffc050207bf4:	078a                	slli	a5,a5,0x2
ffffffc050207bf6:	97ba                	add	a5,a5,a4
ffffffc050207bf8:	079a                	slli	a5,a5,0x6
ffffffc050207bfa:	97b6                	add	a5,a5,a3
ffffffc050207bfc:	1207a703          	lw	a4,288(a5)
ffffffc050207c00:	fec42783          	lw	a5,-20(s0)
ffffffc050207c04:	86ae                	mv	a3,a1
ffffffc050207c06:	85be                	mv	a1,a5
ffffffc050207c08:	00003517          	auipc	a0,0x3
ffffffc050207c0c:	96050513          	addi	a0,a0,-1696 # ffffffc05020a568 <__FUNCTION__.1603+0x148>
ffffffc050207c10:	637010ef          	jal	ra,ffffffc050209a46 <printk>
ffffffc050207c14:	fec42783          	lw	a5,-20(s0)
ffffffc050207c18:	2785                	addiw	a5,a5,1
ffffffc050207c1a:	fef42623          	sw	a5,-20(s0)
ffffffc050207c1e:	fe442783          	lw	a5,-28(s0)
ffffffc050207c22:	2785                	addiw	a5,a5,1
ffffffc050207c24:	fef42223          	sw	a5,-28(s0)
ffffffc050207c28:	00049697          	auipc	a3,0x49
ffffffc050207c2c:	6d068693          	addi	a3,a3,1744 # ffffffc0502512f8 <pcb>
ffffffc050207c30:	fe842703          	lw	a4,-24(s0)
ffffffc050207c34:	87ba                	mv	a5,a4
ffffffc050207c36:	078a                	slli	a5,a5,0x2
ffffffc050207c38:	97ba                	add	a5,a5,a4
ffffffc050207c3a:	079a                	slli	a5,a5,0x6
ffffffc050207c3c:	97b6                	add	a5,a5,a3
ffffffc050207c3e:	0f87a703          	lw	a4,248(a5)
ffffffc050207c42:	fe442783          	lw	a5,-28(s0)
ffffffc050207c46:	2781                	sext.w	a5,a5
ffffffc050207c48:	b6f756e3          	bge	a4,a5,ffffffc0502077b4 <do_process_show+0x24>
ffffffc050207c4c:	fe842783          	lw	a5,-24(s0)
ffffffc050207c50:	2785                	addiw	a5,a5,1
ffffffc050207c52:	fef42423          	sw	a5,-24(s0)
ffffffc050207c56:	00003797          	auipc	a5,0x3
ffffffc050207c5a:	d5278793          	addi	a5,a5,-686 # ffffffc05020a9a8 <process_id>
ffffffc050207c5e:	4398                	lw	a4,0(a5)
ffffffc050207c60:	fe842783          	lw	a5,-24(s0)
ffffffc050207c64:	2781                	sext.w	a5,a5
ffffffc050207c66:	b4e7c4e3          	blt	a5,a4,ffffffc0502077ae <do_process_show+0x1e>
ffffffc050207c6a:	0001                	nop
ffffffc050207c6c:	0001                	nop
ffffffc050207c6e:	60e2                	ld	ra,24(sp)
ffffffc050207c70:	6442                	ld	s0,16(sp)
ffffffc050207c72:	6105                	addi	sp,sp,32
ffffffc050207c74:	8082                	ret

ffffffc050207c76 <do_kill>:
ffffffc050207c76:	715d                	addi	sp,sp,-80
ffffffc050207c78:	e486                	sd	ra,72(sp)
ffffffc050207c7a:	e0a2                	sd	s0,64(sp)
ffffffc050207c7c:	0880                	addi	s0,sp,80
ffffffc050207c7e:	87aa                	mv	a5,a0
ffffffc050207c80:	872e                	mv	a4,a1
ffffffc050207c82:	faf42e23          	sw	a5,-68(s0)
ffffffc050207c86:	87ba                	mv	a5,a4
ffffffc050207c88:	faf42c23          	sw	a5,-72(s0)
ffffffc050207c8c:	fe042223          	sw	zero,-28(s0)
ffffffc050207c90:	fe042223          	sw	zero,-28(s0)
ffffffc050207c94:	a805                	j	ffffffc050207cc4 <do_kill+0x4e>
ffffffc050207c96:	00049697          	auipc	a3,0x49
ffffffc050207c9a:	66268693          	addi	a3,a3,1634 # ffffffc0502512f8 <pcb>
ffffffc050207c9e:	fe442703          	lw	a4,-28(s0)
ffffffc050207ca2:	87ba                	mv	a5,a4
ffffffc050207ca4:	078a                	slli	a5,a5,0x2
ffffffc050207ca6:	97ba                	add	a5,a5,a4
ffffffc050207ca8:	079a                	slli	a5,a5,0x6
ffffffc050207caa:	97b6                	add	a5,a5,a3
ffffffc050207cac:	0f07a703          	lw	a4,240(a5)
ffffffc050207cb0:	fbc42783          	lw	a5,-68(s0)
ffffffc050207cb4:	2781                	sext.w	a5,a5
ffffffc050207cb6:	00e78f63          	beq	a5,a4,ffffffc050207cd4 <do_kill+0x5e>
ffffffc050207cba:	fe442783          	lw	a5,-28(s0)
ffffffc050207cbe:	2785                	addiw	a5,a5,1
ffffffc050207cc0:	fef42223          	sw	a5,-28(s0)
ffffffc050207cc4:	fe442783          	lw	a5,-28(s0)
ffffffc050207cc8:	0007871b          	sext.w	a4,a5
ffffffc050207ccc:	47fd                	li	a5,31
ffffffc050207cce:	fce7d4e3          	bge	a5,a4,ffffffc050207c96 <do_kill+0x20>
ffffffc050207cd2:	a011                	j	ffffffc050207cd6 <do_kill+0x60>
ffffffc050207cd4:	0001                	nop
ffffffc050207cd6:	fe442783          	lw	a5,-28(s0)
ffffffc050207cda:	0007871b          	sext.w	a4,a5
ffffffc050207cde:	02000793          	li	a5,32
ffffffc050207ce2:	00f70d63          	beq	a4,a5,ffffffc050207cfc <do_kill+0x86>
ffffffc050207ce6:	fbc42783          	lw	a5,-68(s0)
ffffffc050207cea:	2781                	sext.w	a5,a5
ffffffc050207cec:	cb81                	beqz	a5,ffffffc050207cfc <do_kill+0x86>
ffffffc050207cee:	fbc42783          	lw	a5,-68(s0)
ffffffc050207cf2:	0007871b          	sext.w	a4,a5
ffffffc050207cf6:	4785                	li	a5,1
ffffffc050207cf8:	00f71463          	bne	a4,a5,ffffffc050207d00 <do_kill+0x8a>
ffffffc050207cfc:	4781                	li	a5,0
ffffffc050207cfe:	aafd                	j	ffffffc050207efc <do_kill+0x286>
ffffffc050207d00:	fb842783          	lw	a5,-72(s0)
ffffffc050207d04:	2781                	sext.w	a5,a5
ffffffc050207d06:	ef99                	bnez	a5,ffffffc050207d24 <do_kill+0xae>
ffffffc050207d08:	fe442703          	lw	a4,-28(s0)
ffffffc050207d0c:	87ba                	mv	a5,a4
ffffffc050207d0e:	078a                	slli	a5,a5,0x2
ffffffc050207d10:	97ba                	add	a5,a5,a4
ffffffc050207d12:	079a                	slli	a5,a5,0x6
ffffffc050207d14:	00049717          	auipc	a4,0x49
ffffffc050207d18:	5e470713          	addi	a4,a4,1508 # ffffffc0502512f8 <pcb>
ffffffc050207d1c:	97ba                	add	a5,a5,a4
ffffffc050207d1e:	fef43423          	sd	a5,-24(s0)
ffffffc050207d22:	a089                	j	ffffffc050207d64 <do_kill+0xee>
ffffffc050207d24:	fb842783          	lw	a5,-72(s0)
ffffffc050207d28:	37fd                	addiw	a5,a5,-1
ffffffc050207d2a:	0007861b          	sext.w	a2,a5
ffffffc050207d2e:	00049697          	auipc	a3,0x49
ffffffc050207d32:	5ca68693          	addi	a3,a3,1482 # ffffffc0502512f8 <pcb>
ffffffc050207d36:	fe442703          	lw	a4,-28(s0)
ffffffc050207d3a:	87ba                	mv	a5,a4
ffffffc050207d3c:	078a                	slli	a5,a5,0x2
ffffffc050207d3e:	97ba                	add	a5,a5,a4
ffffffc050207d40:	0792                	slli	a5,a5,0x4
ffffffc050207d42:	97b2                	add	a5,a5,a2
ffffffc050207d44:	03c78793          	addi	a5,a5,60
ffffffc050207d48:	078a                	slli	a5,a5,0x2
ffffffc050207d4a:	97b6                	add	a5,a5,a3
ffffffc050207d4c:	47d8                	lw	a4,12(a5)
ffffffc050207d4e:	87ba                	mv	a5,a4
ffffffc050207d50:	078a                	slli	a5,a5,0x2
ffffffc050207d52:	97ba                	add	a5,a5,a4
ffffffc050207d54:	079a                	slli	a5,a5,0x6
ffffffc050207d56:	00047717          	auipc	a4,0x47
ffffffc050207d5a:	d8270713          	addi	a4,a4,-638 # ffffffc05024ead8 <tcb>
ffffffc050207d5e:	97ba                	add	a5,a5,a4
ffffffc050207d60:	fef43423          	sd	a5,-24(s0)
ffffffc050207d64:	fe843783          	ld	a5,-24(s0)
ffffffc050207d68:	1107a783          	lw	a5,272(a5)
ffffffc050207d6c:	873e                	mv	a4,a5
ffffffc050207d6e:	4789                	li	a5,2
ffffffc050207d70:	00f70763          	beq	a4,a5,ffffffc050207d7e <do_kill+0x108>
ffffffc050207d74:	fe843783          	ld	a5,-24(s0)
ffffffc050207d78:	1107a783          	lw	a5,272(a5)
ffffffc050207d7c:	eb81                	bnez	a5,ffffffc050207d8c <do_kill+0x116>
ffffffc050207d7e:	fe843783          	ld	a5,-24(s0)
ffffffc050207d82:	02078793          	addi	a5,a5,32
ffffffc050207d86:	853e                	mv	a0,a5
ffffffc050207d88:	76f000ef          	jal	ra,ffffffc050208cf6 <list_del>
ffffffc050207d8c:	fe042223          	sw	zero,-28(s0)
ffffffc050207d90:	a045                	j	ffffffc050207e30 <do_kill+0x1ba>
ffffffc050207d92:	fe843703          	ld	a4,-24(s0)
ffffffc050207d96:	fe442783          	lw	a5,-28(s0)
ffffffc050207d9a:	07b1                	addi	a5,a5,12
ffffffc050207d9c:	078e                	slli	a5,a5,0x3
ffffffc050207d9e:	97ba                	add	a5,a5,a4
ffffffc050207da0:	679c                	ld	a5,8(a5)
ffffffc050207da2:	07a1                	addi	a5,a5,8
ffffffc050207da4:	853e                	mv	a0,a5
ffffffc050207da6:	7f7000ef          	jal	ra,ffffffc050208d9c <list_empty>
ffffffc050207daa:	87aa                	mv	a5,a0
ffffffc050207dac:	ebb1                	bnez	a5,ffffffc050207e00 <do_kill+0x18a>
ffffffc050207dae:	fe843703          	ld	a4,-24(s0)
ffffffc050207db2:	fe442783          	lw	a5,-28(s0)
ffffffc050207db6:	07b1                	addi	a5,a5,12
ffffffc050207db8:	078e                	slli	a5,a5,0x3
ffffffc050207dba:	97ba                	add	a5,a5,a4
ffffffc050207dbc:	679c                	ld	a5,8(a5)
ffffffc050207dbe:	679c                	ld	a5,8(a5)
ffffffc050207dc0:	1781                	addi	a5,a5,-32
ffffffc050207dc2:	fcf43023          	sd	a5,-64(s0)
ffffffc050207dc6:	fe843703          	ld	a4,-24(s0)
ffffffc050207dca:	fe442783          	lw	a5,-28(s0)
ffffffc050207dce:	07b1                	addi	a5,a5,12
ffffffc050207dd0:	078e                	slli	a5,a5,0x3
ffffffc050207dd2:	97ba                	add	a5,a5,a4
ffffffc050207dd4:	679c                	ld	a5,8(a5)
ffffffc050207dd6:	679c                	ld	a5,8(a5)
ffffffc050207dd8:	853e                	mv	a0,a5
ffffffc050207dda:	71d000ef          	jal	ra,ffffffc050208cf6 <list_del>
ffffffc050207dde:	fc043783          	ld	a5,-64(s0)
ffffffc050207de2:	4709                	li	a4,2
ffffffc050207de4:	10e7a823          	sw	a4,272(a5)
ffffffc050207de8:	fc043783          	ld	a5,-64(s0)
ffffffc050207dec:	02078793          	addi	a5,a5,32
ffffffc050207df0:	00003597          	auipc	a1,0x3
ffffffc050207df4:	b3058593          	addi	a1,a1,-1232 # ffffffc05020a920 <ready_queue>
ffffffc050207df8:	853e                	mv	a0,a5
ffffffc050207dfa:	775000ef          	jal	ra,ffffffc050208d6e <list_add_tail>
ffffffc050207dfe:	a819                	j	ffffffc050207e14 <do_kill+0x19e>
ffffffc050207e00:	fe843703          	ld	a4,-24(s0)
ffffffc050207e04:	fe442783          	lw	a5,-28(s0)
ffffffc050207e08:	07b1                	addi	a5,a5,12
ffffffc050207e0a:	078e                	slli	a5,a5,0x3
ffffffc050207e0c:	97ba                	add	a5,a5,a4
ffffffc050207e0e:	679c                	ld	a5,8(a5)
ffffffc050207e10:	0007a023          	sw	zero,0(a5)
ffffffc050207e14:	fe843703          	ld	a4,-24(s0)
ffffffc050207e18:	fe442783          	lw	a5,-28(s0)
ffffffc050207e1c:	07b1                	addi	a5,a5,12
ffffffc050207e1e:	078e                	slli	a5,a5,0x3
ffffffc050207e20:	97ba                	add	a5,a5,a4
ffffffc050207e22:	0007b423          	sd	zero,8(a5)
ffffffc050207e26:	fe442783          	lw	a5,-28(s0)
ffffffc050207e2a:	2785                	addiw	a5,a5,1
ffffffc050207e2c:	fef42223          	sw	a5,-28(s0)
ffffffc050207e30:	fe843783          	ld	a5,-24(s0)
ffffffc050207e34:	53b8                	lw	a4,96(a5)
ffffffc050207e36:	fe442783          	lw	a5,-28(s0)
ffffffc050207e3a:	2781                	sext.w	a5,a5
ffffffc050207e3c:	f4e7cbe3          	blt	a5,a4,ffffffc050207d92 <do_kill+0x11c>
ffffffc050207e40:	a099                	j	ffffffc050207e86 <do_kill+0x210>
ffffffc050207e42:	fe843783          	ld	a5,-24(s0)
ffffffc050207e46:	7b9c                	ld	a5,48(a5)
ffffffc050207e48:	1781                	addi	a5,a5,-32
ffffffc050207e4a:	fcf43423          	sd	a5,-56(s0)
ffffffc050207e4e:	fc843783          	ld	a5,-56(s0)
ffffffc050207e52:	1107a783          	lw	a5,272(a5)
ffffffc050207e56:	eb85                	bnez	a5,ffffffc050207e86 <do_kill+0x210>
ffffffc050207e58:	fc843783          	ld	a5,-56(s0)
ffffffc050207e5c:	4709                	li	a4,2
ffffffc050207e5e:	10e7a823          	sw	a4,272(a5)
ffffffc050207e62:	fc843783          	ld	a5,-56(s0)
ffffffc050207e66:	02078793          	addi	a5,a5,32
ffffffc050207e6a:	853e                	mv	a0,a5
ffffffc050207e6c:	68b000ef          	jal	ra,ffffffc050208cf6 <list_del>
ffffffc050207e70:	fc843783          	ld	a5,-56(s0)
ffffffc050207e74:	02078793          	addi	a5,a5,32
ffffffc050207e78:	00003597          	auipc	a1,0x3
ffffffc050207e7c:	aa858593          	addi	a1,a1,-1368 # ffffffc05020a920 <ready_queue>
ffffffc050207e80:	853e                	mv	a0,a5
ffffffc050207e82:	6ed000ef          	jal	ra,ffffffc050208d6e <list_add_tail>
ffffffc050207e86:	fe843783          	ld	a5,-24(s0)
ffffffc050207e8a:	03078793          	addi	a5,a5,48
ffffffc050207e8e:	853e                	mv	a0,a5
ffffffc050207e90:	70d000ef          	jal	ra,ffffffc050208d9c <list_empty>
ffffffc050207e94:	87aa                	mv	a5,a0
ffffffc050207e96:	d7d5                	beqz	a5,ffffffc050207e42 <do_kill+0x1cc>
ffffffc050207e98:	fe843783          	ld	a5,-24(s0)
ffffffc050207e9c:	04078793          	addi	a5,a5,64
ffffffc050207ea0:	fcf43c23          	sd	a5,-40(s0)
ffffffc050207ea4:	a01d                	j	ffffffc050207eca <do_kill+0x254>
ffffffc050207ea6:	fd843783          	ld	a5,-40(s0)
ffffffc050207eaa:	639c                	ld	a5,0(a5)
ffffffc050207eac:	17c1                	addi	a5,a5,-16
ffffffc050207eae:	fcf43823          	sd	a5,-48(s0)
ffffffc050207eb2:	fd043783          	ld	a5,-48(s0)
ffffffc050207eb6:	639c                	ld	a5,0(a5)
ffffffc050207eb8:	853e                	mv	a0,a5
ffffffc050207eba:	ce2fd0ef          	jal	ra,ffffffc05020539c <freePage>
ffffffc050207ebe:	fd843783          	ld	a5,-40(s0)
ffffffc050207ec2:	639c                	ld	a5,0(a5)
ffffffc050207ec4:	853e                	mv	a0,a5
ffffffc050207ec6:	631000ef          	jal	ra,ffffffc050208cf6 <list_del>
ffffffc050207eca:	fe843783          	ld	a5,-24(s0)
ffffffc050207ece:	04078793          	addi	a5,a5,64
ffffffc050207ed2:	853e                	mv	a0,a5
ffffffc050207ed4:	6c9000ef          	jal	ra,ffffffc050208d9c <list_empty>
ffffffc050207ed8:	87aa                	mv	a5,a0
ffffffc050207eda:	d7f1                	beqz	a5,ffffffc050207ea6 <do_kill+0x230>
ffffffc050207edc:	fe843783          	ld	a5,-24(s0)
ffffffc050207ee0:	1207a023          	sw	zero,288(a5)
ffffffc050207ee4:	fe843783          	ld	a5,-24(s0)
ffffffc050207ee8:	470d                	li	a4,3
ffffffc050207eea:	10e7a823          	sw	a4,272(a5)
ffffffc050207eee:	fe843783          	ld	a5,-24(s0)
ffffffc050207ef2:	0e07a823          	sw	zero,240(a5)
ffffffc050207ef6:	ba6ff0ef          	jal	ra,ffffffc05020729c <do_scheduler>
ffffffc050207efa:	4785                	li	a5,1
ffffffc050207efc:	853e                	mv	a0,a5
ffffffc050207efe:	60a6                	ld	ra,72(sp)
ffffffc050207f00:	6406                	ld	s0,64(sp)
ffffffc050207f02:	6161                	addi	sp,sp,80
ffffffc050207f04:	8082                	ret

ffffffc050207f06 <do_exit>:
ffffffc050207f06:	715d                	addi	sp,sp,-80
ffffffc050207f08:	e486                	sd	ra,72(sp)
ffffffc050207f0a:	e0a2                	sd	s0,64(sp)
ffffffc050207f0c:	0880                	addi	s0,sp,80
ffffffc050207f0e:	a9efa0ef          	jal	ra,ffffffc0502021ac <get_current_cpu_id>
ffffffc050207f12:	fea43023          	sd	a0,-32(s0)
ffffffc050207f16:	00049717          	auipc	a4,0x49
ffffffc050207f1a:	3d270713          	addi	a4,a4,978 # ffffffc0502512e8 <next_running>
ffffffc050207f1e:	fe043783          	ld	a5,-32(s0)
ffffffc050207f22:	078e                	slli	a5,a5,0x3
ffffffc050207f24:	97ba                	add	a5,a5,a4
ffffffc050207f26:	639c                	ld	a5,0(a5)
ffffffc050207f28:	fcf43c23          	sd	a5,-40(s0)
ffffffc050207f2c:	fe042623          	sw	zero,-20(s0)
ffffffc050207f30:	a045                	j	ffffffc050207fd0 <do_exit+0xca>
ffffffc050207f32:	fd843703          	ld	a4,-40(s0)
ffffffc050207f36:	fec42783          	lw	a5,-20(s0)
ffffffc050207f3a:	07b1                	addi	a5,a5,12
ffffffc050207f3c:	078e                	slli	a5,a5,0x3
ffffffc050207f3e:	97ba                	add	a5,a5,a4
ffffffc050207f40:	679c                	ld	a5,8(a5)
ffffffc050207f42:	07a1                	addi	a5,a5,8
ffffffc050207f44:	853e                	mv	a0,a5
ffffffc050207f46:	657000ef          	jal	ra,ffffffc050208d9c <list_empty>
ffffffc050207f4a:	87aa                	mv	a5,a0
ffffffc050207f4c:	ebb1                	bnez	a5,ffffffc050207fa0 <do_exit+0x9a>
ffffffc050207f4e:	fd843703          	ld	a4,-40(s0)
ffffffc050207f52:	fec42783          	lw	a5,-20(s0)
ffffffc050207f56:	07b1                	addi	a5,a5,12
ffffffc050207f58:	078e                	slli	a5,a5,0x3
ffffffc050207f5a:	97ba                	add	a5,a5,a4
ffffffc050207f5c:	679c                	ld	a5,8(a5)
ffffffc050207f5e:	679c                	ld	a5,8(a5)
ffffffc050207f60:	1781                	addi	a5,a5,-32
ffffffc050207f62:	faf43c23          	sd	a5,-72(s0)
ffffffc050207f66:	fd843703          	ld	a4,-40(s0)
ffffffc050207f6a:	fec42783          	lw	a5,-20(s0)
ffffffc050207f6e:	07b1                	addi	a5,a5,12
ffffffc050207f70:	078e                	slli	a5,a5,0x3
ffffffc050207f72:	97ba                	add	a5,a5,a4
ffffffc050207f74:	679c                	ld	a5,8(a5)
ffffffc050207f76:	679c                	ld	a5,8(a5)
ffffffc050207f78:	853e                	mv	a0,a5
ffffffc050207f7a:	57d000ef          	jal	ra,ffffffc050208cf6 <list_del>
ffffffc050207f7e:	fb843783          	ld	a5,-72(s0)
ffffffc050207f82:	4709                	li	a4,2
ffffffc050207f84:	10e7a823          	sw	a4,272(a5)
ffffffc050207f88:	fb843783          	ld	a5,-72(s0)
ffffffc050207f8c:	02078793          	addi	a5,a5,32
ffffffc050207f90:	00003597          	auipc	a1,0x3
ffffffc050207f94:	99058593          	addi	a1,a1,-1648 # ffffffc05020a920 <ready_queue>
ffffffc050207f98:	853e                	mv	a0,a5
ffffffc050207f9a:	5d5000ef          	jal	ra,ffffffc050208d6e <list_add_tail>
ffffffc050207f9e:	a819                	j	ffffffc050207fb4 <do_exit+0xae>
ffffffc050207fa0:	fd843703          	ld	a4,-40(s0)
ffffffc050207fa4:	fec42783          	lw	a5,-20(s0)
ffffffc050207fa8:	07b1                	addi	a5,a5,12
ffffffc050207faa:	078e                	slli	a5,a5,0x3
ffffffc050207fac:	97ba                	add	a5,a5,a4
ffffffc050207fae:	679c                	ld	a5,8(a5)
ffffffc050207fb0:	0007a023          	sw	zero,0(a5)
ffffffc050207fb4:	fd843703          	ld	a4,-40(s0)
ffffffc050207fb8:	fec42783          	lw	a5,-20(s0)
ffffffc050207fbc:	07b1                	addi	a5,a5,12
ffffffc050207fbe:	078e                	slli	a5,a5,0x3
ffffffc050207fc0:	97ba                	add	a5,a5,a4
ffffffc050207fc2:	0007b423          	sd	zero,8(a5)
ffffffc050207fc6:	fec42783          	lw	a5,-20(s0)
ffffffc050207fca:	2785                	addiw	a5,a5,1
ffffffc050207fcc:	fef42623          	sw	a5,-20(s0)
ffffffc050207fd0:	fd843783          	ld	a5,-40(s0)
ffffffc050207fd4:	53b8                	lw	a4,96(a5)
ffffffc050207fd6:	fec42783          	lw	a5,-20(s0)
ffffffc050207fda:	2781                	sext.w	a5,a5
ffffffc050207fdc:	f4e7cbe3          	blt	a5,a4,ffffffc050207f32 <do_exit+0x2c>
ffffffc050207fe0:	a099                	j	ffffffc050208026 <do_exit+0x120>
ffffffc050207fe2:	fd843783          	ld	a5,-40(s0)
ffffffc050207fe6:	7b9c                	ld	a5,48(a5)
ffffffc050207fe8:	1781                	addi	a5,a5,-32
ffffffc050207fea:	fcf43023          	sd	a5,-64(s0)
ffffffc050207fee:	fc043783          	ld	a5,-64(s0)
ffffffc050207ff2:	1107a783          	lw	a5,272(a5)
ffffffc050207ff6:	eb85                	bnez	a5,ffffffc050208026 <do_exit+0x120>
ffffffc050207ff8:	fc043783          	ld	a5,-64(s0)
ffffffc050207ffc:	4709                	li	a4,2
ffffffc050207ffe:	10e7a823          	sw	a4,272(a5)
ffffffc050208002:	fc043783          	ld	a5,-64(s0)
ffffffc050208006:	02078793          	addi	a5,a5,32
ffffffc05020800a:	853e                	mv	a0,a5
ffffffc05020800c:	4eb000ef          	jal	ra,ffffffc050208cf6 <list_del>
ffffffc050208010:	fc043783          	ld	a5,-64(s0)
ffffffc050208014:	02078793          	addi	a5,a5,32
ffffffc050208018:	00003597          	auipc	a1,0x3
ffffffc05020801c:	90858593          	addi	a1,a1,-1784 # ffffffc05020a920 <ready_queue>
ffffffc050208020:	853e                	mv	a0,a5
ffffffc050208022:	54d000ef          	jal	ra,ffffffc050208d6e <list_add_tail>
ffffffc050208026:	fd843783          	ld	a5,-40(s0)
ffffffc05020802a:	03078793          	addi	a5,a5,48
ffffffc05020802e:	853e                	mv	a0,a5
ffffffc050208030:	56d000ef          	jal	ra,ffffffc050208d9c <list_empty>
ffffffc050208034:	87aa                	mv	a5,a0
ffffffc050208036:	d7d5                	beqz	a5,ffffffc050207fe2 <do_exit+0xdc>
ffffffc050208038:	fd843783          	ld	a5,-40(s0)
ffffffc05020803c:	04078793          	addi	a5,a5,64
ffffffc050208040:	fcf43823          	sd	a5,-48(s0)
ffffffc050208044:	a01d                	j	ffffffc05020806a <do_exit+0x164>
ffffffc050208046:	fd043783          	ld	a5,-48(s0)
ffffffc05020804a:	639c                	ld	a5,0(a5)
ffffffc05020804c:	17c1                	addi	a5,a5,-16
ffffffc05020804e:	fcf43423          	sd	a5,-56(s0)
ffffffc050208052:	fc843783          	ld	a5,-56(s0)
ffffffc050208056:	639c                	ld	a5,0(a5)
ffffffc050208058:	853e                	mv	a0,a5
ffffffc05020805a:	b42fd0ef          	jal	ra,ffffffc05020539c <freePage>
ffffffc05020805e:	fd043783          	ld	a5,-48(s0)
ffffffc050208062:	639c                	ld	a5,0(a5)
ffffffc050208064:	853e                	mv	a0,a5
ffffffc050208066:	491000ef          	jal	ra,ffffffc050208cf6 <list_del>
ffffffc05020806a:	fd843783          	ld	a5,-40(s0)
ffffffc05020806e:	04078793          	addi	a5,a5,64
ffffffc050208072:	853e                	mv	a0,a5
ffffffc050208074:	529000ef          	jal	ra,ffffffc050208d9c <list_empty>
ffffffc050208078:	87aa                	mv	a5,a0
ffffffc05020807a:	d7f1                	beqz	a5,ffffffc050208046 <do_exit+0x140>
ffffffc05020807c:	fd843783          	ld	a5,-40(s0)
ffffffc050208080:	1207a023          	sw	zero,288(a5)
ffffffc050208084:	fd843783          	ld	a5,-40(s0)
ffffffc050208088:	470d                	li	a4,3
ffffffc05020808a:	10e7a823          	sw	a4,272(a5)
ffffffc05020808e:	fd843783          	ld	a5,-40(s0)
ffffffc050208092:	0e07a823          	sw	zero,240(a5)
ffffffc050208096:	a06ff0ef          	jal	ra,ffffffc05020729c <do_scheduler>
ffffffc05020809a:	0001                	nop
ffffffc05020809c:	60a6                	ld	ra,72(sp)
ffffffc05020809e:	6406                	ld	s0,64(sp)
ffffffc0502080a0:	6161                	addi	sp,sp,80
ffffffc0502080a2:	8082                	ret

ffffffc0502080a4 <do_waitpid>:
ffffffc0502080a4:	7139                	addi	sp,sp,-64
ffffffc0502080a6:	fc06                	sd	ra,56(sp)
ffffffc0502080a8:	f822                	sd	s0,48(sp)
ffffffc0502080aa:	0080                	addi	s0,sp,64
ffffffc0502080ac:	87aa                	mv	a5,a0
ffffffc0502080ae:	fcf42623          	sw	a5,-52(s0)
ffffffc0502080b2:	8fafa0ef          	jal	ra,ffffffc0502021ac <get_current_cpu_id>
ffffffc0502080b6:	fea43023          	sd	a0,-32(s0)
ffffffc0502080ba:	fe042623          	sw	zero,-20(s0)
ffffffc0502080be:	fe042623          	sw	zero,-20(s0)
ffffffc0502080c2:	a805                	j	ffffffc0502080f2 <do_waitpid+0x4e>
ffffffc0502080c4:	00049697          	auipc	a3,0x49
ffffffc0502080c8:	23468693          	addi	a3,a3,564 # ffffffc0502512f8 <pcb>
ffffffc0502080cc:	fec42703          	lw	a4,-20(s0)
ffffffc0502080d0:	87ba                	mv	a5,a4
ffffffc0502080d2:	078a                	slli	a5,a5,0x2
ffffffc0502080d4:	97ba                	add	a5,a5,a4
ffffffc0502080d6:	079a                	slli	a5,a5,0x6
ffffffc0502080d8:	97b6                	add	a5,a5,a3
ffffffc0502080da:	0f07a703          	lw	a4,240(a5)
ffffffc0502080de:	fcc42783          	lw	a5,-52(s0)
ffffffc0502080e2:	2781                	sext.w	a5,a5
ffffffc0502080e4:	00e78f63          	beq	a5,a4,ffffffc050208102 <do_waitpid+0x5e>
ffffffc0502080e8:	fec42783          	lw	a5,-20(s0)
ffffffc0502080ec:	2785                	addiw	a5,a5,1
ffffffc0502080ee:	fef42623          	sw	a5,-20(s0)
ffffffc0502080f2:	fec42783          	lw	a5,-20(s0)
ffffffc0502080f6:	0007871b          	sext.w	a4,a5
ffffffc0502080fa:	47fd                	li	a5,31
ffffffc0502080fc:	fce7d4e3          	bge	a5,a4,ffffffc0502080c4 <do_waitpid+0x20>
ffffffc050208100:	a011                	j	ffffffc050208104 <do_waitpid+0x60>
ffffffc050208102:	0001                	nop
ffffffc050208104:	fec42783          	lw	a5,-20(s0)
ffffffc050208108:	0007871b          	sext.w	a4,a5
ffffffc05020810c:	02000793          	li	a5,32
ffffffc050208110:	00f70d63          	beq	a4,a5,ffffffc05020812a <do_waitpid+0x86>
ffffffc050208114:	fcc42783          	lw	a5,-52(s0)
ffffffc050208118:	2781                	sext.w	a5,a5
ffffffc05020811a:	cb81                	beqz	a5,ffffffc05020812a <do_waitpid+0x86>
ffffffc05020811c:	fcc42783          	lw	a5,-52(s0)
ffffffc050208120:	0007871b          	sext.w	a4,a5
ffffffc050208124:	4785                	li	a5,1
ffffffc050208126:	00f71463          	bne	a4,a5,ffffffc05020812e <do_waitpid+0x8a>
ffffffc05020812a:	4781                	li	a5,0
ffffffc05020812c:	a8b9                	j	ffffffc05020818a <do_waitpid+0xe6>
ffffffc05020812e:	fec42703          	lw	a4,-20(s0)
ffffffc050208132:	87ba                	mv	a5,a4
ffffffc050208134:	078a                	slli	a5,a5,0x2
ffffffc050208136:	97ba                	add	a5,a5,a4
ffffffc050208138:	079a                	slli	a5,a5,0x6
ffffffc05020813a:	00049717          	auipc	a4,0x49
ffffffc05020813e:	1be70713          	addi	a4,a4,446 # ffffffc0502512f8 <pcb>
ffffffc050208142:	97ba                	add	a5,a5,a4
ffffffc050208144:	fcf43c23          	sd	a5,-40(s0)
ffffffc050208148:	00049717          	auipc	a4,0x49
ffffffc05020814c:	1a070713          	addi	a4,a4,416 # ffffffc0502512e8 <next_running>
ffffffc050208150:	fe043783          	ld	a5,-32(s0)
ffffffc050208154:	078e                	slli	a5,a5,0x3
ffffffc050208156:	97ba                	add	a5,a5,a4
ffffffc050208158:	639c                	ld	a5,0(a5)
ffffffc05020815a:	02078713          	addi	a4,a5,32
ffffffc05020815e:	fd843783          	ld	a5,-40(s0)
ffffffc050208162:	03078793          	addi	a5,a5,48
ffffffc050208166:	85be                	mv	a1,a5
ffffffc050208168:	853a                	mv	a0,a4
ffffffc05020816a:	405000ef          	jal	ra,ffffffc050208d6e <list_add_tail>
ffffffc05020816e:	00049717          	auipc	a4,0x49
ffffffc050208172:	17a70713          	addi	a4,a4,378 # ffffffc0502512e8 <next_running>
ffffffc050208176:	fe043783          	ld	a5,-32(s0)
ffffffc05020817a:	078e                	slli	a5,a5,0x3
ffffffc05020817c:	97ba                	add	a5,a5,a4
ffffffc05020817e:	639c                	ld	a5,0(a5)
ffffffc050208180:	1007a823          	sw	zero,272(a5)
ffffffc050208184:	918ff0ef          	jal	ra,ffffffc05020729c <do_scheduler>
ffffffc050208188:	4785                	li	a5,1
ffffffc05020818a:	853e                	mv	a0,a5
ffffffc05020818c:	70e2                	ld	ra,56(sp)
ffffffc05020818e:	7442                	ld	s0,48(sp)
ffffffc050208190:	6121                	addi	sp,sp,64
ffffffc050208192:	8082                	ret

ffffffc050208194 <do_getpid>:
ffffffc050208194:	1101                	addi	sp,sp,-32
ffffffc050208196:	ec06                	sd	ra,24(sp)
ffffffc050208198:	e822                	sd	s0,16(sp)
ffffffc05020819a:	1000                	addi	s0,sp,32
ffffffc05020819c:	810fa0ef          	jal	ra,ffffffc0502021ac <get_current_cpu_id>
ffffffc0502081a0:	fea43423          	sd	a0,-24(s0)
ffffffc0502081a4:	00049717          	auipc	a4,0x49
ffffffc0502081a8:	14470713          	addi	a4,a4,324 # ffffffc0502512e8 <next_running>
ffffffc0502081ac:	fe843783          	ld	a5,-24(s0)
ffffffc0502081b0:	078e                	slli	a5,a5,0x3
ffffffc0502081b2:	97ba                	add	a5,a5,a4
ffffffc0502081b4:	639c                	ld	a5,0(a5)
ffffffc0502081b6:	0f07a783          	lw	a5,240(a5)
ffffffc0502081ba:	fef42223          	sw	a5,-28(s0)
ffffffc0502081be:	fe442783          	lw	a5,-28(s0)
ffffffc0502081c2:	853e                	mv	a0,a5
ffffffc0502081c4:	60e2                	ld	ra,24(sp)
ffffffc0502081c6:	6442                	ld	s0,16(sp)
ffffffc0502081c8:	6105                	addi	sp,sp,32
ffffffc0502081ca:	8082                	ret

ffffffc0502081cc <do_exec>:
ffffffc0502081cc:	7131                	addi	sp,sp,-192
ffffffc0502081ce:	fd06                	sd	ra,184(sp)
ffffffc0502081d0:	f922                	sd	s0,176(sp)
ffffffc0502081d2:	f526                	sd	s1,168(sp)
ffffffc0502081d4:	0180                	addi	s0,sp,192
ffffffc0502081d6:	f4a43c23          	sd	a0,-168(s0)
ffffffc0502081da:	87ae                	mv	a5,a1
ffffffc0502081dc:	f4c43423          	sd	a2,-184(s0)
ffffffc0502081e0:	f4f42a23          	sw	a5,-172(s0)
ffffffc0502081e4:	00002797          	auipc	a5,0x2
ffffffc0502081e8:	7c478793          	addi	a5,a5,1988 # ffffffc05020a9a8 <process_id>
ffffffc0502081ec:	439c                	lw	a5,0(a5)
ffffffc0502081ee:	2785                	addiw	a5,a5,1
ffffffc0502081f0:	0007871b          	sext.w	a4,a5
ffffffc0502081f4:	00002797          	auipc	a5,0x2
ffffffc0502081f8:	7b478793          	addi	a5,a5,1972 # ffffffc05020a9a8 <process_id>
ffffffc0502081fc:	c398                	sw	a4,0(a5)
ffffffc0502081fe:	fc042e23          	sw	zero,-36(s0)
ffffffc050208202:	fabf90ef          	jal	ra,ffffffc0502021ac <get_current_cpu_id>
ffffffc050208206:	faa43823          	sd	a0,-80(s0)
ffffffc05020820a:	fc042c23          	sw	zero,-40(s0)
ffffffc05020820e:	fc042c23          	sw	zero,-40(s0)
ffffffc050208212:	a33d                	j	ffffffc050208740 <do_exec+0x574>
ffffffc050208214:	fd842703          	lw	a4,-40(s0)
ffffffc050208218:	87ba                	mv	a5,a4
ffffffc05020821a:	078a                	slli	a5,a5,0x2
ffffffc05020821c:	97ba                	add	a5,a5,a4
ffffffc05020821e:	078e                	slli	a5,a5,0x3
ffffffc050208220:	00044717          	auipc	a4,0x44
ffffffc050208224:	6f870713          	addi	a4,a4,1784 # ffffffc05024c918 <tasks>
ffffffc050208228:	97ba                	add	a5,a5,a4
ffffffc05020822a:	85be                	mv	a1,a5
ffffffc05020822c:	f5843503          	ld	a0,-168(s0)
ffffffc050208230:	285010ef          	jal	ra,ffffffc050209cb4 <strcmp>
ffffffc050208234:	87aa                	mv	a5,a0
ffffffc050208236:	50079063          	bnez	a5,ffffffc050208736 <do_exec+0x56a>
ffffffc05020823a:	fc042a23          	sw	zero,-44(s0)
ffffffc05020823e:	a1ed                	j	ffffffc050208728 <do_exec+0x55c>
ffffffc050208240:	00049697          	auipc	a3,0x49
ffffffc050208244:	0b868693          	addi	a3,a3,184 # ffffffc0502512f8 <pcb>
ffffffc050208248:	fd442703          	lw	a4,-44(s0)
ffffffc05020824c:	87ba                	mv	a5,a4
ffffffc05020824e:	078a                	slli	a5,a5,0x2
ffffffc050208250:	97ba                	add	a5,a5,a4
ffffffc050208252:	079a                	slli	a5,a5,0x6
ffffffc050208254:	97b6                	add	a5,a5,a3
ffffffc050208256:	0f07a783          	lw	a5,240(a5)
ffffffc05020825a:	4c079263          	bnez	a5,ffffffc05020871e <do_exec+0x552>
ffffffc05020825e:	00002797          	auipc	a5,0x2
ffffffc050208262:	74a78793          	addi	a5,a5,1866 # ffffffc05020a9a8 <process_id>
ffffffc050208266:	4394                	lw	a3,0(a5)
ffffffc050208268:	00049617          	auipc	a2,0x49
ffffffc05020826c:	09060613          	addi	a2,a2,144 # ffffffc0502512f8 <pcb>
ffffffc050208270:	fd442703          	lw	a4,-44(s0)
ffffffc050208274:	87ba                	mv	a5,a4
ffffffc050208276:	078a                	slli	a5,a5,0x2
ffffffc050208278:	97ba                	add	a5,a5,a4
ffffffc05020827a:	079a                	slli	a5,a5,0x6
ffffffc05020827c:	97b2                	add	a5,a5,a2
ffffffc05020827e:	0ed7a823          	sw	a3,240(a5)
ffffffc050208282:	fd442703          	lw	a4,-44(s0)
ffffffc050208286:	87ba                	mv	a5,a4
ffffffc050208288:	078a                	slli	a5,a5,0x2
ffffffc05020828a:	97ba                	add	a5,a5,a4
ffffffc05020828c:	079a                	slli	a5,a5,0x6
ffffffc05020828e:	03078713          	addi	a4,a5,48
ffffffc050208292:	00049797          	auipc	a5,0x49
ffffffc050208296:	06678793          	addi	a5,a5,102 # ffffffc0502512f8 <pcb>
ffffffc05020829a:	97ba                	add	a5,a5,a4
ffffffc05020829c:	853e                	mv	a0,a5
ffffffc05020829e:	1c7000ef          	jal	ra,ffffffc050208c64 <init_list_head>
ffffffc0502082a2:	fd442703          	lw	a4,-44(s0)
ffffffc0502082a6:	87ba                	mv	a5,a4
ffffffc0502082a8:	078a                	slli	a5,a5,0x2
ffffffc0502082aa:	97ba                	add	a5,a5,a4
ffffffc0502082ac:	079a                	slli	a5,a5,0x6
ffffffc0502082ae:	04078713          	addi	a4,a5,64
ffffffc0502082b2:	00049797          	auipc	a5,0x49
ffffffc0502082b6:	04678793          	addi	a5,a5,70 # ffffffc0502512f8 <pcb>
ffffffc0502082ba:	97ba                	add	a5,a5,a4
ffffffc0502082bc:	853e                	mv	a0,a5
ffffffc0502082be:	1a7000ef          	jal	ra,ffffffc050208c64 <init_list_head>
ffffffc0502082c2:	00049697          	auipc	a3,0x49
ffffffc0502082c6:	03668693          	addi	a3,a3,54 # ffffffc0502512f8 <pcb>
ffffffc0502082ca:	fd442703          	lw	a4,-44(s0)
ffffffc0502082ce:	87ba                	mv	a5,a4
ffffffc0502082d0:	078a                	slli	a5,a5,0x2
ffffffc0502082d2:	97ba                	add	a5,a5,a4
ffffffc0502082d4:	079a                	slli	a5,a5,0x6
ffffffc0502082d6:	97b6                	add	a5,a5,a3
ffffffc0502082d8:	4709                	li	a4,2
ffffffc0502082da:	10e7a823          	sw	a4,272(a5)
ffffffc0502082de:	00049717          	auipc	a4,0x49
ffffffc0502082e2:	00a70713          	addi	a4,a4,10 # ffffffc0502512e8 <next_running>
ffffffc0502082e6:	fb043783          	ld	a5,-80(s0)
ffffffc0502082ea:	078e                	slli	a5,a5,0x3
ffffffc0502082ec:	97ba                	add	a5,a5,a4
ffffffc0502082ee:	639c                	ld	a5,0(a5)
ffffffc0502082f0:	1207a683          	lw	a3,288(a5)
ffffffc0502082f4:	00049617          	auipc	a2,0x49
ffffffc0502082f8:	00460613          	addi	a2,a2,4 # ffffffc0502512f8 <pcb>
ffffffc0502082fc:	fd442703          	lw	a4,-44(s0)
ffffffc050208300:	87ba                	mv	a5,a4
ffffffc050208302:	078a                	slli	a5,a5,0x2
ffffffc050208304:	97ba                	add	a5,a5,a4
ffffffc050208306:	079a                	slli	a5,a5,0x6
ffffffc050208308:	97b2                	add	a5,a5,a2
ffffffc05020830a:	12d7a023          	sw	a3,288(a5)
ffffffc05020830e:	00049697          	auipc	a3,0x49
ffffffc050208312:	fea68693          	addi	a3,a3,-22 # ffffffc0502512f8 <pcb>
ffffffc050208316:	fd442703          	lw	a4,-44(s0)
ffffffc05020831a:	87ba                	mv	a5,a4
ffffffc05020831c:	078a                	slli	a5,a5,0x2
ffffffc05020831e:	97ba                	add	a5,a5,a4
ffffffc050208320:	079a                	slli	a5,a5,0x6
ffffffc050208322:	97b6                	add	a5,a5,a3
ffffffc050208324:	f5843703          	ld	a4,-168(s0)
ffffffc050208328:	12e7b823          	sd	a4,304(a5)
ffffffc05020832c:	fd442703          	lw	a4,-44(s0)
ffffffc050208330:	87ba                	mv	a5,a4
ffffffc050208332:	078a                	slli	a5,a5,0x2
ffffffc050208334:	97ba                	add	a5,a5,a4
ffffffc050208336:	079a                	slli	a5,a5,0x6
ffffffc050208338:	02078713          	addi	a4,a5,32
ffffffc05020833c:	00049797          	auipc	a5,0x49
ffffffc050208340:	fbc78793          	addi	a5,a5,-68 # ffffffc0502512f8 <pcb>
ffffffc050208344:	97ba                	add	a5,a5,a4
ffffffc050208346:	00002597          	auipc	a1,0x2
ffffffc05020834a:	5da58593          	addi	a1,a1,1498 # ffffffc05020a920 <ready_queue>
ffffffc05020834e:	853e                	mv	a0,a5
ffffffc050208350:	21f000ef          	jal	ra,ffffffc050208d6e <list_add_tail>
ffffffc050208354:	f59fc0ef          	jal	ra,ffffffc0502052ac <allocPage>
ffffffc050208358:	862a                	mv	a2,a0
ffffffc05020835a:	00049697          	auipc	a3,0x49
ffffffc05020835e:	f9e68693          	addi	a3,a3,-98 # ffffffc0502512f8 <pcb>
ffffffc050208362:	fd442703          	lw	a4,-44(s0)
ffffffc050208366:	87ba                	mv	a5,a4
ffffffc050208368:	078a                	slli	a5,a5,0x2
ffffffc05020836a:	97ba                	add	a5,a5,a4
ffffffc05020836c:	079a                	slli	a5,a5,0x6
ffffffc05020836e:	97b6                	add	a5,a5,a3
ffffffc050208370:	f7f0                	sd	a2,232(a5)
ffffffc050208372:	00049697          	auipc	a3,0x49
ffffffc050208376:	f8668693          	addi	a3,a3,-122 # ffffffc0502512f8 <pcb>
ffffffc05020837a:	fd442703          	lw	a4,-44(s0)
ffffffc05020837e:	87ba                	mv	a5,a4
ffffffc050208380:	078a                	slli	a5,a5,0x2
ffffffc050208382:	97ba                	add	a5,a5,a4
ffffffc050208384:	079a                	slli	a5,a5,0x6
ffffffc050208386:	97b6                	add	a5,a5,a3
ffffffc050208388:	77fc                	ld	a5,232(a5)
ffffffc05020838a:	84be                	mv	s1,a5
ffffffc05020838c:	51000537          	lui	a0,0x51000
ffffffc050208390:	ef1fe0ef          	jal	ra,ffffffc050207280 <pa2kva>
ffffffc050208394:	87aa                	mv	a5,a0
ffffffc050208396:	6605                	lui	a2,0x1
ffffffc050208398:	85be                	mv	a1,a5
ffffffc05020839a:	8526                	mv	a0,s1
ffffffc05020839c:	013010ef          	jal	ra,ffffffc050209bae <memcpy>
ffffffc0502083a0:	f0dfc0ef          	jal	ra,ffffffc0502052ac <allocPage>
ffffffc0502083a4:	872a                	mv	a4,a0
ffffffc0502083a6:	6785                	lui	a5,0x1
ffffffc0502083a8:	97ba                	add	a5,a5,a4
ffffffc0502083aa:	faf43423          	sd	a5,-88(s0)
ffffffc0502083ae:	00049697          	auipc	a3,0x49
ffffffc0502083b2:	f4a68693          	addi	a3,a3,-182 # ffffffc0502512f8 <pcb>
ffffffc0502083b6:	fd442703          	lw	a4,-44(s0)
ffffffc0502083ba:	87ba                	mv	a5,a4
ffffffc0502083bc:	078a                	slli	a5,a5,0x2
ffffffc0502083be:	97ba                	add	a5,a5,a4
ffffffc0502083c0:	079a                	slli	a5,a5,0x6
ffffffc0502083c2:	97b6                	add	a5,a5,a3
ffffffc0502083c4:	77fc                	ld	a5,232(a5)
ffffffc0502083c6:	85be                	mv	a1,a5
ffffffc0502083c8:	00f007b7          	lui	a5,0xf00
ffffffc0502083cc:	07bd                	addi	a5,a5,15
ffffffc0502083ce:	00c79513          	slli	a0,a5,0xc
ffffffc0502083d2:	85cfd0ef          	jal	ra,ffffffc05020542e <alloc_page_helper>
ffffffc0502083d6:	872a                	mv	a4,a0
ffffffc0502083d8:	6785                	lui	a5,0x1
ffffffc0502083da:	97ba                	add	a5,a5,a4
ffffffc0502083dc:	faf43023          	sd	a5,-96(s0)
ffffffc0502083e0:	fa043783          	ld	a5,-96(s0)
ffffffc0502083e4:	f8f43c23          	sd	a5,-104(s0)
ffffffc0502083e8:	00049697          	auipc	a3,0x49
ffffffc0502083ec:	f1068693          	addi	a3,a3,-240 # ffffffc0502512f8 <pcb>
ffffffc0502083f0:	fd442703          	lw	a4,-44(s0)
ffffffc0502083f4:	87ba                	mv	a5,a4
ffffffc0502083f6:	078a                	slli	a5,a5,0x2
ffffffc0502083f8:	97ba                	add	a5,a5,a4
ffffffc0502083fa:	079a                	slli	a5,a5,0x6
ffffffc0502083fc:	97b6                	add	a5,a5,a3
ffffffc0502083fe:	77f8                	ld	a4,232(a5)
ffffffc050208400:	fd842783          	lw	a5,-40(s0)
ffffffc050208404:	85ba                	mv	a1,a4
ffffffc050208406:	853e                	mv	a0,a5
ffffffc050208408:	c3bfc0ef          	jal	ra,ffffffc050205042 <load_task_img>
ffffffc05020840c:	f8a43823          	sd	a0,-112(s0)
ffffffc050208410:	f5442783          	lw	a5,-172(s0)
ffffffc050208414:	078e                	slli	a5,a5,0x3
ffffffc050208416:	fa043703          	ld	a4,-96(s0)
ffffffc05020841a:	40f707b3          	sub	a5,a4,a5
ffffffc05020841e:	f8f43423          	sd	a5,-120(s0)
ffffffc050208422:	f8843783          	ld	a5,-120(s0)
ffffffc050208426:	fcf43423          	sd	a5,-56(s0)
ffffffc05020842a:	f8843783          	ld	a5,-120(s0)
ffffffc05020842e:	fcf43023          	sd	a5,-64(s0)
ffffffc050208432:	fa042e23          	sw	zero,-68(s0)
ffffffc050208436:	a899                	j	ffffffc05020848c <do_exec+0x2c0>
ffffffc050208438:	fc043783          	ld	a5,-64(s0)
ffffffc05020843c:	17c1                	addi	a5,a5,-16
ffffffc05020843e:	fcf43023          	sd	a5,-64(s0)
ffffffc050208442:	fbc42783          	lw	a5,-68(s0)
ffffffc050208446:	078e                	slli	a5,a5,0x3
ffffffc050208448:	f4843703          	ld	a4,-184(s0)
ffffffc05020844c:	97ba                	add	a5,a5,a4
ffffffc05020844e:	639c                	ld	a5,0(a5)
ffffffc050208450:	85be                	mv	a1,a5
ffffffc050208452:	fc043503          	ld	a0,-64(s0)
ffffffc050208456:	191010ef          	jal	ra,ffffffc050209de6 <strcpy>
ffffffc05020845a:	fca43023          	sd	a0,-64(s0)
ffffffc05020845e:	fc043703          	ld	a4,-64(s0)
ffffffc050208462:	fa043783          	ld	a5,-96(s0)
ffffffc050208466:	8f1d                	sub	a4,a4,a5
ffffffc050208468:	000f07b7          	lui	a5,0xf0
ffffffc05020846c:	0785                	addi	a5,a5,1
ffffffc05020846e:	07c2                	slli	a5,a5,0x10
ffffffc050208470:	973e                	add	a4,a4,a5
ffffffc050208472:	fc843783          	ld	a5,-56(s0)
ffffffc050208476:	e398                	sd	a4,0(a5)
ffffffc050208478:	fc843783          	ld	a5,-56(s0)
ffffffc05020847c:	07a1                	addi	a5,a5,8
ffffffc05020847e:	fcf43423          	sd	a5,-56(s0)
ffffffc050208482:	fbc42783          	lw	a5,-68(s0)
ffffffc050208486:	2785                	addiw	a5,a5,1
ffffffc050208488:	faf42e23          	sw	a5,-68(s0)
ffffffc05020848c:	fbc42703          	lw	a4,-68(s0)
ffffffc050208490:	f5442783          	lw	a5,-172(s0)
ffffffc050208494:	2701                	sext.w	a4,a4
ffffffc050208496:	2781                	sext.w	a5,a5
ffffffc050208498:	faf740e3          	blt	a4,a5,ffffffc050208438 <do_exec+0x26c>
ffffffc05020849c:	fa043783          	ld	a5,-96(s0)
ffffffc0502084a0:	0007871b          	sext.w	a4,a5
ffffffc0502084a4:	fc043783          	ld	a5,-64(s0)
ffffffc0502084a8:	2781                	sext.w	a5,a5
ffffffc0502084aa:	40f707bb          	subw	a5,a4,a5
ffffffc0502084ae:	2781                	sext.w	a5,a5
ffffffc0502084b0:	2781                	sext.w	a5,a5
ffffffc0502084b2:	8bbd                	andi	a5,a5,15
ffffffc0502084b4:	f8f42223          	sw	a5,-124(s0)
ffffffc0502084b8:	f8442783          	lw	a5,-124(s0)
ffffffc0502084bc:	2781                	sext.w	a5,a5
ffffffc0502084be:	c385                	beqz	a5,ffffffc0502084de <do_exec+0x312>
ffffffc0502084c0:	4741                	li	a4,16
ffffffc0502084c2:	f8442783          	lw	a5,-124(s0)
ffffffc0502084c6:	40f707bb          	subw	a5,a4,a5
ffffffc0502084ca:	f8f42023          	sw	a5,-128(s0)
ffffffc0502084ce:	fc043703          	ld	a4,-64(s0)
ffffffc0502084d2:	f8042783          	lw	a5,-128(s0)
ffffffc0502084d6:	40f707b3          	sub	a5,a4,a5
ffffffc0502084da:	fcf43023          	sd	a5,-64(s0)
ffffffc0502084de:	fc043783          	ld	a5,-64(s0)
ffffffc0502084e2:	faf43023          	sd	a5,-96(s0)
ffffffc0502084e6:	f9843703          	ld	a4,-104(s0)
ffffffc0502084ea:	fa043783          	ld	a5,-96(s0)
ffffffc0502084ee:	40f707b3          	sub	a5,a4,a5
ffffffc0502084f2:	f6f43c23          	sd	a5,-136(s0)
ffffffc0502084f6:	fa843783          	ld	a5,-88(s0)
ffffffc0502084fa:	ee078793          	addi	a5,a5,-288 # efee0 <boot_stack_top_base-0x50112120>
ffffffc0502084fe:	f6f43823          	sd	a5,-144(s0)
ffffffc050208502:	fa042c23          	sw	zero,-72(s0)
ffffffc050208506:	a831                	j	ffffffc050208522 <do_exec+0x356>
ffffffc050208508:	f7043703          	ld	a4,-144(s0)
ffffffc05020850c:	fb842783          	lw	a5,-72(s0)
ffffffc050208510:	078e                	slli	a5,a5,0x3
ffffffc050208512:	97ba                	add	a5,a5,a4
ffffffc050208514:	0007b023          	sd	zero,0(a5)
ffffffc050208518:	fb842783          	lw	a5,-72(s0)
ffffffc05020851c:	2785                	addiw	a5,a5,1
ffffffc05020851e:	faf42c23          	sw	a5,-72(s0)
ffffffc050208522:	fb842783          	lw	a5,-72(s0)
ffffffc050208526:	0007871b          	sext.w	a4,a5
ffffffc05020852a:	47fd                	li	a5,31
ffffffc05020852c:	fce7dee3          	bge	a5,a4,ffffffc050208508 <do_exec+0x33c>
ffffffc050208530:	f7043783          	ld	a5,-144(s0)
ffffffc050208534:	f9043703          	ld	a4,-112(s0)
ffffffc050208538:	e798                	sd	a4,8(a5)
ffffffc05020853a:	000f07b7          	lui	a5,0xf0
ffffffc05020853e:	0785                	addi	a5,a5,1
ffffffc050208540:	01079713          	slli	a4,a5,0x10
ffffffc050208544:	f7843783          	ld	a5,-136(s0)
ffffffc050208548:	8f1d                	sub	a4,a4,a5
ffffffc05020854a:	f7043783          	ld	a5,-144(s0)
ffffffc05020854e:	eb98                	sd	a4,16(a5)
ffffffc050208550:	fd442703          	lw	a4,-44(s0)
ffffffc050208554:	87ba                	mv	a5,a4
ffffffc050208556:	078a                	slli	a5,a5,0x2
ffffffc050208558:	97ba                	add	a5,a5,a4
ffffffc05020855a:	079a                	slli	a5,a5,0x6
ffffffc05020855c:	00049717          	auipc	a4,0x49
ffffffc050208560:	d9c70713          	addi	a4,a4,-612 # ffffffc0502512f8 <pcb>
ffffffc050208564:	97ba                	add	a5,a5,a4
ffffffc050208566:	873e                	mv	a4,a5
ffffffc050208568:	f7043783          	ld	a5,-144(s0)
ffffffc05020856c:	f398                	sd	a4,32(a5)
ffffffc05020856e:	f5442703          	lw	a4,-172(s0)
ffffffc050208572:	f7043783          	ld	a5,-144(s0)
ffffffc050208576:	ebb8                	sd	a4,80(a5)
ffffffc050208578:	f5442783          	lw	a5,-172(s0)
ffffffc05020857c:	000f0737          	lui	a4,0xf0
ffffffc050208580:	0705                	addi	a4,a4,1
ffffffc050208582:	0736                	slli	a4,a4,0xd
ffffffc050208584:	40f707b3          	sub	a5,a4,a5
ffffffc050208588:	00379713          	slli	a4,a5,0x3
ffffffc05020858c:	f7043783          	ld	a5,-144(s0)
ffffffc050208590:	efb8                	sd	a4,88(a5)
ffffffc050208592:	f7043783          	ld	a5,-144(s0)
ffffffc050208596:	f9043703          	ld	a4,-112(s0)
ffffffc05020859a:	10e7b423          	sd	a4,264(a5) # f0108 <boot_stack_top_base-0x50111ef8>
ffffffc05020859e:	f7043783          	ld	a5,-144(s0)
ffffffc0502085a2:	4709                	li	a4,2
ffffffc0502085a4:	10e7b023          	sd	a4,256(a5)
ffffffc0502085a8:	f7043783          	ld	a5,-144(s0)
ffffffc0502085ac:	f9078793          	addi	a5,a5,-112
ffffffc0502085b0:	f6f43423          	sd	a5,-152(s0)
ffffffc0502085b4:	ffffa717          	auipc	a4,0xffffa
ffffffc0502085b8:	ad870713          	addi	a4,a4,-1320 # ffffffc05020208c <ret_from_exception>
ffffffc0502085bc:	f6843783          	ld	a5,-152(s0)
ffffffc0502085c0:	e398                	sd	a4,0(a5)
ffffffc0502085c2:	000f07b7          	lui	a5,0xf0
ffffffc0502085c6:	0785                	addi	a5,a5,1
ffffffc0502085c8:	01079713          	slli	a4,a5,0x10
ffffffc0502085cc:	f7843783          	ld	a5,-136(s0)
ffffffc0502085d0:	8f1d                	sub	a4,a4,a5
ffffffc0502085d2:	f6843783          	ld	a5,-152(s0)
ffffffc0502085d6:	e798                	sd	a4,8(a5)
ffffffc0502085d8:	fa843783          	ld	a5,-88(s0)
ffffffc0502085dc:	e7078693          	addi	a3,a5,-400 # efe70 <boot_stack_top_base-0x50112190>
ffffffc0502085e0:	00049617          	auipc	a2,0x49
ffffffc0502085e4:	d1860613          	addi	a2,a2,-744 # ffffffc0502512f8 <pcb>
ffffffc0502085e8:	fd442703          	lw	a4,-44(s0)
ffffffc0502085ec:	87ba                	mv	a5,a4
ffffffc0502085ee:	078a                	slli	a5,a5,0x2
ffffffc0502085f0:	97ba                	add	a5,a5,a4
ffffffc0502085f2:	079a                	slli	a5,a5,0x6
ffffffc0502085f4:	97b2                	add	a5,a5,a2
ffffffc0502085f6:	e394                	sd	a3,0(a5)
ffffffc0502085f8:	000f07b7          	lui	a5,0xf0
ffffffc0502085fc:	0785                	addi	a5,a5,1
ffffffc0502085fe:	01079713          	slli	a4,a5,0x10
ffffffc050208602:	f7843783          	ld	a5,-136(s0)
ffffffc050208606:	40f706b3          	sub	a3,a4,a5
ffffffc05020860a:	00049617          	auipc	a2,0x49
ffffffc05020860e:	cee60613          	addi	a2,a2,-786 # ffffffc0502512f8 <pcb>
ffffffc050208612:	fd442703          	lw	a4,-44(s0)
ffffffc050208616:	87ba                	mv	a5,a4
ffffffc050208618:	078a                	slli	a5,a5,0x2
ffffffc05020861a:	97ba                	add	a5,a5,a4
ffffffc05020861c:	079a                	slli	a5,a5,0x6
ffffffc05020861e:	97b2                	add	a5,a5,a2
ffffffc050208620:	e794                	sd	a3,8(a5)
ffffffc050208622:	00049697          	auipc	a3,0x49
ffffffc050208626:	cd668693          	addi	a3,a3,-810 # ffffffc0502512f8 <pcb>
ffffffc05020862a:	fd442703          	lw	a4,-44(s0)
ffffffc05020862e:	87ba                	mv	a5,a4
ffffffc050208630:	078a                	slli	a5,a5,0x2
ffffffc050208632:	97ba                	add	a5,a5,a4
ffffffc050208634:	079a                	slli	a5,a5,0x6
ffffffc050208636:	97b6                	add	a5,a5,a3
ffffffc050208638:	f9043703          	ld	a4,-112(s0)
ffffffc05020863c:	efb8                	sd	a4,88(a5)
ffffffc05020863e:	00049697          	auipc	a3,0x49
ffffffc050208642:	cba68693          	addi	a3,a3,-838 # ffffffc0502512f8 <pcb>
ffffffc050208646:	fd442703          	lw	a4,-44(s0)
ffffffc05020864a:	87ba                	mv	a5,a4
ffffffc05020864c:	078a                	slli	a5,a5,0x2
ffffffc05020864e:	97ba                	add	a5,a5,a4
ffffffc050208650:	079a                	slli	a5,a5,0x6
ffffffc050208652:	97b6                	add	a5,a5,a3
ffffffc050208654:	77fc                	ld	a5,232(a5)
ffffffc050208656:	853e                	mv	a0,a5
ffffffc050208658:	c0dfe0ef          	jal	ra,ffffffc050207264 <kva2pa>
ffffffc05020865c:	862a                	mv	a2,a0
ffffffc05020865e:	00049697          	auipc	a3,0x49
ffffffc050208662:	c9a68693          	addi	a3,a3,-870 # ffffffc0502512f8 <pcb>
ffffffc050208666:	fd442703          	lw	a4,-44(s0)
ffffffc05020866a:	87ba                	mv	a5,a4
ffffffc05020866c:	078a                	slli	a5,a5,0x2
ffffffc05020866e:	97ba                	add	a5,a5,a4
ffffffc050208670:	079a                	slli	a5,a5,0x6
ffffffc050208672:	97b6                	add	a5,a5,a3
ffffffc050208674:	f7f0                	sd	a2,232(a5)
ffffffc050208676:	03000513          	li	a0,48
ffffffc05020867a:	d63fc0ef          	jal	ra,ffffffc0502053dc <kmalloc>
ffffffc05020867e:	f6a43023          	sd	a0,-160(s0)
ffffffc050208682:	f9843703          	ld	a4,-104(s0)
ffffffc050208686:	77fd                	lui	a5,0xfffff
ffffffc050208688:	97ba                	add	a5,a5,a4
ffffffc05020868a:	853e                	mv	a0,a5
ffffffc05020868c:	bd9fe0ef          	jal	ra,ffffffc050207264 <kva2pa>
ffffffc050208690:	872a                	mv	a4,a0
ffffffc050208692:	f6043783          	ld	a5,-160(s0)
ffffffc050208696:	e398                	sd	a4,0(a5)
ffffffc050208698:	f6043783          	ld	a5,-160(s0)
ffffffc05020869c:	00f00737          	lui	a4,0xf00
ffffffc0502086a0:	073d                	addi	a4,a4,15
ffffffc0502086a2:	0732                	slli	a4,a4,0xc
ffffffc0502086a4:	e798                	sd	a4,8(a5)
ffffffc0502086a6:	f6043783          	ld	a5,-160(s0)
ffffffc0502086aa:	4705                	li	a4,1
ffffffc0502086ac:	d398                	sw	a4,32(a5)
ffffffc0502086ae:	f6043783          	ld	a5,-160(s0)
ffffffc0502086b2:	07c1                	addi	a5,a5,16
ffffffc0502086b4:	853e                	mv	a0,a5
ffffffc0502086b6:	5ae000ef          	jal	ra,ffffffc050208c64 <init_list_head>
ffffffc0502086ba:	f6043783          	ld	a5,-160(s0)
ffffffc0502086be:	01078693          	addi	a3,a5,16 # fffffffffffff010 <__BSS_END__+0x3fafdab318>
ffffffc0502086c2:	fd442703          	lw	a4,-44(s0)
ffffffc0502086c6:	87ba                	mv	a5,a4
ffffffc0502086c8:	078a                	slli	a5,a5,0x2
ffffffc0502086ca:	97ba                	add	a5,a5,a4
ffffffc0502086cc:	079a                	slli	a5,a5,0x6
ffffffc0502086ce:	04078713          	addi	a4,a5,64
ffffffc0502086d2:	00049797          	auipc	a5,0x49
ffffffc0502086d6:	c2678793          	addi	a5,a5,-986 # ffffffc0502512f8 <pcb>
ffffffc0502086da:	97ba                	add	a5,a5,a4
ffffffc0502086dc:	85be                	mv	a1,a5
ffffffc0502086de:	8536                	mv	a0,a3
ffffffc0502086e0:	68e000ef          	jal	ra,ffffffc050208d6e <list_add_tail>
ffffffc0502086e4:	00049697          	auipc	a3,0x49
ffffffc0502086e8:	c1468693          	addi	a3,a3,-1004 # ffffffc0502512f8 <pcb>
ffffffc0502086ec:	fd442703          	lw	a4,-44(s0)
ffffffc0502086f0:	87ba                	mv	a5,a4
ffffffc0502086f2:	078a                	slli	a5,a5,0x2
ffffffc0502086f4:	97ba                	add	a5,a5,a4
ffffffc0502086f6:	079a                	slli	a5,a5,0x6
ffffffc0502086f8:	97b6                	add	a5,a5,a3
ffffffc0502086fa:	4705                	li	a4,1
ffffffc0502086fc:	cbb8                	sw	a4,80(a5)
ffffffc0502086fe:	00049697          	auipc	a3,0x49
ffffffc050208702:	bfa68693          	addi	a3,a3,-1030 # ffffffc0502512f8 <pcb>
ffffffc050208706:	fd442703          	lw	a4,-44(s0)
ffffffc05020870a:	87ba                	mv	a5,a4
ffffffc05020870c:	078a                	slli	a5,a5,0x2
ffffffc05020870e:	97ba                	add	a5,a5,a4
ffffffc050208710:	079a                	slli	a5,a5,0x6
ffffffc050208712:	97b6                	add	a5,a5,a3
ffffffc050208714:	0f07a783          	lw	a5,240(a5)
ffffffc050208718:	fcf42e23          	sw	a5,-36(s0)
ffffffc05020871c:	a829                	j	ffffffc050208736 <do_exec+0x56a>
ffffffc05020871e:	fd442783          	lw	a5,-44(s0)
ffffffc050208722:	2785                	addiw	a5,a5,1
ffffffc050208724:	fcf42a23          	sw	a5,-44(s0)
ffffffc050208728:	fd442783          	lw	a5,-44(s0)
ffffffc05020872c:	0007871b          	sext.w	a4,a5
ffffffc050208730:	47fd                	li	a5,31
ffffffc050208732:	b0e7d7e3          	bge	a5,a4,ffffffc050208240 <do_exec+0x74>
ffffffc050208736:	fd842783          	lw	a5,-40(s0)
ffffffc05020873a:	2785                	addiw	a5,a5,1
ffffffc05020873c:	fcf42c23          	sw	a5,-40(s0)
ffffffc050208740:	fd842783          	lw	a5,-40(s0)
ffffffc050208744:	0007871b          	sext.w	a4,a5
ffffffc050208748:	47fd                	li	a5,31
ffffffc05020874a:	ace7d5e3          	bge	a5,a4,ffffffc050208214 <do_exec+0x48>
ffffffc05020874e:	fdc42783          	lw	a5,-36(s0)
ffffffc050208752:	853e                	mv	a0,a5
ffffffc050208754:	70ea                	ld	ra,184(sp)
ffffffc050208756:	744a                	ld	s0,176(sp)
ffffffc050208758:	74aa                	ld	s1,168(sp)
ffffffc05020875a:	6129                	addi	sp,sp,192
ffffffc05020875c:	8082                	ret

ffffffc05020875e <do_taskset>:
ffffffc05020875e:	7139                	addi	sp,sp,-64
ffffffc050208760:	fc06                	sd	ra,56(sp)
ffffffc050208762:	f822                	sd	s0,48(sp)
ffffffc050208764:	0080                	addi	s0,sp,64
ffffffc050208766:	fca43c23          	sd	a0,-40(s0)
ffffffc05020876a:	87ae                	mv	a5,a1
ffffffc05020876c:	fcc43423          	sd	a2,-56(s0)
ffffffc050208770:	8736                	mv	a4,a3
ffffffc050208772:	fcf42a23          	sw	a5,-44(s0)
ffffffc050208776:	87ba                	mv	a5,a4
ffffffc050208778:	fcf42823          	sw	a5,-48(s0)
ffffffc05020877c:	fd442783          	lw	a5,-44(s0)
ffffffc050208780:	fc843603          	ld	a2,-56(s0)
ffffffc050208784:	85be                	mv	a1,a5
ffffffc050208786:	fd843503          	ld	a0,-40(s0)
ffffffc05020878a:	a43ff0ef          	jal	ra,ffffffc0502081cc <do_exec>
ffffffc05020878e:	87aa                	mv	a5,a0
ffffffc050208790:	fef42423          	sw	a5,-24(s0)
ffffffc050208794:	fe042623          	sw	zero,-20(s0)
ffffffc050208798:	a881                	j	ffffffc0502087e8 <do_taskset+0x8a>
ffffffc05020879a:	00049697          	auipc	a3,0x49
ffffffc05020879e:	b5e68693          	addi	a3,a3,-1186 # ffffffc0502512f8 <pcb>
ffffffc0502087a2:	fec42703          	lw	a4,-20(s0)
ffffffc0502087a6:	87ba                	mv	a5,a4
ffffffc0502087a8:	078a                	slli	a5,a5,0x2
ffffffc0502087aa:	97ba                	add	a5,a5,a4
ffffffc0502087ac:	079a                	slli	a5,a5,0x6
ffffffc0502087ae:	97b6                	add	a5,a5,a3
ffffffc0502087b0:	0f07a703          	lw	a4,240(a5)
ffffffc0502087b4:	fe842783          	lw	a5,-24(s0)
ffffffc0502087b8:	2781                	sext.w	a5,a5
ffffffc0502087ba:	02e79263          	bne	a5,a4,ffffffc0502087de <do_taskset+0x80>
ffffffc0502087be:	00049697          	auipc	a3,0x49
ffffffc0502087c2:	b3a68693          	addi	a3,a3,-1222 # ffffffc0502512f8 <pcb>
ffffffc0502087c6:	fec42703          	lw	a4,-20(s0)
ffffffc0502087ca:	87ba                	mv	a5,a4
ffffffc0502087cc:	078a                	slli	a5,a5,0x2
ffffffc0502087ce:	97ba                	add	a5,a5,a4
ffffffc0502087d0:	079a                	slli	a5,a5,0x6
ffffffc0502087d2:	97b6                	add	a5,a5,a3
ffffffc0502087d4:	fd042703          	lw	a4,-48(s0)
ffffffc0502087d8:	12e7a023          	sw	a4,288(a5)
ffffffc0502087dc:	a829                	j	ffffffc0502087f6 <do_taskset+0x98>
ffffffc0502087de:	fec42783          	lw	a5,-20(s0)
ffffffc0502087e2:	2785                	addiw	a5,a5,1
ffffffc0502087e4:	fef42623          	sw	a5,-20(s0)
ffffffc0502087e8:	fec42783          	lw	a5,-20(s0)
ffffffc0502087ec:	0007871b          	sext.w	a4,a5
ffffffc0502087f0:	47fd                	li	a5,31
ffffffc0502087f2:	fae7d4e3          	bge	a5,a4,ffffffc05020879a <do_taskset+0x3c>
ffffffc0502087f6:	fd042783          	lw	a5,-48(s0)
ffffffc0502087fa:	0007871b          	sext.w	a4,a5
ffffffc0502087fe:	4785                	li	a5,1
ffffffc050208800:	00f71863          	bne	a4,a5,ffffffc050208810 <do_taskset+0xb2>
ffffffc050208804:	00002517          	auipc	a0,0x2
ffffffc050208808:	d9c50513          	addi	a0,a0,-612 # ffffffc05020a5a0 <__FUNCTION__.1603+0x180>
ffffffc05020880c:	23a010ef          	jal	ra,ffffffc050209a46 <printk>
ffffffc050208810:	fe842783          	lw	a5,-24(s0)
ffffffc050208814:	853e                	mv	a0,a5
ffffffc050208816:	70e2                	ld	ra,56(sp)
ffffffc050208818:	7442                	ld	s0,48(sp)
ffffffc05020881a:	6121                	addi	sp,sp,64
ffffffc05020881c:	8082                	ret

ffffffc05020881e <do_tasksetrun>:
ffffffc05020881e:	7179                	addi	sp,sp,-48
ffffffc050208820:	f406                	sd	ra,40(sp)
ffffffc050208822:	f022                	sd	s0,32(sp)
ffffffc050208824:	1800                	addi	s0,sp,48
ffffffc050208826:	87aa                	mv	a5,a0
ffffffc050208828:	872e                	mv	a4,a1
ffffffc05020882a:	fcf42e23          	sw	a5,-36(s0)
ffffffc05020882e:	87ba                	mv	a5,a4
ffffffc050208830:	fcf42c23          	sw	a5,-40(s0)
ffffffc050208834:	fe042623          	sw	zero,-20(s0)
ffffffc050208838:	fe042623          	sw	zero,-20(s0)
ffffffc05020883c:	a08d                	j	ffffffc05020889e <do_tasksetrun+0x80>
ffffffc05020883e:	00049697          	auipc	a3,0x49
ffffffc050208842:	aba68693          	addi	a3,a3,-1350 # ffffffc0502512f8 <pcb>
ffffffc050208846:	fec42703          	lw	a4,-20(s0)
ffffffc05020884a:	87ba                	mv	a5,a4
ffffffc05020884c:	078a                	slli	a5,a5,0x2
ffffffc05020884e:	97ba                	add	a5,a5,a4
ffffffc050208850:	079a                	slli	a5,a5,0x6
ffffffc050208852:	97b6                	add	a5,a5,a3
ffffffc050208854:	0f07a703          	lw	a4,240(a5)
ffffffc050208858:	fdc42783          	lw	a5,-36(s0)
ffffffc05020885c:	2781                	sext.w	a5,a5
ffffffc05020885e:	02e79b63          	bne	a5,a4,ffffffc050208894 <do_tasksetrun+0x76>
ffffffc050208862:	00049697          	auipc	a3,0x49
ffffffc050208866:	a9668693          	addi	a3,a3,-1386 # ffffffc0502512f8 <pcb>
ffffffc05020886a:	fec42703          	lw	a4,-20(s0)
ffffffc05020886e:	87ba                	mv	a5,a4
ffffffc050208870:	078a                	slli	a5,a5,0x2
ffffffc050208872:	97ba                	add	a5,a5,a4
ffffffc050208874:	079a                	slli	a5,a5,0x6
ffffffc050208876:	97b6                	add	a5,a5,a3
ffffffc050208878:	fd842703          	lw	a4,-40(s0)
ffffffc05020887c:	12e7a023          	sw	a4,288(a5)
ffffffc050208880:	fdc42783          	lw	a5,-36(s0)
ffffffc050208884:	85be                	mv	a1,a5
ffffffc050208886:	00002517          	auipc	a0,0x2
ffffffc05020888a:	d2250513          	addi	a0,a0,-734 # ffffffc05020a5a8 <__FUNCTION__.1603+0x188>
ffffffc05020888e:	1b8010ef          	jal	ra,ffffffc050209a46 <printk>
ffffffc050208892:	a829                	j	ffffffc0502088ac <do_tasksetrun+0x8e>
ffffffc050208894:	fec42783          	lw	a5,-20(s0)
ffffffc050208898:	2785                	addiw	a5,a5,1
ffffffc05020889a:	fef42623          	sw	a5,-20(s0)
ffffffc05020889e:	fec42783          	lw	a5,-20(s0)
ffffffc0502088a2:	0007871b          	sext.w	a4,a5
ffffffc0502088a6:	47fd                	li	a5,31
ffffffc0502088a8:	f8e7dbe3          	bge	a5,a4,ffffffc05020883e <do_tasksetrun+0x20>
ffffffc0502088ac:	fec42783          	lw	a5,-20(s0)
ffffffc0502088b0:	0007871b          	sext.w	a4,a5
ffffffc0502088b4:	02000793          	li	a5,32
ffffffc0502088b8:	00f71b63          	bne	a4,a5,ffffffc0502088ce <do_tasksetrun+0xb0>
ffffffc0502088bc:	fdc42783          	lw	a5,-36(s0)
ffffffc0502088c0:	85be                	mv	a1,a5
ffffffc0502088c2:	00002517          	auipc	a0,0x2
ffffffc0502088c6:	d0650513          	addi	a0,a0,-762 # ffffffc05020a5c8 <__FUNCTION__.1603+0x1a8>
ffffffc0502088ca:	17c010ef          	jal	ra,ffffffc050209a46 <printk>
ffffffc0502088ce:	0001                	nop
ffffffc0502088d0:	70a2                	ld	ra,40(sp)
ffffffc0502088d2:	7402                	ld	s0,32(sp)
ffffffc0502088d4:	6145                	addi	sp,sp,48
ffffffc0502088d6:	8082                	ret

ffffffc0502088d8 <pthread_create>:
ffffffc0502088d8:	7119                	addi	sp,sp,-128
ffffffc0502088da:	fc86                	sd	ra,120(sp)
ffffffc0502088dc:	f8a2                	sd	s0,112(sp)
ffffffc0502088de:	0100                	addi	s0,sp,128
ffffffc0502088e0:	f8a43c23          	sd	a0,-104(s0)
ffffffc0502088e4:	f8b43823          	sd	a1,-112(s0)
ffffffc0502088e8:	f8c43423          	sd	a2,-120(s0)
ffffffc0502088ec:	8c1f90ef          	jal	ra,ffffffc0502021ac <get_current_cpu_id>
ffffffc0502088f0:	fea43023          	sd	a0,-32(s0)
ffffffc0502088f4:	00002797          	auipc	a5,0x2
ffffffc0502088f8:	0d478793          	addi	a5,a5,212 # ffffffc05020a9c8 <thread_idx>
ffffffc0502088fc:	439c                	lw	a5,0(a5)
ffffffc0502088fe:	2785                	addiw	a5,a5,1
ffffffc050208900:	0007871b          	sext.w	a4,a5
ffffffc050208904:	00002797          	auipc	a5,0x2
ffffffc050208908:	0c478793          	addi	a5,a5,196 # ffffffc05020a9c8 <thread_idx>
ffffffc05020890c:	c398                	sw	a4,0(a5)
ffffffc05020890e:	00002797          	auipc	a5,0x2
ffffffc050208912:	0ba78793          	addi	a5,a5,186 # ffffffc05020a9c8 <thread_idx>
ffffffc050208916:	4398                	lw	a4,0(a5)
ffffffc050208918:	87ba                	mv	a5,a4
ffffffc05020891a:	078a                	slli	a5,a5,0x2
ffffffc05020891c:	97ba                	add	a5,a5,a4
ffffffc05020891e:	079a                	slli	a5,a5,0x6
ffffffc050208920:	00046717          	auipc	a4,0x46
ffffffc050208924:	1b870713          	addi	a4,a4,440 # ffffffc05024ead8 <tcb>
ffffffc050208928:	97ba                	add	a5,a5,a4
ffffffc05020892a:	fcf43c23          	sd	a5,-40(s0)
ffffffc05020892e:	00049717          	auipc	a4,0x49
ffffffc050208932:	9ba70713          	addi	a4,a4,-1606 # ffffffc0502512e8 <next_running>
ffffffc050208936:	fe043783          	ld	a5,-32(s0)
ffffffc05020893a:	078e                	slli	a5,a5,0x3
ffffffc05020893c:	97ba                	add	a5,a5,a4
ffffffc05020893e:	6394                	ld	a3,0(a5)
ffffffc050208940:	00049717          	auipc	a4,0x49
ffffffc050208944:	9a870713          	addi	a4,a4,-1624 # ffffffc0502512e8 <next_running>
ffffffc050208948:	fe043783          	ld	a5,-32(s0)
ffffffc05020894c:	078e                	slli	a5,a5,0x3
ffffffc05020894e:	97ba                	add	a5,a5,a4
ffffffc050208950:	639c                	ld	a5,0(a5)
ffffffc050208952:	0f87a783          	lw	a5,248(a5)
ffffffc050208956:	00002717          	auipc	a4,0x2
ffffffc05020895a:	07270713          	addi	a4,a4,114 # ffffffc05020a9c8 <thread_idx>
ffffffc05020895e:	4318                	lw	a4,0(a4)
ffffffc050208960:	03c78793          	addi	a5,a5,60
ffffffc050208964:	078a                	slli	a5,a5,0x2
ffffffc050208966:	97b6                	add	a5,a5,a3
ffffffc050208968:	c7d8                	sw	a4,12(a5)
ffffffc05020896a:	00049717          	auipc	a4,0x49
ffffffc05020896e:	97e70713          	addi	a4,a4,-1666 # ffffffc0502512e8 <next_running>
ffffffc050208972:	fe043783          	ld	a5,-32(s0)
ffffffc050208976:	078e                	slli	a5,a5,0x3
ffffffc050208978:	97ba                	add	a5,a5,a4
ffffffc05020897a:	639c                	ld	a5,0(a5)
ffffffc05020897c:	0f87a703          	lw	a4,248(a5)
ffffffc050208980:	2705                	addiw	a4,a4,1
ffffffc050208982:	2701                	sext.w	a4,a4
ffffffc050208984:	0ee7ac23          	sw	a4,248(a5)
ffffffc050208988:	00049717          	auipc	a4,0x49
ffffffc05020898c:	96070713          	addi	a4,a4,-1696 # ffffffc0502512e8 <next_running>
ffffffc050208990:	fe043783          	ld	a5,-32(s0)
ffffffc050208994:	078e                	slli	a5,a5,0x3
ffffffc050208996:	97ba                	add	a5,a5,a4
ffffffc050208998:	639c                	ld	a5,0(a5)
ffffffc05020899a:	0f87a703          	lw	a4,248(a5)
ffffffc05020899e:	f9843783          	ld	a5,-104(s0)
ffffffc0502089a2:	c398                	sw	a4,0(a5)
ffffffc0502089a4:	fd843783          	ld	a5,-40(s0)
ffffffc0502089a8:	fe043703          	ld	a4,-32(s0)
ffffffc0502089ac:	10e7bc23          	sd	a4,280(a5)
ffffffc0502089b0:	00049717          	auipc	a4,0x49
ffffffc0502089b4:	93870713          	addi	a4,a4,-1736 # ffffffc0502512e8 <next_running>
ffffffc0502089b8:	fe043783          	ld	a5,-32(s0)
ffffffc0502089bc:	078e                	slli	a5,a5,0x3
ffffffc0502089be:	97ba                	add	a5,a5,a4
ffffffc0502089c0:	639c                	ld	a5,0(a5)
ffffffc0502089c2:	1207a703          	lw	a4,288(a5)
ffffffc0502089c6:	fd843783          	ld	a5,-40(s0)
ffffffc0502089ca:	12e7a023          	sw	a4,288(a5)
ffffffc0502089ce:	00049717          	auipc	a4,0x49
ffffffc0502089d2:	91a70713          	addi	a4,a4,-1766 # ffffffc0502512e8 <next_running>
ffffffc0502089d6:	fe043783          	ld	a5,-32(s0)
ffffffc0502089da:	078e                	slli	a5,a5,0x3
ffffffc0502089dc:	97ba                	add	a5,a5,a4
ffffffc0502089de:	639c                	ld	a5,0(a5)
ffffffc0502089e0:	0f07a703          	lw	a4,240(a5)
ffffffc0502089e4:	fd843783          	ld	a5,-40(s0)
ffffffc0502089e8:	0ee7a823          	sw	a4,240(a5)
ffffffc0502089ec:	f9843783          	ld	a5,-104(s0)
ffffffc0502089f0:	4398                	lw	a4,0(a5)
ffffffc0502089f2:	fd843783          	ld	a5,-40(s0)
ffffffc0502089f6:	0ee7aa23          	sw	a4,244(a5)
ffffffc0502089fa:	fd843783          	ld	a5,-40(s0)
ffffffc0502089fe:	4709                	li	a4,2
ffffffc050208a00:	10e7a823          	sw	a4,272(a5)
ffffffc050208a04:	00049717          	auipc	a4,0x49
ffffffc050208a08:	8e470713          	addi	a4,a4,-1820 # ffffffc0502512e8 <next_running>
ffffffc050208a0c:	fe043783          	ld	a5,-32(s0)
ffffffc050208a10:	078e                	slli	a5,a5,0x3
ffffffc050208a12:	97ba                	add	a5,a5,a4
ffffffc050208a14:	639c                	ld	a5,0(a5)
ffffffc050208a16:	77fc                	ld	a5,232(a5)
ffffffc050208a18:	853e                	mv	a0,a5
ffffffc050208a1a:	867fe0ef          	jal	ra,ffffffc050207280 <pa2kva>
ffffffc050208a1e:	872a                	mv	a4,a0
ffffffc050208a20:	fd843783          	ld	a5,-40(s0)
ffffffc050208a24:	f7f8                	sd	a4,232(a5)
ffffffc050208a26:	fd843783          	ld	a5,-40(s0)
ffffffc050208a2a:	02078793          	addi	a5,a5,32
ffffffc050208a2e:	853e                	mv	a0,a5
ffffffc050208a30:	234000ef          	jal	ra,ffffffc050208c64 <init_list_head>
ffffffc050208a34:	fd843783          	ld	a5,-40(s0)
ffffffc050208a38:	04078793          	addi	a5,a5,64
ffffffc050208a3c:	853e                	mv	a0,a5
ffffffc050208a3e:	226000ef          	jal	ra,ffffffc050208c64 <init_list_head>
ffffffc050208a42:	fd843783          	ld	a5,-40(s0)
ffffffc050208a46:	03078793          	addi	a5,a5,48
ffffffc050208a4a:	853e                	mv	a0,a5
ffffffc050208a4c:	218000ef          	jal	ra,ffffffc050208c64 <init_list_head>
ffffffc050208a50:	fd843783          	ld	a5,-40(s0)
ffffffc050208a54:	02078793          	addi	a5,a5,32
ffffffc050208a58:	00002597          	auipc	a1,0x2
ffffffc050208a5c:	ec858593          	addi	a1,a1,-312 # ffffffc05020a920 <ready_queue>
ffffffc050208a60:	853e                	mv	a0,a5
ffffffc050208a62:	30c000ef          	jal	ra,ffffffc050208d6e <list_add_tail>
ffffffc050208a66:	847fc0ef          	jal	ra,ffffffc0502052ac <allocPage>
ffffffc050208a6a:	872a                	mv	a4,a0
ffffffc050208a6c:	6785                	lui	a5,0x1
ffffffc050208a6e:	97ba                	add	a5,a5,a4
ffffffc050208a70:	fcf43823          	sd	a5,-48(s0)
ffffffc050208a74:	00002797          	auipc	a5,0x2
ffffffc050208a78:	f5478793          	addi	a5,a5,-172 # ffffffc05020a9c8 <thread_idx>
ffffffc050208a7c:	439c                	lw	a5,0(a5)
ffffffc050208a7e:	37fd                	addiw	a5,a5,-1
ffffffc050208a80:	2781                	sext.w	a5,a5
ffffffc050208a82:	00c7979b          	slliw	a5,a5,0xc
ffffffc050208a86:	2781                	sext.w	a5,a5
ffffffc050208a88:	873e                	mv	a4,a5
ffffffc050208a8a:	000f07b7          	lui	a5,0xf0
ffffffc050208a8e:	0785                	addi	a5,a5,1
ffffffc050208a90:	07c2                	slli	a5,a5,0x10
ffffffc050208a92:	97ba                	add	a5,a5,a4
ffffffc050208a94:	873e                	mv	a4,a5
ffffffc050208a96:	fd843783          	ld	a5,-40(s0)
ffffffc050208a9a:	77fc                	ld	a5,232(a5)
ffffffc050208a9c:	85be                	mv	a1,a5
ffffffc050208a9e:	853a                	mv	a0,a4
ffffffc050208aa0:	98ffc0ef          	jal	ra,ffffffc05020542e <alloc_page_helper>
ffffffc050208aa4:	872a                	mv	a4,a0
ffffffc050208aa6:	6785                	lui	a5,0x1
ffffffc050208aa8:	97ba                	add	a5,a5,a4
ffffffc050208aaa:	fcf43423          	sd	a5,-56(s0)
ffffffc050208aae:	f9043783          	ld	a5,-112(s0)
ffffffc050208ab2:	fcf43023          	sd	a5,-64(s0)
ffffffc050208ab6:	fd043783          	ld	a5,-48(s0)
ffffffc050208aba:	ee078793          	addi	a5,a5,-288 # ee0 <boot_stack_top_base-0x50201120>
ffffffc050208abe:	faf43c23          	sd	a5,-72(s0)
ffffffc050208ac2:	fe042623          	sw	zero,-20(s0)
ffffffc050208ac6:	a831                	j	ffffffc050208ae2 <pthread_create+0x20a>
ffffffc050208ac8:	fb843703          	ld	a4,-72(s0)
ffffffc050208acc:	fec42783          	lw	a5,-20(s0)
ffffffc050208ad0:	078e                	slli	a5,a5,0x3
ffffffc050208ad2:	97ba                	add	a5,a5,a4
ffffffc050208ad4:	0007b023          	sd	zero,0(a5)
ffffffc050208ad8:	fec42783          	lw	a5,-20(s0)
ffffffc050208adc:	2785                	addiw	a5,a5,1
ffffffc050208ade:	fef42623          	sw	a5,-20(s0)
ffffffc050208ae2:	fec42783          	lw	a5,-20(s0)
ffffffc050208ae6:	0007871b          	sext.w	a4,a5
ffffffc050208aea:	47fd                	li	a5,31
ffffffc050208aec:	fce7dee3          	bge	a5,a4,ffffffc050208ac8 <pthread_create+0x1f0>
ffffffc050208af0:	fb843783          	ld	a5,-72(s0)
ffffffc050208af4:	fc043703          	ld	a4,-64(s0)
ffffffc050208af8:	e798                	sd	a4,8(a5)
ffffffc050208afa:	00002797          	auipc	a5,0x2
ffffffc050208afe:	ece78793          	addi	a5,a5,-306 # ffffffc05020a9c8 <thread_idx>
ffffffc050208b02:	439c                	lw	a5,0(a5)
ffffffc050208b04:	00c7979b          	slliw	a5,a5,0xc
ffffffc050208b08:	2781                	sext.w	a5,a5
ffffffc050208b0a:	873e                	mv	a4,a5
ffffffc050208b0c:	000f07b7          	lui	a5,0xf0
ffffffc050208b10:	0785                	addi	a5,a5,1
ffffffc050208b12:	07c2                	slli	a5,a5,0x10
ffffffc050208b14:	97ba                	add	a5,a5,a4
ffffffc050208b16:	873e                	mv	a4,a5
ffffffc050208b18:	fb843783          	ld	a5,-72(s0)
ffffffc050208b1c:	eb98                	sd	a4,16(a5)
ffffffc050208b1e:	fd843703          	ld	a4,-40(s0)
ffffffc050208b22:	fb843783          	ld	a5,-72(s0)
ffffffc050208b26:	f398                	sd	a4,32(a5)
ffffffc050208b28:	f8843703          	ld	a4,-120(s0)
ffffffc050208b2c:	fb843783          	ld	a5,-72(s0)
ffffffc050208b30:	ebb8                	sd	a4,80(a5)
ffffffc050208b32:	fb843783          	ld	a5,-72(s0)
ffffffc050208b36:	fc043703          	ld	a4,-64(s0)
ffffffc050208b3a:	10e7b423          	sd	a4,264(a5) # f0108 <boot_stack_top_base-0x50111ef8>
ffffffc050208b3e:	fb843783          	ld	a5,-72(s0)
ffffffc050208b42:	4709                	li	a4,2
ffffffc050208b44:	10e7b023          	sd	a4,256(a5)
ffffffc050208b48:	fb843783          	ld	a5,-72(s0)
ffffffc050208b4c:	f9078793          	addi	a5,a5,-112
ffffffc050208b50:	faf43823          	sd	a5,-80(s0)
ffffffc050208b54:	ffff9717          	auipc	a4,0xffff9
ffffffc050208b58:	53870713          	addi	a4,a4,1336 # ffffffc05020208c <ret_from_exception>
ffffffc050208b5c:	fb043783          	ld	a5,-80(s0)
ffffffc050208b60:	e398                	sd	a4,0(a5)
ffffffc050208b62:	00002797          	auipc	a5,0x2
ffffffc050208b66:	e6678793          	addi	a5,a5,-410 # ffffffc05020a9c8 <thread_idx>
ffffffc050208b6a:	439c                	lw	a5,0(a5)
ffffffc050208b6c:	00c7979b          	slliw	a5,a5,0xc
ffffffc050208b70:	2781                	sext.w	a5,a5
ffffffc050208b72:	873e                	mv	a4,a5
ffffffc050208b74:	000f07b7          	lui	a5,0xf0
ffffffc050208b78:	0785                	addi	a5,a5,1
ffffffc050208b7a:	07c2                	slli	a5,a5,0x10
ffffffc050208b7c:	97ba                	add	a5,a5,a4
ffffffc050208b7e:	873e                	mv	a4,a5
ffffffc050208b80:	fb043783          	ld	a5,-80(s0)
ffffffc050208b84:	e798                	sd	a4,8(a5)
ffffffc050208b86:	fd043783          	ld	a5,-48(s0)
ffffffc050208b8a:	e7078713          	addi	a4,a5,-400 # efe70 <boot_stack_top_base-0x50112190>
ffffffc050208b8e:	fd843783          	ld	a5,-40(s0)
ffffffc050208b92:	e398                	sd	a4,0(a5)
ffffffc050208b94:	00002797          	auipc	a5,0x2
ffffffc050208b98:	e3478793          	addi	a5,a5,-460 # ffffffc05020a9c8 <thread_idx>
ffffffc050208b9c:	439c                	lw	a5,0(a5)
ffffffc050208b9e:	00c7979b          	slliw	a5,a5,0xc
ffffffc050208ba2:	2781                	sext.w	a5,a5
ffffffc050208ba4:	873e                	mv	a4,a5
ffffffc050208ba6:	000f07b7          	lui	a5,0xf0
ffffffc050208baa:	0785                	addi	a5,a5,1
ffffffc050208bac:	07c2                	slli	a5,a5,0x10
ffffffc050208bae:	97ba                	add	a5,a5,a4
ffffffc050208bb0:	873e                	mv	a4,a5
ffffffc050208bb2:	fd843783          	ld	a5,-40(s0)
ffffffc050208bb6:	e798                	sd	a4,8(a5)
ffffffc050208bb8:	fd843783          	ld	a5,-40(s0)
ffffffc050208bbc:	fc043703          	ld	a4,-64(s0)
ffffffc050208bc0:	efb8                	sd	a4,88(a5)
ffffffc050208bc2:	00048717          	auipc	a4,0x48
ffffffc050208bc6:	72670713          	addi	a4,a4,1830 # ffffffc0502512e8 <next_running>
ffffffc050208bca:	fe043783          	ld	a5,-32(s0)
ffffffc050208bce:	078e                	slli	a5,a5,0x3
ffffffc050208bd0:	97ba                	add	a5,a5,a4
ffffffc050208bd2:	639c                	ld	a5,0(a5)
ffffffc050208bd4:	77f8                	ld	a4,232(a5)
ffffffc050208bd6:	fd843783          	ld	a5,-40(s0)
ffffffc050208bda:	f7f8                	sd	a4,232(a5)
ffffffc050208bdc:	03000513          	li	a0,48
ffffffc050208be0:	ffcfc0ef          	jal	ra,ffffffc0502053dc <kmalloc>
ffffffc050208be4:	faa43423          	sd	a0,-88(s0)
ffffffc050208be8:	fc843703          	ld	a4,-56(s0)
ffffffc050208bec:	77fd                	lui	a5,0xfffff
ffffffc050208bee:	97ba                	add	a5,a5,a4
ffffffc050208bf0:	853e                	mv	a0,a5
ffffffc050208bf2:	e72fe0ef          	jal	ra,ffffffc050207264 <kva2pa>
ffffffc050208bf6:	872a                	mv	a4,a0
ffffffc050208bf8:	fa843783          	ld	a5,-88(s0)
ffffffc050208bfc:	e398                	sd	a4,0(a5)
ffffffc050208bfe:	00002797          	auipc	a5,0x2
ffffffc050208c02:	dca78793          	addi	a5,a5,-566 # ffffffc05020a9c8 <thread_idx>
ffffffc050208c06:	439c                	lw	a5,0(a5)
ffffffc050208c08:	37fd                	addiw	a5,a5,-1
ffffffc050208c0a:	2781                	sext.w	a5,a5
ffffffc050208c0c:	00c7979b          	slliw	a5,a5,0xc
ffffffc050208c10:	2781                	sext.w	a5,a5
ffffffc050208c12:	873e                	mv	a4,a5
ffffffc050208c14:	000f07b7          	lui	a5,0xf0
ffffffc050208c18:	0785                	addi	a5,a5,1
ffffffc050208c1a:	07c2                	slli	a5,a5,0x10
ffffffc050208c1c:	97ba                	add	a5,a5,a4
ffffffc050208c1e:	873e                	mv	a4,a5
ffffffc050208c20:	fa843783          	ld	a5,-88(s0)
ffffffc050208c24:	e798                	sd	a4,8(a5)
ffffffc050208c26:	fa843783          	ld	a5,-88(s0)
ffffffc050208c2a:	4705                	li	a4,1
ffffffc050208c2c:	d398                	sw	a4,32(a5)
ffffffc050208c2e:	fa843783          	ld	a5,-88(s0)
ffffffc050208c32:	07c1                	addi	a5,a5,16
ffffffc050208c34:	853e                	mv	a0,a5
ffffffc050208c36:	02e000ef          	jal	ra,ffffffc050208c64 <init_list_head>
ffffffc050208c3a:	fa843783          	ld	a5,-88(s0)
ffffffc050208c3e:	01078713          	addi	a4,a5,16 # f0010 <boot_stack_top_base-0x50111ff0>
ffffffc050208c42:	fd843783          	ld	a5,-40(s0)
ffffffc050208c46:	04078793          	addi	a5,a5,64
ffffffc050208c4a:	85be                	mv	a1,a5
ffffffc050208c4c:	853a                	mv	a0,a4
ffffffc050208c4e:	120000ef          	jal	ra,ffffffc050208d6e <list_add_tail>
ffffffc050208c52:	fd843783          	ld	a5,-40(s0)
ffffffc050208c56:	4705                	li	a4,1
ffffffc050208c58:	cbb8                	sw	a4,80(a5)
ffffffc050208c5a:	0001                	nop
ffffffc050208c5c:	70e6                	ld	ra,120(sp)
ffffffc050208c5e:	7446                	ld	s0,112(sp)
ffffffc050208c60:	6109                	addi	sp,sp,128
ffffffc050208c62:	8082                	ret

ffffffc050208c64 <init_list_head>:
ffffffc050208c64:	1101                	addi	sp,sp,-32
ffffffc050208c66:	ec22                	sd	s0,24(sp)
ffffffc050208c68:	1000                	addi	s0,sp,32
ffffffc050208c6a:	fea43423          	sd	a0,-24(s0)
ffffffc050208c6e:	fe843783          	ld	a5,-24(s0)
ffffffc050208c72:	fe843703          	ld	a4,-24(s0)
ffffffc050208c76:	e398                	sd	a4,0(a5)
ffffffc050208c78:	fe843783          	ld	a5,-24(s0)
ffffffc050208c7c:	fe843703          	ld	a4,-24(s0)
ffffffc050208c80:	e798                	sd	a4,8(a5)
ffffffc050208c82:	0001                	nop
ffffffc050208c84:	6462                	ld	s0,24(sp)
ffffffc050208c86:	6105                	addi	sp,sp,32
ffffffc050208c88:	8082                	ret

ffffffc050208c8a <_list_add>:
ffffffc050208c8a:	7179                	addi	sp,sp,-48
ffffffc050208c8c:	f422                	sd	s0,40(sp)
ffffffc050208c8e:	1800                	addi	s0,sp,48
ffffffc050208c90:	fea43423          	sd	a0,-24(s0)
ffffffc050208c94:	feb43023          	sd	a1,-32(s0)
ffffffc050208c98:	fcc43c23          	sd	a2,-40(s0)
ffffffc050208c9c:	fd843783          	ld	a5,-40(s0)
ffffffc050208ca0:	fe843703          	ld	a4,-24(s0)
ffffffc050208ca4:	e798                	sd	a4,8(a5)
ffffffc050208ca6:	fe843783          	ld	a5,-24(s0)
ffffffc050208caa:	fd843703          	ld	a4,-40(s0)
ffffffc050208cae:	e398                	sd	a4,0(a5)
ffffffc050208cb0:	fe843783          	ld	a5,-24(s0)
ffffffc050208cb4:	fe043703          	ld	a4,-32(s0)
ffffffc050208cb8:	e798                	sd	a4,8(a5)
ffffffc050208cba:	fe043783          	ld	a5,-32(s0)
ffffffc050208cbe:	fe843703          	ld	a4,-24(s0)
ffffffc050208cc2:	e398                	sd	a4,0(a5)
ffffffc050208cc4:	0001                	nop
ffffffc050208cc6:	7422                	ld	s0,40(sp)
ffffffc050208cc8:	6145                	addi	sp,sp,48
ffffffc050208cca:	8082                	ret

ffffffc050208ccc <_list_del>:
ffffffc050208ccc:	1101                	addi	sp,sp,-32
ffffffc050208cce:	ec22                	sd	s0,24(sp)
ffffffc050208cd0:	1000                	addi	s0,sp,32
ffffffc050208cd2:	fea43423          	sd	a0,-24(s0)
ffffffc050208cd6:	feb43023          	sd	a1,-32(s0)
ffffffc050208cda:	fe043783          	ld	a5,-32(s0)
ffffffc050208cde:	fe843703          	ld	a4,-24(s0)
ffffffc050208ce2:	e798                	sd	a4,8(a5)
ffffffc050208ce4:	fe843783          	ld	a5,-24(s0)
ffffffc050208ce8:	fe043703          	ld	a4,-32(s0)
ffffffc050208cec:	e398                	sd	a4,0(a5)
ffffffc050208cee:	0001                	nop
ffffffc050208cf0:	6462                	ld	s0,24(sp)
ffffffc050208cf2:	6105                	addi	sp,sp,32
ffffffc050208cf4:	8082                	ret

ffffffc050208cf6 <list_del>:
ffffffc050208cf6:	1101                	addi	sp,sp,-32
ffffffc050208cf8:	ec06                	sd	ra,24(sp)
ffffffc050208cfa:	e822                	sd	s0,16(sp)
ffffffc050208cfc:	1000                	addi	s0,sp,32
ffffffc050208cfe:	fea43423          	sd	a0,-24(s0)
ffffffc050208d02:	fe843783          	ld	a5,-24(s0)
ffffffc050208d06:	679c                	ld	a5,8(a5)
ffffffc050208d08:	c79d                	beqz	a5,ffffffc050208d36 <list_del+0x40>
ffffffc050208d0a:	fe843783          	ld	a5,-24(s0)
ffffffc050208d0e:	639c                	ld	a5,0(a5)
ffffffc050208d10:	c39d                	beqz	a5,ffffffc050208d36 <list_del+0x40>
ffffffc050208d12:	fe843783          	ld	a5,-24(s0)
ffffffc050208d16:	6798                	ld	a4,8(a5)
ffffffc050208d18:	fe843783          	ld	a5,-24(s0)
ffffffc050208d1c:	639c                	ld	a5,0(a5)
ffffffc050208d1e:	85be                	mv	a1,a5
ffffffc050208d20:	853a                	mv	a0,a4
ffffffc050208d22:	fabff0ef          	jal	ra,ffffffc050208ccc <_list_del>
ffffffc050208d26:	fe843783          	ld	a5,-24(s0)
ffffffc050208d2a:	0007b423          	sd	zero,8(a5)
ffffffc050208d2e:	fe843783          	ld	a5,-24(s0)
ffffffc050208d32:	0007b023          	sd	zero,0(a5)
ffffffc050208d36:	0001                	nop
ffffffc050208d38:	60e2                	ld	ra,24(sp)
ffffffc050208d3a:	6442                	ld	s0,16(sp)
ffffffc050208d3c:	6105                	addi	sp,sp,32
ffffffc050208d3e:	8082                	ret

ffffffc050208d40 <list_add>:
ffffffc050208d40:	1101                	addi	sp,sp,-32
ffffffc050208d42:	ec06                	sd	ra,24(sp)
ffffffc050208d44:	e822                	sd	s0,16(sp)
ffffffc050208d46:	1000                	addi	s0,sp,32
ffffffc050208d48:	fea43423          	sd	a0,-24(s0)
ffffffc050208d4c:	feb43023          	sd	a1,-32(s0)
ffffffc050208d50:	fe043783          	ld	a5,-32(s0)
ffffffc050208d54:	639c                	ld	a5,0(a5)
ffffffc050208d56:	863e                	mv	a2,a5
ffffffc050208d58:	fe043583          	ld	a1,-32(s0)
ffffffc050208d5c:	fe843503          	ld	a0,-24(s0)
ffffffc050208d60:	f2bff0ef          	jal	ra,ffffffc050208c8a <_list_add>
ffffffc050208d64:	0001                	nop
ffffffc050208d66:	60e2                	ld	ra,24(sp)
ffffffc050208d68:	6442                	ld	s0,16(sp)
ffffffc050208d6a:	6105                	addi	sp,sp,32
ffffffc050208d6c:	8082                	ret

ffffffc050208d6e <list_add_tail>:
ffffffc050208d6e:	1101                	addi	sp,sp,-32
ffffffc050208d70:	ec06                	sd	ra,24(sp)
ffffffc050208d72:	e822                	sd	s0,16(sp)
ffffffc050208d74:	1000                	addi	s0,sp,32
ffffffc050208d76:	fea43423          	sd	a0,-24(s0)
ffffffc050208d7a:	feb43023          	sd	a1,-32(s0)
ffffffc050208d7e:	fe043783          	ld	a5,-32(s0)
ffffffc050208d82:	679c                	ld	a5,8(a5)
ffffffc050208d84:	fe043603          	ld	a2,-32(s0)
ffffffc050208d88:	85be                	mv	a1,a5
ffffffc050208d8a:	fe843503          	ld	a0,-24(s0)
ffffffc050208d8e:	efdff0ef          	jal	ra,ffffffc050208c8a <_list_add>
ffffffc050208d92:	0001                	nop
ffffffc050208d94:	60e2                	ld	ra,24(sp)
ffffffc050208d96:	6442                	ld	s0,16(sp)
ffffffc050208d98:	6105                	addi	sp,sp,32
ffffffc050208d9a:	8082                	ret

ffffffc050208d9c <list_empty>:
ffffffc050208d9c:	1101                	addi	sp,sp,-32
ffffffc050208d9e:	ec22                	sd	s0,24(sp)
ffffffc050208da0:	1000                	addi	s0,sp,32
ffffffc050208da2:	fea43423          	sd	a0,-24(s0)
ffffffc050208da6:	fe843783          	ld	a5,-24(s0)
ffffffc050208daa:	639c                	ld	a5,0(a5)
ffffffc050208dac:	fe843703          	ld	a4,-24(s0)
ffffffc050208db0:	40f707b3          	sub	a5,a4,a5
ffffffc050208db4:	0017b793          	seqz	a5,a5
ffffffc050208db8:	0ff7f793          	andi	a5,a5,255
ffffffc050208dbc:	2781                	sext.w	a5,a5
ffffffc050208dbe:	853e                	mv	a0,a5
ffffffc050208dc0:	6462                	ld	s0,24(sp)
ffffffc050208dc2:	6105                	addi	sp,sp,32
ffffffc050208dc4:	8082                	ret

ffffffc050208dc6 <free_node>:
ffffffc050208dc6:	1101                	addi	sp,sp,-32
ffffffc050208dc8:	ec22                	sd	s0,24(sp)
ffffffc050208dca:	1000                	addi	s0,sp,32
ffffffc050208dcc:	fea43423          	sd	a0,-24(s0)
ffffffc050208dd0:	fe843783          	ld	a5,-24(s0)
ffffffc050208dd4:	639c                	ld	a5,0(a5)
ffffffc050208dd6:	fe843703          	ld	a4,-24(s0)
ffffffc050208dda:	6718                	ld	a4,8(a4)
ffffffc050208ddc:	e798                	sd	a4,8(a5)
ffffffc050208dde:	fe843783          	ld	a5,-24(s0)
ffffffc050208de2:	679c                	ld	a5,8(a5)
ffffffc050208de4:	fe843703          	ld	a4,-24(s0)
ffffffc050208de8:	6318                	ld	a4,0(a4)
ffffffc050208dea:	e398                	sd	a4,0(a5)
ffffffc050208dec:	fe843783          	ld	a5,-24(s0)
ffffffc050208df0:	0007b023          	sd	zero,0(a5)
ffffffc050208df4:	fe843783          	ld	a5,-24(s0)
ffffffc050208df8:	0007b423          	sd	zero,8(a5)
ffffffc050208dfc:	0001                	nop
ffffffc050208dfe:	6462                	ld	s0,24(sp)
ffffffc050208e00:	6105                	addi	sp,sp,32
ffffffc050208e02:	8082                	ret

ffffffc050208e04 <handle_syscall>:
ffffffc050208e04:	7179                	addi	sp,sp,-48
ffffffc050208e06:	f406                	sd	ra,40(sp)
ffffffc050208e08:	f022                	sd	s0,32(sp)
ffffffc050208e0a:	1800                	addi	s0,sp,48
ffffffc050208e0c:	fea43423          	sd	a0,-24(s0)
ffffffc050208e10:	feb43023          	sd	a1,-32(s0)
ffffffc050208e14:	fcc43c23          	sd	a2,-40(s0)
ffffffc050208e18:	fe843783          	ld	a5,-24(s0)
ffffffc050208e1c:	1087b783          	ld	a5,264(a5)
ffffffc050208e20:	00478713          	addi	a4,a5,4
ffffffc050208e24:	fe843783          	ld	a5,-24(s0)
ffffffc050208e28:	10e7b423          	sd	a4,264(a5)
ffffffc050208e2c:	fe843783          	ld	a5,-24(s0)
ffffffc050208e30:	67dc                	ld	a5,136(a5)
ffffffc050208e32:	0004b717          	auipc	a4,0x4b
ffffffc050208e36:	cc670713          	addi	a4,a4,-826 # ffffffc050253af8 <syscall>
ffffffc050208e3a:	078e                	slli	a5,a5,0x3
ffffffc050208e3c:	97ba                	add	a5,a5,a4
ffffffc050208e3e:	0007b803          	ld	a6,0(a5)
ffffffc050208e42:	fe843783          	ld	a5,-24(s0)
ffffffc050208e46:	6bb8                	ld	a4,80(a5)
ffffffc050208e48:	fe843783          	ld	a5,-24(s0)
ffffffc050208e4c:	6fac                	ld	a1,88(a5)
ffffffc050208e4e:	fe843783          	ld	a5,-24(s0)
ffffffc050208e52:	73b0                	ld	a2,96(a5)
ffffffc050208e54:	fe843783          	ld	a5,-24(s0)
ffffffc050208e58:	77bc                	ld	a5,104(a5)
ffffffc050208e5a:	86be                	mv	a3,a5
ffffffc050208e5c:	853a                	mv	a0,a4
ffffffc050208e5e:	9802                	jalr	a6
ffffffc050208e60:	87aa                	mv	a5,a0
ffffffc050208e62:	873e                	mv	a4,a5
ffffffc050208e64:	fe843783          	ld	a5,-24(s0)
ffffffc050208e68:	ebb8                	sd	a4,80(a5)
ffffffc050208e6a:	0001                	nop
ffffffc050208e6c:	70a2                	ld	ra,40(sp)
ffffffc050208e6e:	7402                	ld	s0,32(sp)
ffffffc050208e70:	6145                	addi	sp,sp,48
ffffffc050208e72:	8082                	ret

ffffffc050208e74 <readl>:
ffffffc050208e74:	7179                	addi	sp,sp,-48
ffffffc050208e76:	f422                	sd	s0,40(sp)
ffffffc050208e78:	1800                	addi	s0,sp,48
ffffffc050208e7a:	fca43c23          	sd	a0,-40(s0)
ffffffc050208e7e:	fd843783          	ld	a5,-40(s0)
ffffffc050208e82:	439c                	lw	a5,0(a5)
ffffffc050208e84:	fef42623          	sw	a5,-20(s0)
ffffffc050208e88:	0aa0000f          	fence	ir,ir
ffffffc050208e8c:	fec42783          	lw	a5,-20(s0)
ffffffc050208e90:	853e                	mv	a0,a5
ffffffc050208e92:	7422                	ld	s0,40(sp)
ffffffc050208e94:	6145                	addi	sp,sp,48
ffffffc050208e96:	8082                	ret

ffffffc050208e98 <e1000_read_reg>:
ffffffc050208e98:	1101                	addi	sp,sp,-32
ffffffc050208e9a:	ec06                	sd	ra,24(sp)
ffffffc050208e9c:	e822                	sd	s0,16(sp)
ffffffc050208e9e:	1000                	addi	s0,sp,32
ffffffc050208ea0:	fea43423          	sd	a0,-24(s0)
ffffffc050208ea4:	87ae                	mv	a5,a1
ffffffc050208ea6:	fef42223          	sw	a5,-28(s0)
ffffffc050208eaa:	fe446783          	lwu	a5,-28(s0)
ffffffc050208eae:	fe843703          	ld	a4,-24(s0)
ffffffc050208eb2:	97ba                	add	a5,a5,a4
ffffffc050208eb4:	853e                	mv	a0,a5
ffffffc050208eb6:	fbfff0ef          	jal	ra,ffffffc050208e74 <readl>
ffffffc050208eba:	87aa                	mv	a5,a0
ffffffc050208ebc:	2781                	sext.w	a5,a5
ffffffc050208ebe:	853e                	mv	a0,a5
ffffffc050208ec0:	60e2                	ld	ra,24(sp)
ffffffc050208ec2:	6442                	ld	s0,16(sp)
ffffffc050208ec4:	6105                	addi	sp,sp,32
ffffffc050208ec6:	8082                	ret

ffffffc050208ec8 <do_net_send>:
ffffffc050208ec8:	7179                	addi	sp,sp,-48
ffffffc050208eca:	f406                	sd	ra,40(sp)
ffffffc050208ecc:	f022                	sd	s0,32(sp)
ffffffc050208ece:	1800                	addi	s0,sp,48
ffffffc050208ed0:	fca43c23          	sd	a0,-40(s0)
ffffffc050208ed4:	87ae                	mv	a5,a1
ffffffc050208ed6:	fcf42a23          	sw	a5,-44(s0)
ffffffc050208eda:	ad2f90ef          	jal	ra,ffffffc0502021ac <get_current_cpu_id>
ffffffc050208ede:	87aa                	mv	a5,a0
ffffffc050208ee0:	fef42623          	sw	a5,-20(s0)
ffffffc050208ee4:	a8b1                	j	ffffffc050208f40 <do_net_send+0x78>
ffffffc050208ee6:	00048717          	auipc	a4,0x48
ffffffc050208eea:	40270713          	addi	a4,a4,1026 # ffffffc0502512e8 <next_running>
ffffffc050208eee:	fec42783          	lw	a5,-20(s0)
ffffffc050208ef2:	078e                	slli	a5,a5,0x3
ffffffc050208ef4:	97ba                	add	a5,a5,a4
ffffffc050208ef6:	639c                	ld	a5,0(a5)
ffffffc050208ef8:	1007a823          	sw	zero,272(a5)
ffffffc050208efc:	00048717          	auipc	a4,0x48
ffffffc050208f00:	3ec70713          	addi	a4,a4,1004 # ffffffc0502512e8 <next_running>
ffffffc050208f04:	fec42783          	lw	a5,-20(s0)
ffffffc050208f08:	078e                	slli	a5,a5,0x3
ffffffc050208f0a:	97ba                	add	a5,a5,a4
ffffffc050208f0c:	639c                	ld	a5,0(a5)
ffffffc050208f0e:	02078793          	addi	a5,a5,32
ffffffc050208f12:	853e                	mv	a0,a5
ffffffc050208f14:	de3ff0ef          	jal	ra,ffffffc050208cf6 <list_del>
ffffffc050208f18:	00048717          	auipc	a4,0x48
ffffffc050208f1c:	3d070713          	addi	a4,a4,976 # ffffffc0502512e8 <next_running>
ffffffc050208f20:	fec42783          	lw	a5,-20(s0)
ffffffc050208f24:	078e                	slli	a5,a5,0x3
ffffffc050208f26:	97ba                	add	a5,a5,a4
ffffffc050208f28:	639c                	ld	a5,0(a5)
ffffffc050208f2a:	02078793          	addi	a5,a5,32
ffffffc050208f2e:	00002597          	auipc	a1,0x2
ffffffc050208f32:	a1258593          	addi	a1,a1,-1518 # ffffffc05020a940 <send_block_queue>
ffffffc050208f36:	853e                	mv	a0,a5
ffffffc050208f38:	e37ff0ef          	jal	ra,ffffffc050208d6e <list_add_tail>
ffffffc050208f3c:	b60fe0ef          	jal	ra,ffffffc05020729c <do_scheduler>
ffffffc050208f40:	fd442783          	lw	a5,-44(s0)
ffffffc050208f44:	85be                	mv	a1,a5
ffffffc050208f46:	fd843503          	ld	a0,-40(s0)
ffffffc050208f4a:	fb7fa0ef          	jal	ra,ffffffc050203f00 <e1000_transmit>
ffffffc050208f4e:	87aa                	mv	a5,a0
ffffffc050208f50:	dbd9                	beqz	a5,ffffffc050208ee6 <do_net_send+0x1e>
ffffffc050208f52:	fd442783          	lw	a5,-44(s0)
ffffffc050208f56:	853e                	mv	a0,a5
ffffffc050208f58:	70a2                	ld	ra,40(sp)
ffffffc050208f5a:	7402                	ld	s0,32(sp)
ffffffc050208f5c:	6145                	addi	sp,sp,48
ffffffc050208f5e:	8082                	ret

ffffffc050208f60 <do_net_recv>:
ffffffc050208f60:	7139                	addi	sp,sp,-64
ffffffc050208f62:	fc06                	sd	ra,56(sp)
ffffffc050208f64:	f822                	sd	s0,48(sp)
ffffffc050208f66:	0080                	addi	s0,sp,64
ffffffc050208f68:	fca43c23          	sd	a0,-40(s0)
ffffffc050208f6c:	87ae                	mv	a5,a1
ffffffc050208f6e:	fcc43423          	sd	a2,-56(s0)
ffffffc050208f72:	fcf42a23          	sw	a5,-44(s0)
ffffffc050208f76:	a36f90ef          	jal	ra,ffffffc0502021ac <get_current_cpu_id>
ffffffc050208f7a:	87aa                	mv	a5,a0
ffffffc050208f7c:	fef42223          	sw	a5,-28(s0)
ffffffc050208f80:	fe042623          	sw	zero,-20(s0)
ffffffc050208f84:	fe042023          	sw	zero,-32(s0)
ffffffc050208f88:	fe042423          	sw	zero,-24(s0)
ffffffc050208f8c:	a055                	j	ffffffc050209030 <do_net_recv+0xd0>
ffffffc050208f8e:	00048717          	auipc	a4,0x48
ffffffc050208f92:	35a70713          	addi	a4,a4,858 # ffffffc0502512e8 <next_running>
ffffffc050208f96:	fe442783          	lw	a5,-28(s0)
ffffffc050208f9a:	078e                	slli	a5,a5,0x3
ffffffc050208f9c:	97ba                	add	a5,a5,a4
ffffffc050208f9e:	639c                	ld	a5,0(a5)
ffffffc050208fa0:	1007a823          	sw	zero,272(a5)
ffffffc050208fa4:	00048717          	auipc	a4,0x48
ffffffc050208fa8:	34470713          	addi	a4,a4,836 # ffffffc0502512e8 <next_running>
ffffffc050208fac:	fe442783          	lw	a5,-28(s0)
ffffffc050208fb0:	078e                	slli	a5,a5,0x3
ffffffc050208fb2:	97ba                	add	a5,a5,a4
ffffffc050208fb4:	639c                	ld	a5,0(a5)
ffffffc050208fb6:	02078793          	addi	a5,a5,32
ffffffc050208fba:	853e                	mv	a0,a5
ffffffc050208fbc:	d3bff0ef          	jal	ra,ffffffc050208cf6 <list_del>
ffffffc050208fc0:	00048717          	auipc	a4,0x48
ffffffc050208fc4:	32870713          	addi	a4,a4,808 # ffffffc0502512e8 <next_running>
ffffffc050208fc8:	fe442783          	lw	a5,-28(s0)
ffffffc050208fcc:	078e                	slli	a5,a5,0x3
ffffffc050208fce:	97ba                	add	a5,a5,a4
ffffffc050208fd0:	639c                	ld	a5,0(a5)
ffffffc050208fd2:	02078793          	addi	a5,a5,32
ffffffc050208fd6:	00002597          	auipc	a1,0x2
ffffffc050208fda:	97a58593          	addi	a1,a1,-1670 # ffffffc05020a950 <recv_block_queue>
ffffffc050208fde:	853e                	mv	a0,a5
ffffffc050208fe0:	d8fff0ef          	jal	ra,ffffffc050208d6e <list_add_tail>
ffffffc050208fe4:	ab8fe0ef          	jal	ra,ffffffc05020729c <do_scheduler>
ffffffc050208fe8:	fec42703          	lw	a4,-20(s0)
ffffffc050208fec:	fd843783          	ld	a5,-40(s0)
ffffffc050208ff0:	97ba                	add	a5,a5,a4
ffffffc050208ff2:	853e                	mv	a0,a5
ffffffc050208ff4:	8f6fb0ef          	jal	ra,ffffffc0502040ea <e1000_poll>
ffffffc050208ff8:	87aa                	mv	a5,a0
ffffffc050208ffa:	fef42023          	sw	a5,-32(s0)
ffffffc050208ffe:	fe042783          	lw	a5,-32(s0)
ffffffc050209002:	2781                	sext.w	a5,a5
ffffffc050209004:	d7c9                	beqz	a5,ffffffc050208f8e <do_net_recv+0x2e>
ffffffc050209006:	fec42703          	lw	a4,-20(s0)
ffffffc05020900a:	fe042783          	lw	a5,-32(s0)
ffffffc05020900e:	9fb9                	addw	a5,a5,a4
ffffffc050209010:	fef42623          	sw	a5,-20(s0)
ffffffc050209014:	fe842783          	lw	a5,-24(s0)
ffffffc050209018:	078a                	slli	a5,a5,0x2
ffffffc05020901a:	fc843703          	ld	a4,-56(s0)
ffffffc05020901e:	97ba                	add	a5,a5,a4
ffffffc050209020:	fe042703          	lw	a4,-32(s0)
ffffffc050209024:	c398                	sw	a4,0(a5)
ffffffc050209026:	fe842783          	lw	a5,-24(s0)
ffffffc05020902a:	2785                	addiw	a5,a5,1
ffffffc05020902c:	fef42423          	sw	a5,-24(s0)
ffffffc050209030:	fe842703          	lw	a4,-24(s0)
ffffffc050209034:	fd442783          	lw	a5,-44(s0)
ffffffc050209038:	2701                	sext.w	a4,a4
ffffffc05020903a:	2781                	sext.w	a5,a5
ffffffc05020903c:	faf746e3          	blt	a4,a5,ffffffc050208fe8 <do_net_recv+0x88>
ffffffc050209040:	fec42783          	lw	a5,-20(s0)
ffffffc050209044:	853e                	mv	a0,a5
ffffffc050209046:	70e2                	ld	ra,56(sp)
ffffffc050209048:	7442                	ld	s0,48(sp)
ffffffc05020904a:	6121                	addi	sp,sp,64
ffffffc05020904c:	8082                	ret

ffffffc05020904e <net_handle_irq>:
ffffffc05020904e:	1141                	addi	sp,sp,-16
ffffffc050209050:	e422                	sd	s0,8(sp)
ffffffc050209052:	0800                	addi	s0,sp,16
ffffffc050209054:	0001                	nop
ffffffc050209056:	6422                	ld	s0,8(sp)
ffffffc050209058:	0141                	addi	sp,sp,16
ffffffc05020905a:	8082                	ret

ffffffc05020905c <check_net_send>:
ffffffc05020905c:	7139                	addi	sp,sp,-64
ffffffc05020905e:	fc06                	sd	ra,56(sp)
ffffffc050209060:	f822                	sd	s0,48(sp)
ffffffc050209062:	0080                	addi	s0,sp,64
ffffffc050209064:	00002797          	auipc	a5,0x2
ffffffc050209068:	8dc78793          	addi	a5,a5,-1828 # ffffffc05020a940 <send_block_queue>
ffffffc05020906c:	639c                	ld	a5,0(a5)
ffffffc05020906e:	fef43423          	sd	a5,-24(s0)
ffffffc050209072:	a079                	j	ffffffc050209100 <check_net_send+0xa4>
ffffffc050209074:	00044797          	auipc	a5,0x44
ffffffc050209078:	5ac78793          	addi	a5,a5,1452 # ffffffc05024d620 <e1000>
ffffffc05020907c:	6398                	ld	a4,0(a5)
ffffffc05020907e:	6791                	lui	a5,0x4
ffffffc050209080:	81878593          	addi	a1,a5,-2024 # 3818 <boot_stack_top_base-0x501fe7e8>
ffffffc050209084:	853a                	mv	a0,a4
ffffffc050209086:	e13ff0ef          	jal	ra,ffffffc050208e98 <e1000_read_reg>
ffffffc05020908a:	87aa                	mv	a5,a0
ffffffc05020908c:	fef42223          	sw	a5,-28(s0)
ffffffc050209090:	fe446783          	lwu	a5,-28(s0)
ffffffc050209094:	00479713          	slli	a4,a5,0x4
ffffffc050209098:	00044797          	auipc	a5,0x44
ffffffc05020909c:	d8878793          	addi	a5,a5,-632 # ffffffc05024ce20 <tx_desc_array>
ffffffc0502090a0:	97ba                	add	a5,a5,a4
ffffffc0502090a2:	fcf43c23          	sd	a5,-40(s0)
ffffffc0502090a6:	fe843783          	ld	a5,-24(s0)
ffffffc0502090aa:	639c                	ld	a5,0(a5)
ffffffc0502090ac:	fcf43823          	sd	a5,-48(s0)
ffffffc0502090b0:	fe843783          	ld	a5,-24(s0)
ffffffc0502090b4:	1781                	addi	a5,a5,-32
ffffffc0502090b6:	fcf43423          	sd	a5,-56(s0)
ffffffc0502090ba:	fd843783          	ld	a5,-40(s0)
ffffffc0502090be:	00c7c783          	lbu	a5,12(a5)
ffffffc0502090c2:	2781                	sext.w	a5,a5
ffffffc0502090c4:	8b85                	andi	a5,a5,1
ffffffc0502090c6:	2781                	sext.w	a5,a5
ffffffc0502090c8:	cb85                	beqz	a5,ffffffc0502090f8 <check_net_send+0x9c>
ffffffc0502090ca:	fc843783          	ld	a5,-56(s0)
ffffffc0502090ce:	4709                	li	a4,2
ffffffc0502090d0:	10e7a823          	sw	a4,272(a5)
ffffffc0502090d4:	fc843783          	ld	a5,-56(s0)
ffffffc0502090d8:	02078793          	addi	a5,a5,32
ffffffc0502090dc:	853e                	mv	a0,a5
ffffffc0502090de:	c19ff0ef          	jal	ra,ffffffc050208cf6 <list_del>
ffffffc0502090e2:	fc843783          	ld	a5,-56(s0)
ffffffc0502090e6:	02078793          	addi	a5,a5,32
ffffffc0502090ea:	00002597          	auipc	a1,0x2
ffffffc0502090ee:	83658593          	addi	a1,a1,-1994 # ffffffc05020a920 <ready_queue>
ffffffc0502090f2:	853e                	mv	a0,a5
ffffffc0502090f4:	c7bff0ef          	jal	ra,ffffffc050208d6e <list_add_tail>
ffffffc0502090f8:	fd043783          	ld	a5,-48(s0)
ffffffc0502090fc:	fef43423          	sd	a5,-24(s0)
ffffffc050209100:	00002517          	auipc	a0,0x2
ffffffc050209104:	84050513          	addi	a0,a0,-1984 # ffffffc05020a940 <send_block_queue>
ffffffc050209108:	c95ff0ef          	jal	ra,ffffffc050208d9c <list_empty>
ffffffc05020910c:	87aa                	mv	a5,a0
ffffffc05020910e:	eb89                	bnez	a5,ffffffc050209120 <check_net_send+0xc4>
ffffffc050209110:	fe843703          	ld	a4,-24(s0)
ffffffc050209114:	00002797          	auipc	a5,0x2
ffffffc050209118:	82c78793          	addi	a5,a5,-2004 # ffffffc05020a940 <send_block_queue>
ffffffc05020911c:	f4f71ce3          	bne	a4,a5,ffffffc050209074 <check_net_send+0x18>
ffffffc050209120:	0001                	nop
ffffffc050209122:	853e                	mv	a0,a5
ffffffc050209124:	70e2                	ld	ra,56(sp)
ffffffc050209126:	7442                	ld	s0,48(sp)
ffffffc050209128:	6121                	addi	sp,sp,64
ffffffc05020912a:	8082                	ret

ffffffc05020912c <check_net_recv>:
ffffffc05020912c:	7139                	addi	sp,sp,-64
ffffffc05020912e:	fc06                	sd	ra,56(sp)
ffffffc050209130:	f822                	sd	s0,48(sp)
ffffffc050209132:	0080                	addi	s0,sp,64
ffffffc050209134:	00002797          	auipc	a5,0x2
ffffffc050209138:	81c78793          	addi	a5,a5,-2020 # ffffffc05020a950 <recv_block_queue>
ffffffc05020913c:	639c                	ld	a5,0(a5)
ffffffc05020913e:	fef43423          	sd	a5,-24(s0)
ffffffc050209142:	a861                	j	ffffffc0502091da <check_net_recv+0xae>
ffffffc050209144:	00044797          	auipc	a5,0x44
ffffffc050209148:	4dc78793          	addi	a5,a5,1244 # ffffffc05024d620 <e1000>
ffffffc05020914c:	6398                	ld	a4,0(a5)
ffffffc05020914e:	678d                	lui	a5,0x3
ffffffc050209150:	81878593          	addi	a1,a5,-2024 # 2818 <boot_stack_top_base-0x501ff7e8>
ffffffc050209154:	853a                	mv	a0,a4
ffffffc050209156:	d43ff0ef          	jal	ra,ffffffc050208e98 <e1000_read_reg>
ffffffc05020915a:	87aa                	mv	a5,a0
ffffffc05020915c:	2781                	sext.w	a5,a5
ffffffc05020915e:	2785                	addiw	a5,a5,1
ffffffc050209160:	2781                	sext.w	a5,a5
ffffffc050209162:	03f7f793          	andi	a5,a5,63
ffffffc050209166:	fef42223          	sw	a5,-28(s0)
ffffffc05020916a:	fe446783          	lwu	a5,-28(s0)
ffffffc05020916e:	00479713          	slli	a4,a5,0x4
ffffffc050209172:	00044797          	auipc	a5,0x44
ffffffc050209176:	0ae78793          	addi	a5,a5,174 # ffffffc05024d220 <rx_desc_array>
ffffffc05020917a:	97ba                	add	a5,a5,a4
ffffffc05020917c:	fcf43c23          	sd	a5,-40(s0)
ffffffc050209180:	fe843783          	ld	a5,-24(s0)
ffffffc050209184:	639c                	ld	a5,0(a5)
ffffffc050209186:	fcf43823          	sd	a5,-48(s0)
ffffffc05020918a:	fe843783          	ld	a5,-24(s0)
ffffffc05020918e:	1781                	addi	a5,a5,-32
ffffffc050209190:	fcf43423          	sd	a5,-56(s0)
ffffffc050209194:	fd843783          	ld	a5,-40(s0)
ffffffc050209198:	00c7c783          	lbu	a5,12(a5)
ffffffc05020919c:	2781                	sext.w	a5,a5
ffffffc05020919e:	8b85                	andi	a5,a5,1
ffffffc0502091a0:	2781                	sext.w	a5,a5
ffffffc0502091a2:	cb85                	beqz	a5,ffffffc0502091d2 <check_net_recv+0xa6>
ffffffc0502091a4:	fc843783          	ld	a5,-56(s0)
ffffffc0502091a8:	4709                	li	a4,2
ffffffc0502091aa:	10e7a823          	sw	a4,272(a5)
ffffffc0502091ae:	fc843783          	ld	a5,-56(s0)
ffffffc0502091b2:	02078793          	addi	a5,a5,32
ffffffc0502091b6:	853e                	mv	a0,a5
ffffffc0502091b8:	b3fff0ef          	jal	ra,ffffffc050208cf6 <list_del>
ffffffc0502091bc:	fc843783          	ld	a5,-56(s0)
ffffffc0502091c0:	02078793          	addi	a5,a5,32
ffffffc0502091c4:	00001597          	auipc	a1,0x1
ffffffc0502091c8:	75c58593          	addi	a1,a1,1884 # ffffffc05020a920 <ready_queue>
ffffffc0502091cc:	853e                	mv	a0,a5
ffffffc0502091ce:	ba1ff0ef          	jal	ra,ffffffc050208d6e <list_add_tail>
ffffffc0502091d2:	fd043783          	ld	a5,-48(s0)
ffffffc0502091d6:	fef43423          	sd	a5,-24(s0)
ffffffc0502091da:	00001517          	auipc	a0,0x1
ffffffc0502091de:	77650513          	addi	a0,a0,1910 # ffffffc05020a950 <recv_block_queue>
ffffffc0502091e2:	bbbff0ef          	jal	ra,ffffffc050208d9c <list_empty>
ffffffc0502091e6:	87aa                	mv	a5,a0
ffffffc0502091e8:	eb89                	bnez	a5,ffffffc0502091fa <check_net_recv+0xce>
ffffffc0502091ea:	fe843703          	ld	a4,-24(s0)
ffffffc0502091ee:	00001797          	auipc	a5,0x1
ffffffc0502091f2:	76278793          	addi	a5,a5,1890 # ffffffc05020a950 <recv_block_queue>
ffffffc0502091f6:	f4f717e3          	bne	a4,a5,ffffffc050209144 <check_net_recv+0x18>
ffffffc0502091fa:	0001                	nop
ffffffc0502091fc:	853e                	mv	a0,a5
ffffffc0502091fe:	70e2                	ld	ra,56(sp)
ffffffc050209200:	7442                	ld	s0,48(sp)
ffffffc050209202:	6121                	addi	sp,sp,64
ffffffc050209204:	8082                	ret

ffffffc050209206 <kva2pa>:
ffffffc050209206:	1101                	addi	sp,sp,-32
ffffffc050209208:	ec22                	sd	s0,24(sp)
ffffffc05020920a:	1000                	addi	s0,sp,32
ffffffc05020920c:	fea43423          	sd	a0,-24(s0)
ffffffc050209210:	fe843703          	ld	a4,-24(s0)
ffffffc050209214:	4785                	li	a5,1
ffffffc050209216:	179a                	slli	a5,a5,0x26
ffffffc050209218:	97ba                	add	a5,a5,a4
ffffffc05020921a:	853e                	mv	a0,a5
ffffffc05020921c:	6462                	ld	s0,24(sp)
ffffffc05020921e:	6105                	addi	sp,sp,32
ffffffc050209220:	8082                	ret

ffffffc050209222 <call_jmptab>:
ffffffc050209222:	7139                	addi	sp,sp,-64
ffffffc050209224:	fc06                	sd	ra,56(sp)
ffffffc050209226:	f822                	sd	s0,48(sp)
ffffffc050209228:	0080                	addi	s0,sp,64
ffffffc05020922a:	fca43c23          	sd	a0,-40(s0)
ffffffc05020922e:	fcb43823          	sd	a1,-48(s0)
ffffffc050209232:	fcc43423          	sd	a2,-56(s0)
ffffffc050209236:	fcd43023          	sd	a3,-64(s0)
ffffffc05020923a:	fd843783          	ld	a5,-40(s0)
ffffffc05020923e:	00379713          	slli	a4,a5,0x3
ffffffc050209242:	fe0297b7          	lui	a5,0xfe029
ffffffc050209246:	07b6                	slli	a5,a5,0xd
ffffffc050209248:	f0078793          	addi	a5,a5,-256 # fffffffffe028f00 <__BSS_END__+0x3faddd5208>
ffffffc05020924c:	97ba                	add	a5,a5,a4
ffffffc05020924e:	639c                	ld	a5,0(a5)
ffffffc050209250:	fef43423          	sd	a5,-24(s0)
ffffffc050209254:	fe843783          	ld	a5,-24(s0)
ffffffc050209258:	fef43023          	sd	a5,-32(s0)
ffffffc05020925c:	fe043783          	ld	a5,-32(s0)
ffffffc050209260:	fc043603          	ld	a2,-64(s0)
ffffffc050209264:	fc843583          	ld	a1,-56(s0)
ffffffc050209268:	fd043503          	ld	a0,-48(s0)
ffffffc05020926c:	9782                	jalr	a5
ffffffc05020926e:	87aa                	mv	a5,a0
ffffffc050209270:	853e                	mv	a0,a5
ffffffc050209272:	70e2                	ld	ra,56(sp)
ffffffc050209274:	7442                	ld	s0,48(sp)
ffffffc050209276:	6121                	addi	sp,sp,64
ffffffc050209278:	8082                	ret

ffffffc05020927a <bios_putstr>:
ffffffc05020927a:	1101                	addi	sp,sp,-32
ffffffc05020927c:	ec06                	sd	ra,24(sp)
ffffffc05020927e:	e822                	sd	s0,16(sp)
ffffffc050209280:	1000                	addi	s0,sp,32
ffffffc050209282:	fea43423          	sd	a0,-24(s0)
ffffffc050209286:	fe843783          	ld	a5,-24(s0)
ffffffc05020928a:	853e                	mv	a0,a5
ffffffc05020928c:	f7bff0ef          	jal	ra,ffffffc050209206 <kva2pa>
ffffffc050209290:	87aa                	mv	a5,a0
ffffffc050209292:	4681                	li	a3,0
ffffffc050209294:	4601                	li	a2,0
ffffffc050209296:	85be                	mv	a1,a5
ffffffc050209298:	4501                	li	a0,0
ffffffc05020929a:	f89ff0ef          	jal	ra,ffffffc050209222 <call_jmptab>
ffffffc05020929e:	0001                	nop
ffffffc0502092a0:	60e2                	ld	ra,24(sp)
ffffffc0502092a2:	6442                	ld	s0,16(sp)
ffffffc0502092a4:	6105                	addi	sp,sp,32
ffffffc0502092a6:	8082                	ret

ffffffc0502092a8 <bios_logging>:
ffffffc0502092a8:	1101                	addi	sp,sp,-32
ffffffc0502092aa:	ec06                	sd	ra,24(sp)
ffffffc0502092ac:	e822                	sd	s0,16(sp)
ffffffc0502092ae:	1000                	addi	s0,sp,32
ffffffc0502092b0:	fea43423          	sd	a0,-24(s0)
ffffffc0502092b4:	fe843783          	ld	a5,-24(s0)
ffffffc0502092b8:	853e                	mv	a0,a5
ffffffc0502092ba:	f4dff0ef          	jal	ra,ffffffc050209206 <kva2pa>
ffffffc0502092be:	87aa                	mv	a5,a0
ffffffc0502092c0:	4681                	li	a3,0
ffffffc0502092c2:	4601                	li	a2,0
ffffffc0502092c4:	85be                	mv	a1,a5
ffffffc0502092c6:	4515                	li	a0,5
ffffffc0502092c8:	f5bff0ef          	jal	ra,ffffffc050209222 <call_jmptab>
ffffffc0502092cc:	0001                	nop
ffffffc0502092ce:	60e2                	ld	ra,24(sp)
ffffffc0502092d0:	6442                	ld	s0,16(sp)
ffffffc0502092d2:	6105                	addi	sp,sp,32
ffffffc0502092d4:	8082                	ret

ffffffc0502092d6 <mini_strlen>:
ffffffc0502092d6:	7179                	addi	sp,sp,-48
ffffffc0502092d8:	f422                	sd	s0,40(sp)
ffffffc0502092da:	1800                	addi	s0,sp,48
ffffffc0502092dc:	fca43c23          	sd	a0,-40(s0)
ffffffc0502092e0:	fe042623          	sw	zero,-20(s0)
ffffffc0502092e4:	a031                	j	ffffffc0502092f0 <mini_strlen+0x1a>
ffffffc0502092e6:	fec42783          	lw	a5,-20(s0)
ffffffc0502092ea:	2785                	addiw	a5,a5,1
ffffffc0502092ec:	fef42623          	sw	a5,-20(s0)
ffffffc0502092f0:	fec46783          	lwu	a5,-20(s0)
ffffffc0502092f4:	fd843703          	ld	a4,-40(s0)
ffffffc0502092f8:	97ba                	add	a5,a5,a4
ffffffc0502092fa:	0007c783          	lbu	a5,0(a5)
ffffffc0502092fe:	f7e5                	bnez	a5,ffffffc0502092e6 <mini_strlen+0x10>
ffffffc050209300:	fec42783          	lw	a5,-20(s0)
ffffffc050209304:	853e                	mv	a0,a5
ffffffc050209306:	7422                	ld	s0,40(sp)
ffffffc050209308:	6145                	addi	sp,sp,48
ffffffc05020930a:	8082                	ret

ffffffc05020930c <mini_itoa>:
ffffffc05020930c:	715d                	addi	sp,sp,-80
ffffffc05020930e:	e4a2                	sd	s0,72(sp)
ffffffc050209310:	0880                	addi	s0,sp,80
ffffffc050209312:	fca43423          	sd	a0,-56(s0)
ffffffc050209316:	fae43823          	sd	a4,-80(s0)
ffffffc05020931a:	873e                	mv	a4,a5
ffffffc05020931c:	87ae                	mv	a5,a1
ffffffc05020931e:	fcf42223          	sw	a5,-60(s0)
ffffffc050209322:	87b2                	mv	a5,a2
ffffffc050209324:	fcf42023          	sw	a5,-64(s0)
ffffffc050209328:	87b6                	mv	a5,a3
ffffffc05020932a:	faf42e23          	sw	a5,-68(s0)
ffffffc05020932e:	87ba                	mv	a5,a4
ffffffc050209330:	faf42c23          	sw	a5,-72(s0)
ffffffc050209334:	fb043783          	ld	a5,-80(s0)
ffffffc050209338:	fef43423          	sd	a5,-24(s0)
ffffffc05020933c:	fe042223          	sw	zero,-28(s0)
ffffffc050209340:	fc442783          	lw	a5,-60(s0)
ffffffc050209344:	0007871b          	sext.w	a4,a5
ffffffc050209348:	47c1                	li	a5,16
ffffffc05020934a:	00e7f463          	bgeu	a5,a4,ffffffc050209352 <mini_itoa+0x46>
ffffffc05020934e:	4781                	li	a5,0
ffffffc050209350:	aae9                	j	ffffffc05020952a <mini_itoa+0x21e>
ffffffc050209352:	fc843783          	ld	a5,-56(s0)
ffffffc050209356:	0007df63          	bgez	a5,ffffffc050209374 <mini_itoa+0x68>
ffffffc05020935a:	fbc42783          	lw	a5,-68(s0)
ffffffc05020935e:	2781                	sext.w	a5,a5
ffffffc050209360:	eb91                	bnez	a5,ffffffc050209374 <mini_itoa+0x68>
ffffffc050209362:	4785                	li	a5,1
ffffffc050209364:	fef42223          	sw	a5,-28(s0)
ffffffc050209368:	fc843783          	ld	a5,-56(s0)
ffffffc05020936c:	40f007b3          	neg	a5,a5
ffffffc050209370:	fcf43423          	sd	a5,-56(s0)
ffffffc050209374:	fc042e23          	sw	zero,-36(s0)
ffffffc050209378:	fbc42783          	lw	a5,-68(s0)
ffffffc05020937c:	2781                	sext.w	a5,a5
ffffffc05020937e:	cb91                	beqz	a5,ffffffc050209392 <mini_itoa+0x86>
ffffffc050209380:	fc843703          	ld	a4,-56(s0)
ffffffc050209384:	fc446783          	lwu	a5,-60(s0)
ffffffc050209388:	02f777b3          	remu	a5,a4,a5
ffffffc05020938c:	fcf42e23          	sw	a5,-36(s0)
ffffffc050209390:	a809                	j	ffffffc0502093a2 <mini_itoa+0x96>
ffffffc050209392:	fc446783          	lwu	a5,-60(s0)
ffffffc050209396:	fc843703          	ld	a4,-56(s0)
ffffffc05020939a:	02f767b3          	rem	a5,a4,a5
ffffffc05020939e:	fcf42e23          	sw	a5,-36(s0)
ffffffc0502093a2:	fdc42783          	lw	a5,-36(s0)
ffffffc0502093a6:	0007871b          	sext.w	a4,a5
ffffffc0502093aa:	47a5                	li	a5,9
ffffffc0502093ac:	00e7cb63          	blt	a5,a4,ffffffc0502093c2 <mini_itoa+0xb6>
ffffffc0502093b0:	fdc42783          	lw	a5,-36(s0)
ffffffc0502093b4:	0ff7f793          	andi	a5,a5,255
ffffffc0502093b8:	0307879b          	addiw	a5,a5,48
ffffffc0502093bc:	0ff7f713          	andi	a4,a5,255
ffffffc0502093c0:	a025                	j	ffffffc0502093e8 <mini_itoa+0xdc>
ffffffc0502093c2:	fc042783          	lw	a5,-64(s0)
ffffffc0502093c6:	2781                	sext.w	a5,a5
ffffffc0502093c8:	c781                	beqz	a5,ffffffc0502093d0 <mini_itoa+0xc4>
ffffffc0502093ca:	04100793          	li	a5,65
ffffffc0502093ce:	a019                	j	ffffffc0502093d4 <mini_itoa+0xc8>
ffffffc0502093d0:	06100793          	li	a5,97
ffffffc0502093d4:	fdc42703          	lw	a4,-36(s0)
ffffffc0502093d8:	0ff77713          	andi	a4,a4,255
ffffffc0502093dc:	9fb9                	addw	a5,a5,a4
ffffffc0502093de:	0ff7f793          	andi	a5,a5,255
ffffffc0502093e2:	37d9                	addiw	a5,a5,-10
ffffffc0502093e4:	0ff7f713          	andi	a4,a5,255
ffffffc0502093e8:	fe843783          	ld	a5,-24(s0)
ffffffc0502093ec:	00178693          	addi	a3,a5,1
ffffffc0502093f0:	fed43423          	sd	a3,-24(s0)
ffffffc0502093f4:	00e78023          	sb	a4,0(a5)
ffffffc0502093f8:	fbc42783          	lw	a5,-68(s0)
ffffffc0502093fc:	2781                	sext.w	a5,a5
ffffffc0502093fe:	cb91                	beqz	a5,ffffffc050209412 <mini_itoa+0x106>
ffffffc050209400:	fc843703          	ld	a4,-56(s0)
ffffffc050209404:	fc446783          	lwu	a5,-60(s0)
ffffffc050209408:	02f757b3          	divu	a5,a4,a5
ffffffc05020940c:	fcf43423          	sd	a5,-56(s0)
ffffffc050209410:	a809                	j	ffffffc050209422 <mini_itoa+0x116>
ffffffc050209412:	fc446783          	lwu	a5,-60(s0)
ffffffc050209416:	fc843703          	ld	a4,-56(s0)
ffffffc05020941a:	02f747b3          	div	a5,a4,a5
ffffffc05020941e:	fcf43423          	sd	a5,-56(s0)
ffffffc050209422:	fc843783          	ld	a5,-56(s0)
ffffffc050209426:	f7b9                	bnez	a5,ffffffc050209374 <mini_itoa+0x68>
ffffffc050209428:	fe843703          	ld	a4,-24(s0)
ffffffc05020942c:	fb043783          	ld	a5,-80(s0)
ffffffc050209430:	40f707b3          	sub	a5,a4,a5
ffffffc050209434:	fef42023          	sw	a5,-32(s0)
ffffffc050209438:	a005                	j	ffffffc050209458 <mini_itoa+0x14c>
ffffffc05020943a:	fe843783          	ld	a5,-24(s0)
ffffffc05020943e:	00178713          	addi	a4,a5,1
ffffffc050209442:	fee43423          	sd	a4,-24(s0)
ffffffc050209446:	03000713          	li	a4,48
ffffffc05020944a:	00e78023          	sb	a4,0(a5)
ffffffc05020944e:	fe042783          	lw	a5,-32(s0)
ffffffc050209452:	2785                	addiw	a5,a5,1
ffffffc050209454:	fef42023          	sw	a5,-32(s0)
ffffffc050209458:	fe042703          	lw	a4,-32(s0)
ffffffc05020945c:	fb842783          	lw	a5,-72(s0)
ffffffc050209460:	2701                	sext.w	a4,a4
ffffffc050209462:	2781                	sext.w	a5,a5
ffffffc050209464:	fcf76be3          	bltu	a4,a5,ffffffc05020943a <mini_itoa+0x12e>
ffffffc050209468:	fe442783          	lw	a5,-28(s0)
ffffffc05020946c:	2781                	sext.w	a5,a5
ffffffc05020946e:	cb99                	beqz	a5,ffffffc050209484 <mini_itoa+0x178>
ffffffc050209470:	fe843783          	ld	a5,-24(s0)
ffffffc050209474:	00178713          	addi	a4,a5,1
ffffffc050209478:	fee43423          	sd	a4,-24(s0)
ffffffc05020947c:	02d00713          	li	a4,45
ffffffc050209480:	00e78023          	sb	a4,0(a5)
ffffffc050209484:	fe843783          	ld	a5,-24(s0)
ffffffc050209488:	00078023          	sb	zero,0(a5)
ffffffc05020948c:	fe843703          	ld	a4,-24(s0)
ffffffc050209490:	fb043783          	ld	a5,-80(s0)
ffffffc050209494:	40f707b3          	sub	a5,a4,a5
ffffffc050209498:	fcf42c23          	sw	a5,-40(s0)
ffffffc05020949c:	fe042023          	sw	zero,-32(s0)
ffffffc0502094a0:	a885                	j	ffffffc050209510 <mini_itoa+0x204>
ffffffc0502094a2:	fe046783          	lwu	a5,-32(s0)
ffffffc0502094a6:	fb043703          	ld	a4,-80(s0)
ffffffc0502094aa:	97ba                	add	a5,a5,a4
ffffffc0502094ac:	0007c783          	lbu	a5,0(a5)
ffffffc0502094b0:	fcf40ba3          	sb	a5,-41(s0)
ffffffc0502094b4:	fd842703          	lw	a4,-40(s0)
ffffffc0502094b8:	fe042783          	lw	a5,-32(s0)
ffffffc0502094bc:	40f707bb          	subw	a5,a4,a5
ffffffc0502094c0:	2781                	sext.w	a5,a5
ffffffc0502094c2:	37fd                	addiw	a5,a5,-1
ffffffc0502094c4:	2781                	sext.w	a5,a5
ffffffc0502094c6:	1782                	slli	a5,a5,0x20
ffffffc0502094c8:	9381                	srli	a5,a5,0x20
ffffffc0502094ca:	fb043703          	ld	a4,-80(s0)
ffffffc0502094ce:	973e                	add	a4,a4,a5
ffffffc0502094d0:	fe046783          	lwu	a5,-32(s0)
ffffffc0502094d4:	fb043683          	ld	a3,-80(s0)
ffffffc0502094d8:	97b6                	add	a5,a5,a3
ffffffc0502094da:	00074703          	lbu	a4,0(a4)
ffffffc0502094de:	00e78023          	sb	a4,0(a5)
ffffffc0502094e2:	fd842703          	lw	a4,-40(s0)
ffffffc0502094e6:	fe042783          	lw	a5,-32(s0)
ffffffc0502094ea:	40f707bb          	subw	a5,a4,a5
ffffffc0502094ee:	2781                	sext.w	a5,a5
ffffffc0502094f0:	37fd                	addiw	a5,a5,-1
ffffffc0502094f2:	2781                	sext.w	a5,a5
ffffffc0502094f4:	1782                	slli	a5,a5,0x20
ffffffc0502094f6:	9381                	srli	a5,a5,0x20
ffffffc0502094f8:	fb043703          	ld	a4,-80(s0)
ffffffc0502094fc:	97ba                	add	a5,a5,a4
ffffffc0502094fe:	fd744703          	lbu	a4,-41(s0)
ffffffc050209502:	00e78023          	sb	a4,0(a5)
ffffffc050209506:	fe042783          	lw	a5,-32(s0)
ffffffc05020950a:	2785                	addiw	a5,a5,1
ffffffc05020950c:	fef42023          	sw	a5,-32(s0)
ffffffc050209510:	fd842783          	lw	a5,-40(s0)
ffffffc050209514:	0017d79b          	srliw	a5,a5,0x1
ffffffc050209518:	0007871b          	sext.w	a4,a5
ffffffc05020951c:	fe042783          	lw	a5,-32(s0)
ffffffc050209520:	2781                	sext.w	a5,a5
ffffffc050209522:	f8e7e0e3          	bltu	a5,a4,ffffffc0502094a2 <mini_itoa+0x196>
ffffffc050209526:	fd842783          	lw	a5,-40(s0)
ffffffc05020952a:	853e                	mv	a0,a5
ffffffc05020952c:	6426                	ld	s0,72(sp)
ffffffc05020952e:	6161                	addi	sp,sp,80
ffffffc050209530:	8082                	ret

ffffffc050209532 <_putc>:
ffffffc050209532:	1101                	addi	sp,sp,-32
ffffffc050209534:	ec22                	sd	s0,24(sp)
ffffffc050209536:	1000                	addi	s0,sp,32
ffffffc050209538:	87aa                	mv	a5,a0
ffffffc05020953a:	feb43023          	sd	a1,-32(s0)
ffffffc05020953e:	fef42623          	sw	a5,-20(s0)
ffffffc050209542:	fe043783          	ld	a5,-32(s0)
ffffffc050209546:	6798                	ld	a4,8(a5)
ffffffc050209548:	fe043783          	ld	a5,-32(s0)
ffffffc05020954c:	639c                	ld	a5,0(a5)
ffffffc05020954e:	40f707b3          	sub	a5,a4,a5
ffffffc050209552:	2781                	sext.w	a5,a5
ffffffc050209554:	2785                	addiw	a5,a5,1
ffffffc050209556:	0007871b          	sext.w	a4,a5
ffffffc05020955a:	fe043783          	ld	a5,-32(s0)
ffffffc05020955e:	4b9c                	lw	a5,16(a5)
ffffffc050209560:	00f76463          	bltu	a4,a5,ffffffc050209568 <_putc+0x36>
ffffffc050209564:	4781                	li	a5,0
ffffffc050209566:	a02d                	j	ffffffc050209590 <_putc+0x5e>
ffffffc050209568:	fe043783          	ld	a5,-32(s0)
ffffffc05020956c:	679c                	ld	a5,8(a5)
ffffffc05020956e:	00178693          	addi	a3,a5,1
ffffffc050209572:	fe043703          	ld	a4,-32(s0)
ffffffc050209576:	e714                	sd	a3,8(a4)
ffffffc050209578:	fec42703          	lw	a4,-20(s0)
ffffffc05020957c:	0ff77713          	andi	a4,a4,255
ffffffc050209580:	00e78023          	sb	a4,0(a5)
ffffffc050209584:	fe043783          	ld	a5,-32(s0)
ffffffc050209588:	679c                	ld	a5,8(a5)
ffffffc05020958a:	00078023          	sb	zero,0(a5)
ffffffc05020958e:	4785                	li	a5,1
ffffffc050209590:	853e                	mv	a0,a5
ffffffc050209592:	6462                	ld	s0,24(sp)
ffffffc050209594:	6105                	addi	sp,sp,32
ffffffc050209596:	8082                	ret

ffffffc050209598 <_puts>:
ffffffc050209598:	7139                	addi	sp,sp,-64
ffffffc05020959a:	fc22                	sd	s0,56(sp)
ffffffc05020959c:	0080                	addi	s0,sp,64
ffffffc05020959e:	fca43c23          	sd	a0,-40(s0)
ffffffc0502095a2:	87ae                	mv	a5,a1
ffffffc0502095a4:	fcc43423          	sd	a2,-56(s0)
ffffffc0502095a8:	fcf42a23          	sw	a5,-44(s0)
ffffffc0502095ac:	fc843783          	ld	a5,-56(s0)
ffffffc0502095b0:	4b9c                	lw	a5,16(a5)
ffffffc0502095b2:	02079713          	slli	a4,a5,0x20
ffffffc0502095b6:	9301                	srli	a4,a4,0x20
ffffffc0502095b8:	fc843783          	ld	a5,-56(s0)
ffffffc0502095bc:	6794                	ld	a3,8(a5)
ffffffc0502095be:	fc843783          	ld	a5,-56(s0)
ffffffc0502095c2:	639c                	ld	a5,0(a5)
ffffffc0502095c4:	40f687b3          	sub	a5,a3,a5
ffffffc0502095c8:	8f1d                	sub	a4,a4,a5
ffffffc0502095ca:	fd446783          	lwu	a5,-44(s0)
ffffffc0502095ce:	02e7c463          	blt	a5,a4,ffffffc0502095f6 <_puts+0x5e>
ffffffc0502095d2:	fc843783          	ld	a5,-56(s0)
ffffffc0502095d6:	4b98                	lw	a4,16(a5)
ffffffc0502095d8:	fc843783          	ld	a5,-56(s0)
ffffffc0502095dc:	6794                	ld	a3,8(a5)
ffffffc0502095de:	fc843783          	ld	a5,-56(s0)
ffffffc0502095e2:	639c                	ld	a5,0(a5)
ffffffc0502095e4:	40f687b3          	sub	a5,a3,a5
ffffffc0502095e8:	2781                	sext.w	a5,a5
ffffffc0502095ea:	40f707bb          	subw	a5,a4,a5
ffffffc0502095ee:	2781                	sext.w	a5,a5
ffffffc0502095f0:	37fd                	addiw	a5,a5,-1
ffffffc0502095f2:	fcf42a23          	sw	a5,-44(s0)
ffffffc0502095f6:	fe042623          	sw	zero,-20(s0)
ffffffc0502095fa:	a03d                	j	ffffffc050209628 <_puts+0x90>
ffffffc0502095fc:	fec46783          	lwu	a5,-20(s0)
ffffffc050209600:	fd843703          	ld	a4,-40(s0)
ffffffc050209604:	973e                	add	a4,a4,a5
ffffffc050209606:	fc843783          	ld	a5,-56(s0)
ffffffc05020960a:	679c                	ld	a5,8(a5)
ffffffc05020960c:	00178613          	addi	a2,a5,1
ffffffc050209610:	fc843683          	ld	a3,-56(s0)
ffffffc050209614:	e690                	sd	a2,8(a3)
ffffffc050209616:	00074703          	lbu	a4,0(a4)
ffffffc05020961a:	00e78023          	sb	a4,0(a5)
ffffffc05020961e:	fec42783          	lw	a5,-20(s0)
ffffffc050209622:	2785                	addiw	a5,a5,1
ffffffc050209624:	fef42623          	sw	a5,-20(s0)
ffffffc050209628:	fec42703          	lw	a4,-20(s0)
ffffffc05020962c:	fd442783          	lw	a5,-44(s0)
ffffffc050209630:	2701                	sext.w	a4,a4
ffffffc050209632:	2781                	sext.w	a5,a5
ffffffc050209634:	fcf764e3          	bltu	a4,a5,ffffffc0502095fc <_puts+0x64>
ffffffc050209638:	fc843783          	ld	a5,-56(s0)
ffffffc05020963c:	679c                	ld	a5,8(a5)
ffffffc05020963e:	00078023          	sb	zero,0(a5)
ffffffc050209642:	fd442783          	lw	a5,-44(s0)
ffffffc050209646:	853e                	mv	a0,a5
ffffffc050209648:	7462                	ld	s0,56(sp)
ffffffc05020964a:	6121                	addi	sp,sp,64
ffffffc05020964c:	8082                	ret

ffffffc05020964e <mini_vsnprintf>:
ffffffc05020964e:	7119                	addi	sp,sp,-128
ffffffc050209650:	fc86                	sd	ra,120(sp)
ffffffc050209652:	f8a2                	sd	s0,112(sp)
ffffffc050209654:	0100                	addi	s0,sp,128
ffffffc050209656:	f8a43c23          	sd	a0,-104(s0)
ffffffc05020965a:	87ae                	mv	a5,a1
ffffffc05020965c:	f8c43423          	sd	a2,-120(s0)
ffffffc050209660:	f8d43023          	sd	a3,-128(s0)
ffffffc050209664:	f8f42a23          	sw	a5,-108(s0)
ffffffc050209668:	f9843783          	ld	a5,-104(s0)
ffffffc05020966c:	fcf43023          	sd	a5,-64(s0)
ffffffc050209670:	f9843783          	ld	a5,-104(s0)
ffffffc050209674:	fcf43423          	sd	a5,-56(s0)
ffffffc050209678:	f9442783          	lw	a5,-108(s0)
ffffffc05020967c:	fcf42823          	sw	a5,-48(s0)
ffffffc050209680:	a4f9                	j	ffffffc05020994e <mini_vsnprintf+0x300>
ffffffc050209682:	fc843703          	ld	a4,-56(s0)
ffffffc050209686:	fc043783          	ld	a5,-64(s0)
ffffffc05020968a:	40f707b3          	sub	a5,a4,a5
ffffffc05020968e:	2781                	sext.w	a5,a5
ffffffc050209690:	2785                	addiw	a5,a5,1
ffffffc050209692:	0007871b          	sext.w	a4,a5
ffffffc050209696:	fd042783          	lw	a5,-48(s0)
ffffffc05020969a:	2cf77b63          	bgeu	a4,a5,ffffffc050209970 <mini_vsnprintf+0x322>
ffffffc05020969e:	fef44783          	lbu	a5,-17(s0)
ffffffc0502096a2:	0ff7f713          	andi	a4,a5,255
ffffffc0502096a6:	02500793          	li	a5,37
ffffffc0502096aa:	00f70c63          	beq	a4,a5,ffffffc0502096c2 <mini_vsnprintf+0x74>
ffffffc0502096ae:	fef44783          	lbu	a5,-17(s0)
ffffffc0502096b2:	2781                	sext.w	a5,a5
ffffffc0502096b4:	fc040713          	addi	a4,s0,-64
ffffffc0502096b8:	85ba                	mv	a1,a4
ffffffc0502096ba:	853e                	mv	a0,a5
ffffffc0502096bc:	e77ff0ef          	jal	ra,ffffffc050209532 <_putc>
ffffffc0502096c0:	a479                	j	ffffffc05020994e <mini_vsnprintf+0x300>
ffffffc0502096c2:	fe040723          	sb	zero,-18(s0)
ffffffc0502096c6:	fe042423          	sw	zero,-24(s0)
ffffffc0502096ca:	f8843783          	ld	a5,-120(s0)
ffffffc0502096ce:	00178713          	addi	a4,a5,1
ffffffc0502096d2:	f8e43423          	sd	a4,-120(s0)
ffffffc0502096d6:	0007c783          	lbu	a5,0(a5)
ffffffc0502096da:	fef407a3          	sb	a5,-17(s0)
ffffffc0502096de:	fef44783          	lbu	a5,-17(s0)
ffffffc0502096e2:	0ff7f713          	andi	a4,a5,255
ffffffc0502096e6:	03000793          	li	a5,48
ffffffc0502096ea:	06f71b63          	bne	a4,a5,ffffffc050209760 <mini_vsnprintf+0x112>
ffffffc0502096ee:	a891                	j	ffffffc050209742 <mini_vsnprintf+0xf4>
ffffffc0502096f0:	fef44783          	lbu	a5,-17(s0)
ffffffc0502096f4:	0ff7f793          	andi	a5,a5,255
ffffffc0502096f8:	26078e63          	beqz	a5,ffffffc050209974 <mini_vsnprintf+0x326>
ffffffc0502096fc:	fef44783          	lbu	a5,-17(s0)
ffffffc050209700:	0ff7f713          	andi	a4,a5,255
ffffffc050209704:	02f00793          	li	a5,47
ffffffc050209708:	04e7fc63          	bgeu	a5,a4,ffffffc050209760 <mini_vsnprintf+0x112>
ffffffc05020970c:	fef44783          	lbu	a5,-17(s0)
ffffffc050209710:	0ff7f713          	andi	a4,a5,255
ffffffc050209714:	03900793          	li	a5,57
ffffffc050209718:	04e7e463          	bltu	a5,a4,ffffffc050209760 <mini_vsnprintf+0x112>
ffffffc05020971c:	fee44703          	lbu	a4,-18(s0)
ffffffc050209720:	87ba                	mv	a5,a4
ffffffc050209722:	0027979b          	slliw	a5,a5,0x2
ffffffc050209726:	9fb9                	addw	a5,a5,a4
ffffffc050209728:	0017979b          	slliw	a5,a5,0x1
ffffffc05020972c:	0ff7f793          	andi	a5,a5,255
ffffffc050209730:	fef44703          	lbu	a4,-17(s0)
ffffffc050209734:	9fb9                	addw	a5,a5,a4
ffffffc050209736:	0ff7f793          	andi	a5,a5,255
ffffffc05020973a:	fd07879b          	addiw	a5,a5,-48
ffffffc05020973e:	fef40723          	sb	a5,-18(s0)
ffffffc050209742:	f8843783          	ld	a5,-120(s0)
ffffffc050209746:	00178713          	addi	a4,a5,1
ffffffc05020974a:	f8e43423          	sd	a4,-120(s0)
ffffffc05020974e:	0007c783          	lbu	a5,0(a5)
ffffffc050209752:	fef407a3          	sb	a5,-17(s0)
ffffffc050209756:	fef44783          	lbu	a5,-17(s0)
ffffffc05020975a:	0ff7f793          	andi	a5,a5,255
ffffffc05020975e:	fbc9                	bnez	a5,ffffffc0502096f0 <mini_vsnprintf+0xa2>
ffffffc050209760:	fef44783          	lbu	a5,-17(s0)
ffffffc050209764:	0ff7f713          	andi	a4,a5,255
ffffffc050209768:	06c00793          	li	a5,108
ffffffc05020976c:	00f71f63          	bne	a4,a5,ffffffc05020978a <mini_vsnprintf+0x13c>
ffffffc050209770:	4785                	li	a5,1
ffffffc050209772:	fef42423          	sw	a5,-24(s0)
ffffffc050209776:	f8843783          	ld	a5,-120(s0)
ffffffc05020977a:	00178713          	addi	a4,a5,1
ffffffc05020977e:	f8e43423          	sd	a4,-120(s0)
ffffffc050209782:	0007c783          	lbu	a5,0(a5)
ffffffc050209786:	fef407a3          	sb	a5,-17(s0)
ffffffc05020978a:	fef44783          	lbu	a5,-17(s0)
ffffffc05020978e:	2781                	sext.w	a5,a5
ffffffc050209790:	1e078463          	beqz	a5,ffffffc050209978 <mini_vsnprintf+0x32a>
ffffffc050209794:	873e                	mv	a4,a5
ffffffc050209796:	1a074263          	bltz	a4,ffffffc05020993a <mini_vsnprintf+0x2ec>
ffffffc05020979a:	86be                	mv	a3,a5
ffffffc05020979c:	07800713          	li	a4,120
ffffffc0502097a0:	18d74d63          	blt	a4,a3,ffffffc05020993a <mini_vsnprintf+0x2ec>
ffffffc0502097a4:	86be                	mv	a3,a5
ffffffc0502097a6:	05800713          	li	a4,88
ffffffc0502097aa:	18e6c863          	blt	a3,a4,ffffffc05020993a <mini_vsnprintf+0x2ec>
ffffffc0502097ae:	fa87869b          	addiw	a3,a5,-88
ffffffc0502097b2:	0006871b          	sext.w	a4,a3
ffffffc0502097b6:	02000793          	li	a5,32
ffffffc0502097ba:	18e7e063          	bltu	a5,a4,ffffffc05020993a <mini_vsnprintf+0x2ec>
ffffffc0502097be:	02069793          	slli	a5,a3,0x20
ffffffc0502097c2:	9381                	srli	a5,a5,0x20
ffffffc0502097c4:	00279713          	slli	a4,a5,0x2
ffffffc0502097c8:	00001797          	auipc	a5,0x1
ffffffc0502097cc:	e2878793          	addi	a5,a5,-472 # ffffffc05020a5f0 <__FUNCTION__.1603+0x1d0>
ffffffc0502097d0:	97ba                	add	a5,a5,a4
ffffffc0502097d2:	439c                	lw	a5,0(a5)
ffffffc0502097d4:	0007871b          	sext.w	a4,a5
ffffffc0502097d8:	00001797          	auipc	a5,0x1
ffffffc0502097dc:	e1878793          	addi	a5,a5,-488 # ffffffc05020a5f0 <__FUNCTION__.1603+0x1d0>
ffffffc0502097e0:	97ba                	add	a5,a5,a4
ffffffc0502097e2:	8782                	jr	a5
ffffffc0502097e4:	4785                	li	a5,1
ffffffc0502097e6:	fef42423          	sw	a5,-24(s0)
ffffffc0502097ea:	a295                	j	ffffffc05020994e <mini_vsnprintf+0x300>
ffffffc0502097ec:	fe842783          	lw	a5,-24(s0)
ffffffc0502097f0:	2781                	sext.w	a5,a5
ffffffc0502097f2:	ef81                	bnez	a5,ffffffc05020980a <mini_vsnprintf+0x1bc>
ffffffc0502097f4:	f8043783          	ld	a5,-128(s0)
ffffffc0502097f8:	00878713          	addi	a4,a5,8
ffffffc0502097fc:	f8e43023          	sd	a4,-128(s0)
ffffffc050209800:	439c                	lw	a5,0(a5)
ffffffc050209802:	02079513          	slli	a0,a5,0x20
ffffffc050209806:	9101                	srli	a0,a0,0x20
ffffffc050209808:	a809                	j	ffffffc05020981a <mini_vsnprintf+0x1cc>
ffffffc05020980a:	f8043783          	ld	a5,-128(s0)
ffffffc05020980e:	00878713          	addi	a4,a5,8
ffffffc050209812:	f8e43023          	sd	a4,-128(s0)
ffffffc050209816:	639c                	ld	a5,0(a5)
ffffffc050209818:	853e                	mv	a0,a5
ffffffc05020981a:	fef44783          	lbu	a5,-17(s0)
ffffffc05020981e:	0007871b          	sext.w	a4,a5
ffffffc050209822:	07500793          	li	a5,117
ffffffc050209826:	40f707b3          	sub	a5,a4,a5
ffffffc05020982a:	0017b793          	seqz	a5,a5
ffffffc05020982e:	0ff7f793          	andi	a5,a5,255
ffffffc050209832:	0007869b          	sext.w	a3,a5
ffffffc050209836:	fee44783          	lbu	a5,-18(s0)
ffffffc05020983a:	2781                	sext.w	a5,a5
ffffffc05020983c:	fa840713          	addi	a4,s0,-88
ffffffc050209840:	4601                	li	a2,0
ffffffc050209842:	45a9                	li	a1,10
ffffffc050209844:	ac9ff0ef          	jal	ra,ffffffc05020930c <mini_itoa>
ffffffc050209848:	87aa                	mv	a5,a0
ffffffc05020984a:	fcf42e23          	sw	a5,-36(s0)
ffffffc05020984e:	fc040693          	addi	a3,s0,-64
ffffffc050209852:	fdc42703          	lw	a4,-36(s0)
ffffffc050209856:	fa840793          	addi	a5,s0,-88
ffffffc05020985a:	8636                	mv	a2,a3
ffffffc05020985c:	85ba                	mv	a1,a4
ffffffc05020985e:	853e                	mv	a0,a5
ffffffc050209860:	d39ff0ef          	jal	ra,ffffffc050209598 <_puts>
ffffffc050209864:	fe042423          	sw	zero,-24(s0)
ffffffc050209868:	a0dd                	j	ffffffc05020994e <mini_vsnprintf+0x300>
ffffffc05020986a:	fe842783          	lw	a5,-24(s0)
ffffffc05020986e:	2781                	sext.w	a5,a5
ffffffc050209870:	ef81                	bnez	a5,ffffffc050209888 <mini_vsnprintf+0x23a>
ffffffc050209872:	f8043783          	ld	a5,-128(s0)
ffffffc050209876:	00878713          	addi	a4,a5,8
ffffffc05020987a:	f8e43023          	sd	a4,-128(s0)
ffffffc05020987e:	439c                	lw	a5,0(a5)
ffffffc050209880:	02079513          	slli	a0,a5,0x20
ffffffc050209884:	9101                	srli	a0,a0,0x20
ffffffc050209886:	a809                	j	ffffffc050209898 <mini_vsnprintf+0x24a>
ffffffc050209888:	f8043783          	ld	a5,-128(s0)
ffffffc05020988c:	00878713          	addi	a4,a5,8
ffffffc050209890:	f8e43023          	sd	a4,-128(s0)
ffffffc050209894:	639c                	ld	a5,0(a5)
ffffffc050209896:	853e                	mv	a0,a5
ffffffc050209898:	fef44783          	lbu	a5,-17(s0)
ffffffc05020989c:	0007871b          	sext.w	a4,a5
ffffffc0502098a0:	05800793          	li	a5,88
ffffffc0502098a4:	40f707b3          	sub	a5,a4,a5
ffffffc0502098a8:	0017b793          	seqz	a5,a5
ffffffc0502098ac:	0ff7f793          	andi	a5,a5,255
ffffffc0502098b0:	0007861b          	sext.w	a2,a5
ffffffc0502098b4:	fee44783          	lbu	a5,-18(s0)
ffffffc0502098b8:	2781                	sext.w	a5,a5
ffffffc0502098ba:	fa840713          	addi	a4,s0,-88
ffffffc0502098be:	4685                	li	a3,1
ffffffc0502098c0:	45c1                	li	a1,16
ffffffc0502098c2:	a4bff0ef          	jal	ra,ffffffc05020930c <mini_itoa>
ffffffc0502098c6:	87aa                	mv	a5,a0
ffffffc0502098c8:	fcf42e23          	sw	a5,-36(s0)
ffffffc0502098cc:	fc040693          	addi	a3,s0,-64
ffffffc0502098d0:	fdc42703          	lw	a4,-36(s0)
ffffffc0502098d4:	fa840793          	addi	a5,s0,-88
ffffffc0502098d8:	8636                	mv	a2,a3
ffffffc0502098da:	85ba                	mv	a1,a4
ffffffc0502098dc:	853e                	mv	a0,a5
ffffffc0502098de:	cbbff0ef          	jal	ra,ffffffc050209598 <_puts>
ffffffc0502098e2:	fe042423          	sw	zero,-24(s0)
ffffffc0502098e6:	a0a5                	j	ffffffc05020994e <mini_vsnprintf+0x300>
ffffffc0502098e8:	f8043783          	ld	a5,-128(s0)
ffffffc0502098ec:	00878713          	addi	a4,a5,8
ffffffc0502098f0:	f8e43023          	sd	a4,-128(s0)
ffffffc0502098f4:	439c                	lw	a5,0(a5)
ffffffc0502098f6:	0ff7f793          	andi	a5,a5,255
ffffffc0502098fa:	2781                	sext.w	a5,a5
ffffffc0502098fc:	fc040713          	addi	a4,s0,-64
ffffffc050209900:	85ba                	mv	a1,a4
ffffffc050209902:	853e                	mv	a0,a5
ffffffc050209904:	c2fff0ef          	jal	ra,ffffffc050209532 <_putc>
ffffffc050209908:	a099                	j	ffffffc05020994e <mini_vsnprintf+0x300>
ffffffc05020990a:	f8043783          	ld	a5,-128(s0)
ffffffc05020990e:	00878713          	addi	a4,a5,8
ffffffc050209912:	f8e43023          	sd	a4,-128(s0)
ffffffc050209916:	639c                	ld	a5,0(a5)
ffffffc050209918:	fef43023          	sd	a5,-32(s0)
ffffffc05020991c:	fe043503          	ld	a0,-32(s0)
ffffffc050209920:	9b7ff0ef          	jal	ra,ffffffc0502092d6 <mini_strlen>
ffffffc050209924:	87aa                	mv	a5,a0
ffffffc050209926:	2781                	sext.w	a5,a5
ffffffc050209928:	fc040713          	addi	a4,s0,-64
ffffffc05020992c:	863a                	mv	a2,a4
ffffffc05020992e:	85be                	mv	a1,a5
ffffffc050209930:	fe043503          	ld	a0,-32(s0)
ffffffc050209934:	c65ff0ef          	jal	ra,ffffffc050209598 <_puts>
ffffffc050209938:	a819                	j	ffffffc05020994e <mini_vsnprintf+0x300>
ffffffc05020993a:	fef44783          	lbu	a5,-17(s0)
ffffffc05020993e:	2781                	sext.w	a5,a5
ffffffc050209940:	fc040713          	addi	a4,s0,-64
ffffffc050209944:	85ba                	mv	a1,a4
ffffffc050209946:	853e                	mv	a0,a5
ffffffc050209948:	bebff0ef          	jal	ra,ffffffc050209532 <_putc>
ffffffc05020994c:	0001                	nop
ffffffc05020994e:	f8843783          	ld	a5,-120(s0)
ffffffc050209952:	00178713          	addi	a4,a5,1
ffffffc050209956:	f8e43423          	sd	a4,-120(s0)
ffffffc05020995a:	0007c783          	lbu	a5,0(a5)
ffffffc05020995e:	fef407a3          	sb	a5,-17(s0)
ffffffc050209962:	fef44783          	lbu	a5,-17(s0)
ffffffc050209966:	0ff7f793          	andi	a5,a5,255
ffffffc05020996a:	d0079ce3          	bnez	a5,ffffffc050209682 <mini_vsnprintf+0x34>
ffffffc05020996e:	a031                	j	ffffffc05020997a <mini_vsnprintf+0x32c>
ffffffc050209970:	0001                	nop
ffffffc050209972:	a021                	j	ffffffc05020997a <mini_vsnprintf+0x32c>
ffffffc050209974:	0001                	nop
ffffffc050209976:	a011                	j	ffffffc05020997a <mini_vsnprintf+0x32c>
ffffffc050209978:	0001                	nop
ffffffc05020997a:	fc843703          	ld	a4,-56(s0)
ffffffc05020997e:	fc043783          	ld	a5,-64(s0)
ffffffc050209982:	40f707b3          	sub	a5,a4,a5
ffffffc050209986:	2781                	sext.w	a5,a5
ffffffc050209988:	853e                	mv	a0,a5
ffffffc05020998a:	70e6                	ld	ra,120(sp)
ffffffc05020998c:	7446                	ld	s0,112(sp)
ffffffc05020998e:	6109                	addi	sp,sp,128
ffffffc050209990:	8082                	ret

ffffffc050209992 <_vprint>:
ffffffc050209992:	7129                	addi	sp,sp,-320
ffffffc050209994:	fe06                	sd	ra,312(sp)
ffffffc050209996:	fa22                	sd	s0,304(sp)
ffffffc050209998:	0280                	addi	s0,sp,320
ffffffc05020999a:	eca43c23          	sd	a0,-296(s0)
ffffffc05020999e:	ecb43823          	sd	a1,-304(s0)
ffffffc0502099a2:	ecc43423          	sd	a2,-312(s0)
ffffffc0502099a6:	ed043783          	ld	a5,-304(s0)
ffffffc0502099aa:	fef43023          	sd	a5,-32(s0)
ffffffc0502099ae:	fe043703          	ld	a4,-32(s0)
ffffffc0502099b2:	ee040793          	addi	a5,s0,-288
ffffffc0502099b6:	86ba                	mv	a3,a4
ffffffc0502099b8:	ed843603          	ld	a2,-296(s0)
ffffffc0502099bc:	10000593          	li	a1,256
ffffffc0502099c0:	853e                	mv	a0,a5
ffffffc0502099c2:	c8dff0ef          	jal	ra,ffffffc05020964e <mini_vsnprintf>
ffffffc0502099c6:	87aa                	mv	a5,a0
ffffffc0502099c8:	fef42623          	sw	a5,-20(s0)
ffffffc0502099cc:	fec42783          	lw	a5,-20(s0)
ffffffc0502099d0:	ff040713          	addi	a4,s0,-16
ffffffc0502099d4:	97ba                	add	a5,a5,a4
ffffffc0502099d6:	ee078823          	sb	zero,-272(a5)
ffffffc0502099da:	ee040793          	addi	a5,s0,-288
ffffffc0502099de:	ec843703          	ld	a4,-312(s0)
ffffffc0502099e2:	853e                	mv	a0,a5
ffffffc0502099e4:	9702                	jalr	a4
ffffffc0502099e6:	fec42783          	lw	a5,-20(s0)
ffffffc0502099ea:	853e                	mv	a0,a5
ffffffc0502099ec:	70f2                	ld	ra,312(sp)
ffffffc0502099ee:	7452                	ld	s0,304(sp)
ffffffc0502099f0:	6131                	addi	sp,sp,320
ffffffc0502099f2:	8082                	ret

ffffffc0502099f4 <_output_wrapper>:
ffffffc0502099f4:	1101                	addi	sp,sp,-32
ffffffc0502099f6:	ec06                	sd	ra,24(sp)
ffffffc0502099f8:	e822                	sd	s0,16(sp)
ffffffc0502099fa:	1000                	addi	s0,sp,32
ffffffc0502099fc:	fea43423          	sd	a0,-24(s0)
ffffffc050209a00:	fe843503          	ld	a0,-24(s0)
ffffffc050209a04:	ecff90ef          	jal	ra,ffffffc0502038d2 <screen_write>
ffffffc050209a08:	f29f90ef          	jal	ra,ffffffc050203930 <screen_reflush>
ffffffc050209a0c:	0001                	nop
ffffffc050209a0e:	60e2                	ld	ra,24(sp)
ffffffc050209a10:	6442                	ld	s0,16(sp)
ffffffc050209a12:	6105                	addi	sp,sp,32
ffffffc050209a14:	8082                	ret

ffffffc050209a16 <vprintk>:
ffffffc050209a16:	1101                	addi	sp,sp,-32
ffffffc050209a18:	ec06                	sd	ra,24(sp)
ffffffc050209a1a:	e822                	sd	s0,16(sp)
ffffffc050209a1c:	1000                	addi	s0,sp,32
ffffffc050209a1e:	fea43423          	sd	a0,-24(s0)
ffffffc050209a22:	feb43023          	sd	a1,-32(s0)
ffffffc050209a26:	00000617          	auipc	a2,0x0
ffffffc050209a2a:	fce60613          	addi	a2,a2,-50 # ffffffc0502099f4 <_output_wrapper>
ffffffc050209a2e:	fe043583          	ld	a1,-32(s0)
ffffffc050209a32:	fe843503          	ld	a0,-24(s0)
ffffffc050209a36:	f5dff0ef          	jal	ra,ffffffc050209992 <_vprint>
ffffffc050209a3a:	87aa                	mv	a5,a0
ffffffc050209a3c:	853e                	mv	a0,a5
ffffffc050209a3e:	60e2                	ld	ra,24(sp)
ffffffc050209a40:	6442                	ld	s0,16(sp)
ffffffc050209a42:	6105                	addi	sp,sp,32
ffffffc050209a44:	8082                	ret

ffffffc050209a46 <printk>:
ffffffc050209a46:	7159                	addi	sp,sp,-112
ffffffc050209a48:	f406                	sd	ra,40(sp)
ffffffc050209a4a:	f022                	sd	s0,32(sp)
ffffffc050209a4c:	1800                	addi	s0,sp,48
ffffffc050209a4e:	fca43c23          	sd	a0,-40(s0)
ffffffc050209a52:	e40c                	sd	a1,8(s0)
ffffffc050209a54:	e810                	sd	a2,16(s0)
ffffffc050209a56:	ec14                	sd	a3,24(s0)
ffffffc050209a58:	f018                	sd	a4,32(s0)
ffffffc050209a5a:	f41c                	sd	a5,40(s0)
ffffffc050209a5c:	03043823          	sd	a6,48(s0)
ffffffc050209a60:	03143c23          	sd	a7,56(s0)
ffffffc050209a64:	fe042623          	sw	zero,-20(s0)
ffffffc050209a68:	04040793          	addi	a5,s0,64
ffffffc050209a6c:	fcf43823          	sd	a5,-48(s0)
ffffffc050209a70:	fd043783          	ld	a5,-48(s0)
ffffffc050209a74:	fc878793          	addi	a5,a5,-56
ffffffc050209a78:	fef43023          	sd	a5,-32(s0)
ffffffc050209a7c:	fe043783          	ld	a5,-32(s0)
ffffffc050209a80:	85be                	mv	a1,a5
ffffffc050209a82:	fd843503          	ld	a0,-40(s0)
ffffffc050209a86:	f91ff0ef          	jal	ra,ffffffc050209a16 <vprintk>
ffffffc050209a8a:	87aa                	mv	a5,a0
ffffffc050209a8c:	fef42623          	sw	a5,-20(s0)
ffffffc050209a90:	fec42783          	lw	a5,-20(s0)
ffffffc050209a94:	853e                	mv	a0,a5
ffffffc050209a96:	70a2                	ld	ra,40(sp)
ffffffc050209a98:	7402                	ld	s0,32(sp)
ffffffc050209a9a:	6165                	addi	sp,sp,112
ffffffc050209a9c:	8082                	ret

ffffffc050209a9e <vprintv>:
ffffffc050209a9e:	1101                	addi	sp,sp,-32
ffffffc050209aa0:	ec06                	sd	ra,24(sp)
ffffffc050209aa2:	e822                	sd	s0,16(sp)
ffffffc050209aa4:	1000                	addi	s0,sp,32
ffffffc050209aa6:	fea43423          	sd	a0,-24(s0)
ffffffc050209aaa:	feb43023          	sd	a1,-32(s0)
ffffffc050209aae:	fffff617          	auipc	a2,0xfffff
ffffffc050209ab2:	7cc60613          	addi	a2,a2,1996 # ffffffc05020927a <bios_putstr>
ffffffc050209ab6:	fe043583          	ld	a1,-32(s0)
ffffffc050209aba:	fe843503          	ld	a0,-24(s0)
ffffffc050209abe:	ed5ff0ef          	jal	ra,ffffffc050209992 <_vprint>
ffffffc050209ac2:	87aa                	mv	a5,a0
ffffffc050209ac4:	853e                	mv	a0,a5
ffffffc050209ac6:	60e2                	ld	ra,24(sp)
ffffffc050209ac8:	6442                	ld	s0,16(sp)
ffffffc050209aca:	6105                	addi	sp,sp,32
ffffffc050209acc:	8082                	ret

ffffffc050209ace <printv>:
ffffffc050209ace:	7159                	addi	sp,sp,-112
ffffffc050209ad0:	f406                	sd	ra,40(sp)
ffffffc050209ad2:	f022                	sd	s0,32(sp)
ffffffc050209ad4:	1800                	addi	s0,sp,48
ffffffc050209ad6:	fca43c23          	sd	a0,-40(s0)
ffffffc050209ada:	e40c                	sd	a1,8(s0)
ffffffc050209adc:	e810                	sd	a2,16(s0)
ffffffc050209ade:	ec14                	sd	a3,24(s0)
ffffffc050209ae0:	f018                	sd	a4,32(s0)
ffffffc050209ae2:	f41c                	sd	a5,40(s0)
ffffffc050209ae4:	03043823          	sd	a6,48(s0)
ffffffc050209ae8:	03143c23          	sd	a7,56(s0)
ffffffc050209aec:	fe042623          	sw	zero,-20(s0)
ffffffc050209af0:	04040793          	addi	a5,s0,64
ffffffc050209af4:	fcf43823          	sd	a5,-48(s0)
ffffffc050209af8:	fd043783          	ld	a5,-48(s0)
ffffffc050209afc:	fc878793          	addi	a5,a5,-56
ffffffc050209b00:	fef43023          	sd	a5,-32(s0)
ffffffc050209b04:	fe043783          	ld	a5,-32(s0)
ffffffc050209b08:	85be                	mv	a1,a5
ffffffc050209b0a:	fd843503          	ld	a0,-40(s0)
ffffffc050209b0e:	f91ff0ef          	jal	ra,ffffffc050209a9e <vprintv>
ffffffc050209b12:	87aa                	mv	a5,a0
ffffffc050209b14:	fef42623          	sw	a5,-20(s0)
ffffffc050209b18:	fec42783          	lw	a5,-20(s0)
ffffffc050209b1c:	853e                	mv	a0,a5
ffffffc050209b1e:	70a2                	ld	ra,40(sp)
ffffffc050209b20:	7402                	ld	s0,32(sp)
ffffffc050209b22:	6165                	addi	sp,sp,112
ffffffc050209b24:	8082                	ret

ffffffc050209b26 <vprintl>:
ffffffc050209b26:	1101                	addi	sp,sp,-32
ffffffc050209b28:	ec06                	sd	ra,24(sp)
ffffffc050209b2a:	e822                	sd	s0,16(sp)
ffffffc050209b2c:	1000                	addi	s0,sp,32
ffffffc050209b2e:	fea43423          	sd	a0,-24(s0)
ffffffc050209b32:	feb43023          	sd	a1,-32(s0)
ffffffc050209b36:	fffff617          	auipc	a2,0xfffff
ffffffc050209b3a:	77260613          	addi	a2,a2,1906 # ffffffc0502092a8 <bios_logging>
ffffffc050209b3e:	fe043583          	ld	a1,-32(s0)
ffffffc050209b42:	fe843503          	ld	a0,-24(s0)
ffffffc050209b46:	e4dff0ef          	jal	ra,ffffffc050209992 <_vprint>
ffffffc050209b4a:	87aa                	mv	a5,a0
ffffffc050209b4c:	853e                	mv	a0,a5
ffffffc050209b4e:	60e2                	ld	ra,24(sp)
ffffffc050209b50:	6442                	ld	s0,16(sp)
ffffffc050209b52:	6105                	addi	sp,sp,32
ffffffc050209b54:	8082                	ret

ffffffc050209b56 <printl>:
ffffffc050209b56:	7159                	addi	sp,sp,-112
ffffffc050209b58:	f406                	sd	ra,40(sp)
ffffffc050209b5a:	f022                	sd	s0,32(sp)
ffffffc050209b5c:	1800                	addi	s0,sp,48
ffffffc050209b5e:	fca43c23          	sd	a0,-40(s0)
ffffffc050209b62:	e40c                	sd	a1,8(s0)
ffffffc050209b64:	e810                	sd	a2,16(s0)
ffffffc050209b66:	ec14                	sd	a3,24(s0)
ffffffc050209b68:	f018                	sd	a4,32(s0)
ffffffc050209b6a:	f41c                	sd	a5,40(s0)
ffffffc050209b6c:	03043823          	sd	a6,48(s0)
ffffffc050209b70:	03143c23          	sd	a7,56(s0)
ffffffc050209b74:	fe042623          	sw	zero,-20(s0)
ffffffc050209b78:	04040793          	addi	a5,s0,64
ffffffc050209b7c:	fcf43823          	sd	a5,-48(s0)
ffffffc050209b80:	fd043783          	ld	a5,-48(s0)
ffffffc050209b84:	fc878793          	addi	a5,a5,-56
ffffffc050209b88:	fef43023          	sd	a5,-32(s0)
ffffffc050209b8c:	fe043783          	ld	a5,-32(s0)
ffffffc050209b90:	85be                	mv	a1,a5
ffffffc050209b92:	fd843503          	ld	a0,-40(s0)
ffffffc050209b96:	f91ff0ef          	jal	ra,ffffffc050209b26 <vprintl>
ffffffc050209b9a:	87aa                	mv	a5,a0
ffffffc050209b9c:	fef42623          	sw	a5,-20(s0)
ffffffc050209ba0:	fec42783          	lw	a5,-20(s0)
ffffffc050209ba4:	853e                	mv	a0,a5
ffffffc050209ba6:	70a2                	ld	ra,40(sp)
ffffffc050209ba8:	7402                	ld	s0,32(sp)
ffffffc050209baa:	6165                	addi	sp,sp,112
ffffffc050209bac:	8082                	ret

ffffffc050209bae <memcpy>:
ffffffc050209bae:	7179                	addi	sp,sp,-48
ffffffc050209bb0:	f422                	sd	s0,40(sp)
ffffffc050209bb2:	1800                	addi	s0,sp,48
ffffffc050209bb4:	fea43423          	sd	a0,-24(s0)
ffffffc050209bb8:	feb43023          	sd	a1,-32(s0)
ffffffc050209bbc:	87b2                	mv	a5,a2
ffffffc050209bbe:	fcf42e23          	sw	a5,-36(s0)
ffffffc050209bc2:	a035                	j	ffffffc050209bee <memcpy+0x40>
ffffffc050209bc4:	fe043703          	ld	a4,-32(s0)
ffffffc050209bc8:	00170793          	addi	a5,a4,1
ffffffc050209bcc:	fef43023          	sd	a5,-32(s0)
ffffffc050209bd0:	fe843783          	ld	a5,-24(s0)
ffffffc050209bd4:	00178693          	addi	a3,a5,1
ffffffc050209bd8:	fed43423          	sd	a3,-24(s0)
ffffffc050209bdc:	00074703          	lbu	a4,0(a4)
ffffffc050209be0:	00e78023          	sb	a4,0(a5)
ffffffc050209be4:	fdc42783          	lw	a5,-36(s0)
ffffffc050209be8:	37fd                	addiw	a5,a5,-1
ffffffc050209bea:	fcf42e23          	sw	a5,-36(s0)
ffffffc050209bee:	fdc42783          	lw	a5,-36(s0)
ffffffc050209bf2:	2781                	sext.w	a5,a5
ffffffc050209bf4:	fbe1                	bnez	a5,ffffffc050209bc4 <memcpy+0x16>
ffffffc050209bf6:	0001                	nop
ffffffc050209bf8:	0001                	nop
ffffffc050209bfa:	7422                	ld	s0,40(sp)
ffffffc050209bfc:	6145                	addi	sp,sp,48
ffffffc050209bfe:	8082                	ret

ffffffc050209c00 <memset>:
ffffffc050209c00:	7179                	addi	sp,sp,-48
ffffffc050209c02:	f422                	sd	s0,40(sp)
ffffffc050209c04:	1800                	addi	s0,sp,48
ffffffc050209c06:	fca43c23          	sd	a0,-40(s0)
ffffffc050209c0a:	87ae                	mv	a5,a1
ffffffc050209c0c:	8732                	mv	a4,a2
ffffffc050209c0e:	fcf40ba3          	sb	a5,-41(s0)
ffffffc050209c12:	87ba                	mv	a5,a4
ffffffc050209c14:	fcf42823          	sw	a5,-48(s0)
ffffffc050209c18:	fd843783          	ld	a5,-40(s0)
ffffffc050209c1c:	fef43423          	sd	a5,-24(s0)
ffffffc050209c20:	a005                	j	ffffffc050209c40 <memset+0x40>
ffffffc050209c22:	fe843783          	ld	a5,-24(s0)
ffffffc050209c26:	00178713          	addi	a4,a5,1
ffffffc050209c2a:	fee43423          	sd	a4,-24(s0)
ffffffc050209c2e:	fd744703          	lbu	a4,-41(s0)
ffffffc050209c32:	00e78023          	sb	a4,0(a5)
ffffffc050209c36:	fd042783          	lw	a5,-48(s0)
ffffffc050209c3a:	37fd                	addiw	a5,a5,-1
ffffffc050209c3c:	fcf42823          	sw	a5,-48(s0)
ffffffc050209c40:	fd042783          	lw	a5,-48(s0)
ffffffc050209c44:	2781                	sext.w	a5,a5
ffffffc050209c46:	fff1                	bnez	a5,ffffffc050209c22 <memset+0x22>
ffffffc050209c48:	0001                	nop
ffffffc050209c4a:	0001                	nop
ffffffc050209c4c:	7422                	ld	s0,40(sp)
ffffffc050209c4e:	6145                	addi	sp,sp,48
ffffffc050209c50:	8082                	ret

ffffffc050209c52 <bzero>:
ffffffc050209c52:	1101                	addi	sp,sp,-32
ffffffc050209c54:	ec06                	sd	ra,24(sp)
ffffffc050209c56:	e822                	sd	s0,16(sp)
ffffffc050209c58:	1000                	addi	s0,sp,32
ffffffc050209c5a:	fea43423          	sd	a0,-24(s0)
ffffffc050209c5e:	87ae                	mv	a5,a1
ffffffc050209c60:	fef42223          	sw	a5,-28(s0)
ffffffc050209c64:	fe442783          	lw	a5,-28(s0)
ffffffc050209c68:	863e                	mv	a2,a5
ffffffc050209c6a:	4581                	li	a1,0
ffffffc050209c6c:	fe843503          	ld	a0,-24(s0)
ffffffc050209c70:	f91ff0ef          	jal	ra,ffffffc050209c00 <memset>
ffffffc050209c74:	0001                	nop
ffffffc050209c76:	60e2                	ld	ra,24(sp)
ffffffc050209c78:	6442                	ld	s0,16(sp)
ffffffc050209c7a:	6105                	addi	sp,sp,32
ffffffc050209c7c:	8082                	ret

ffffffc050209c7e <strlen>:
ffffffc050209c7e:	7179                	addi	sp,sp,-48
ffffffc050209c80:	f422                	sd	s0,40(sp)
ffffffc050209c82:	1800                	addi	s0,sp,48
ffffffc050209c84:	fca43c23          	sd	a0,-40(s0)
ffffffc050209c88:	fe042623          	sw	zero,-20(s0)
ffffffc050209c8c:	a031                	j	ffffffc050209c98 <strlen+0x1a>
ffffffc050209c8e:	fec42783          	lw	a5,-20(s0)
ffffffc050209c92:	2785                	addiw	a5,a5,1
ffffffc050209c94:	fef42623          	sw	a5,-20(s0)
ffffffc050209c98:	fec42783          	lw	a5,-20(s0)
ffffffc050209c9c:	fd843703          	ld	a4,-40(s0)
ffffffc050209ca0:	97ba                	add	a5,a5,a4
ffffffc050209ca2:	0007c783          	lbu	a5,0(a5)
ffffffc050209ca6:	f7e5                	bnez	a5,ffffffc050209c8e <strlen+0x10>
ffffffc050209ca8:	fec42783          	lw	a5,-20(s0)
ffffffc050209cac:	853e                	mv	a0,a5
ffffffc050209cae:	7422                	ld	s0,40(sp)
ffffffc050209cb0:	6145                	addi	sp,sp,48
ffffffc050209cb2:	8082                	ret

ffffffc050209cb4 <strcmp>:
ffffffc050209cb4:	1101                	addi	sp,sp,-32
ffffffc050209cb6:	ec22                	sd	s0,24(sp)
ffffffc050209cb8:	1000                	addi	s0,sp,32
ffffffc050209cba:	fea43423          	sd	a0,-24(s0)
ffffffc050209cbe:	feb43023          	sd	a1,-32(s0)
ffffffc050209cc2:	a0a1                	j	ffffffc050209d0a <strcmp+0x56>
ffffffc050209cc4:	fe843783          	ld	a5,-24(s0)
ffffffc050209cc8:	0007c703          	lbu	a4,0(a5)
ffffffc050209ccc:	fe043783          	ld	a5,-32(s0)
ffffffc050209cd0:	0007c783          	lbu	a5,0(a5)
ffffffc050209cd4:	02f70163          	beq	a4,a5,ffffffc050209cf6 <strcmp+0x42>
ffffffc050209cd8:	fe843783          	ld	a5,-24(s0)
ffffffc050209cdc:	0007c783          	lbu	a5,0(a5)
ffffffc050209ce0:	0007871b          	sext.w	a4,a5
ffffffc050209ce4:	fe043783          	ld	a5,-32(s0)
ffffffc050209ce8:	0007c783          	lbu	a5,0(a5)
ffffffc050209cec:	2781                	sext.w	a5,a5
ffffffc050209cee:	40f707bb          	subw	a5,a4,a5
ffffffc050209cf2:	2781                	sext.w	a5,a5
ffffffc050209cf4:	a099                	j	ffffffc050209d3a <strcmp+0x86>
ffffffc050209cf6:	fe843783          	ld	a5,-24(s0)
ffffffc050209cfa:	0785                	addi	a5,a5,1
ffffffc050209cfc:	fef43423          	sd	a5,-24(s0)
ffffffc050209d00:	fe043783          	ld	a5,-32(s0)
ffffffc050209d04:	0785                	addi	a5,a5,1
ffffffc050209d06:	fef43023          	sd	a5,-32(s0)
ffffffc050209d0a:	fe843783          	ld	a5,-24(s0)
ffffffc050209d0e:	0007c783          	lbu	a5,0(a5)
ffffffc050209d12:	c791                	beqz	a5,ffffffc050209d1e <strcmp+0x6a>
ffffffc050209d14:	fe043783          	ld	a5,-32(s0)
ffffffc050209d18:	0007c783          	lbu	a5,0(a5)
ffffffc050209d1c:	f7c5                	bnez	a5,ffffffc050209cc4 <strcmp+0x10>
ffffffc050209d1e:	fe843783          	ld	a5,-24(s0)
ffffffc050209d22:	0007c783          	lbu	a5,0(a5)
ffffffc050209d26:	0007871b          	sext.w	a4,a5
ffffffc050209d2a:	fe043783          	ld	a5,-32(s0)
ffffffc050209d2e:	0007c783          	lbu	a5,0(a5)
ffffffc050209d32:	2781                	sext.w	a5,a5
ffffffc050209d34:	40f707bb          	subw	a5,a4,a5
ffffffc050209d38:	2781                	sext.w	a5,a5
ffffffc050209d3a:	853e                	mv	a0,a5
ffffffc050209d3c:	6462                	ld	s0,24(sp)
ffffffc050209d3e:	6105                	addi	sp,sp,32
ffffffc050209d40:	8082                	ret

ffffffc050209d42 <strncmp>:
ffffffc050209d42:	7179                	addi	sp,sp,-48
ffffffc050209d44:	f422                	sd	s0,40(sp)
ffffffc050209d46:	1800                	addi	s0,sp,48
ffffffc050209d48:	fea43423          	sd	a0,-24(s0)
ffffffc050209d4c:	feb43023          	sd	a1,-32(s0)
ffffffc050209d50:	87b2                	mv	a5,a2
ffffffc050209d52:	fcf42e23          	sw	a5,-36(s0)
ffffffc050209d56:	a0a1                	j	ffffffc050209d9e <strncmp+0x5c>
ffffffc050209d58:	fe843783          	ld	a5,-24(s0)
ffffffc050209d5c:	0007c703          	lbu	a4,0(a5)
ffffffc050209d60:	fe043783          	ld	a5,-32(s0)
ffffffc050209d64:	0007c783          	lbu	a5,0(a5)
ffffffc050209d68:	02f70163          	beq	a4,a5,ffffffc050209d8a <strncmp+0x48>
ffffffc050209d6c:	fe843783          	ld	a5,-24(s0)
ffffffc050209d70:	0007c783          	lbu	a5,0(a5)
ffffffc050209d74:	0007871b          	sext.w	a4,a5
ffffffc050209d78:	fe043783          	ld	a5,-32(s0)
ffffffc050209d7c:	0007c783          	lbu	a5,0(a5)
ffffffc050209d80:	2781                	sext.w	a5,a5
ffffffc050209d82:	40f707bb          	subw	a5,a4,a5
ffffffc050209d86:	2781                	sext.w	a5,a5
ffffffc050209d88:	a899                	j	ffffffc050209dde <strncmp+0x9c>
ffffffc050209d8a:	fe843783          	ld	a5,-24(s0)
ffffffc050209d8e:	0785                	addi	a5,a5,1
ffffffc050209d90:	fef43423          	sd	a5,-24(s0)
ffffffc050209d94:	fe043783          	ld	a5,-32(s0)
ffffffc050209d98:	0785                	addi	a5,a5,1
ffffffc050209d9a:	fef43023          	sd	a5,-32(s0)
ffffffc050209d9e:	fe843783          	ld	a5,-24(s0)
ffffffc050209da2:	0007c783          	lbu	a5,0(a5)
ffffffc050209da6:	cf91                	beqz	a5,ffffffc050209dc2 <strncmp+0x80>
ffffffc050209da8:	fe043783          	ld	a5,-32(s0)
ffffffc050209dac:	0007c783          	lbu	a5,0(a5)
ffffffc050209db0:	cb89                	beqz	a5,ffffffc050209dc2 <strncmp+0x80>
ffffffc050209db2:	fdc42783          	lw	a5,-36(s0)
ffffffc050209db6:	fff7871b          	addiw	a4,a5,-1
ffffffc050209dba:	fce42e23          	sw	a4,-36(s0)
ffffffc050209dbe:	f8f04de3          	bgtz	a5,ffffffc050209d58 <strncmp+0x16>
ffffffc050209dc2:	fe843783          	ld	a5,-24(s0)
ffffffc050209dc6:	0007c783          	lbu	a5,0(a5)
ffffffc050209dca:	0007871b          	sext.w	a4,a5
ffffffc050209dce:	fe043783          	ld	a5,-32(s0)
ffffffc050209dd2:	0007c783          	lbu	a5,0(a5)
ffffffc050209dd6:	2781                	sext.w	a5,a5
ffffffc050209dd8:	40f707bb          	subw	a5,a4,a5
ffffffc050209ddc:	2781                	sext.w	a5,a5
ffffffc050209dde:	853e                	mv	a0,a5
ffffffc050209de0:	7422                	ld	s0,40(sp)
ffffffc050209de2:	6145                	addi	sp,sp,48
ffffffc050209de4:	8082                	ret

ffffffc050209de6 <strcpy>:
ffffffc050209de6:	7179                	addi	sp,sp,-48
ffffffc050209de8:	f422                	sd	s0,40(sp)
ffffffc050209dea:	1800                	addi	s0,sp,48
ffffffc050209dec:	fca43c23          	sd	a0,-40(s0)
ffffffc050209df0:	fcb43823          	sd	a1,-48(s0)
ffffffc050209df4:	fd843783          	ld	a5,-40(s0)
ffffffc050209df8:	fef43423          	sd	a5,-24(s0)
ffffffc050209dfc:	a00d                	j	ffffffc050209e1e <strcpy+0x38>
ffffffc050209dfe:	fd043703          	ld	a4,-48(s0)
ffffffc050209e02:	00170793          	addi	a5,a4,1
ffffffc050209e06:	fcf43823          	sd	a5,-48(s0)
ffffffc050209e0a:	fd843783          	ld	a5,-40(s0)
ffffffc050209e0e:	00178693          	addi	a3,a5,1
ffffffc050209e12:	fcd43c23          	sd	a3,-40(s0)
ffffffc050209e16:	00074703          	lbu	a4,0(a4)
ffffffc050209e1a:	00e78023          	sb	a4,0(a5)
ffffffc050209e1e:	fd043783          	ld	a5,-48(s0)
ffffffc050209e22:	0007c783          	lbu	a5,0(a5)
ffffffc050209e26:	ffe1                	bnez	a5,ffffffc050209dfe <strcpy+0x18>
ffffffc050209e28:	fd843783          	ld	a5,-40(s0)
ffffffc050209e2c:	00078023          	sb	zero,0(a5)
ffffffc050209e30:	fe843783          	ld	a5,-24(s0)
ffffffc050209e34:	853e                	mv	a0,a5
ffffffc050209e36:	7422                	ld	s0,40(sp)
ffffffc050209e38:	6145                	addi	sp,sp,48
ffffffc050209e3a:	8082                	ret

ffffffc050209e3c <strncpy>:
ffffffc050209e3c:	7139                	addi	sp,sp,-64
ffffffc050209e3e:	fc22                	sd	s0,56(sp)
ffffffc050209e40:	0080                	addi	s0,sp,64
ffffffc050209e42:	fca43c23          	sd	a0,-40(s0)
ffffffc050209e46:	fcb43823          	sd	a1,-48(s0)
ffffffc050209e4a:	87b2                	mv	a5,a2
ffffffc050209e4c:	fcf42623          	sw	a5,-52(s0)
ffffffc050209e50:	fd843783          	ld	a5,-40(s0)
ffffffc050209e54:	fef43423          	sd	a5,-24(s0)
ffffffc050209e58:	a00d                	j	ffffffc050209e7a <strncpy+0x3e>
ffffffc050209e5a:	fd043703          	ld	a4,-48(s0)
ffffffc050209e5e:	00170793          	addi	a5,a4,1
ffffffc050209e62:	fcf43823          	sd	a5,-48(s0)
ffffffc050209e66:	fd843783          	ld	a5,-40(s0)
ffffffc050209e6a:	00178693          	addi	a3,a5,1
ffffffc050209e6e:	fcd43c23          	sd	a3,-40(s0)
ffffffc050209e72:	00074703          	lbu	a4,0(a4)
ffffffc050209e76:	00e78023          	sb	a4,0(a5)
ffffffc050209e7a:	fd043783          	ld	a5,-48(s0)
ffffffc050209e7e:	0007c783          	lbu	a5,0(a5)
ffffffc050209e82:	c395                	beqz	a5,ffffffc050209ea6 <strncpy+0x6a>
ffffffc050209e84:	fcc42783          	lw	a5,-52(s0)
ffffffc050209e88:	fff7871b          	addiw	a4,a5,-1
ffffffc050209e8c:	fce42623          	sw	a4,-52(s0)
ffffffc050209e90:	fcf045e3          	bgtz	a5,ffffffc050209e5a <strncpy+0x1e>
ffffffc050209e94:	a809                	j	ffffffc050209ea6 <strncpy+0x6a>
ffffffc050209e96:	fd843783          	ld	a5,-40(s0)
ffffffc050209e9a:	00178713          	addi	a4,a5,1
ffffffc050209e9e:	fce43c23          	sd	a4,-40(s0)
ffffffc050209ea2:	00078023          	sb	zero,0(a5)
ffffffc050209ea6:	fcc42783          	lw	a5,-52(s0)
ffffffc050209eaa:	fff7871b          	addiw	a4,a5,-1
ffffffc050209eae:	fce42623          	sw	a4,-52(s0)
ffffffc050209eb2:	fef042e3          	bgtz	a5,ffffffc050209e96 <strncpy+0x5a>
ffffffc050209eb6:	fe843783          	ld	a5,-24(s0)
ffffffc050209eba:	853e                	mv	a0,a5
ffffffc050209ebc:	7462                	ld	s0,56(sp)
ffffffc050209ebe:	6121                	addi	sp,sp,64
ffffffc050209ec0:	8082                	ret

ffffffc050209ec2 <strcat>:
ffffffc050209ec2:	7179                	addi	sp,sp,-48
ffffffc050209ec4:	f422                	sd	s0,40(sp)
ffffffc050209ec6:	1800                	addi	s0,sp,48
ffffffc050209ec8:	fca43c23          	sd	a0,-40(s0)
ffffffc050209ecc:	fcb43823          	sd	a1,-48(s0)
ffffffc050209ed0:	fd843783          	ld	a5,-40(s0)
ffffffc050209ed4:	fef43423          	sd	a5,-24(s0)
ffffffc050209ed8:	a031                	j	ffffffc050209ee4 <strcat+0x22>
ffffffc050209eda:	fd843783          	ld	a5,-40(s0)
ffffffc050209ede:	0785                	addi	a5,a5,1
ffffffc050209ee0:	fcf43c23          	sd	a5,-40(s0)
ffffffc050209ee4:	fd843783          	ld	a5,-40(s0)
ffffffc050209ee8:	0007c783          	lbu	a5,0(a5)
ffffffc050209eec:	f7fd                	bnez	a5,ffffffc050209eda <strcat+0x18>
ffffffc050209eee:	a00d                	j	ffffffc050209f10 <strcat+0x4e>
ffffffc050209ef0:	fd043703          	ld	a4,-48(s0)
ffffffc050209ef4:	00170793          	addi	a5,a4,1
ffffffc050209ef8:	fcf43823          	sd	a5,-48(s0)
ffffffc050209efc:	fd843783          	ld	a5,-40(s0)
ffffffc050209f00:	00178693          	addi	a3,a5,1
ffffffc050209f04:	fcd43c23          	sd	a3,-40(s0)
ffffffc050209f08:	00074703          	lbu	a4,0(a4)
ffffffc050209f0c:	00e78023          	sb	a4,0(a5)
ffffffc050209f10:	fd043783          	ld	a5,-48(s0)
ffffffc050209f14:	0007c783          	lbu	a5,0(a5)
ffffffc050209f18:	ffe1                	bnez	a5,ffffffc050209ef0 <strcat+0x2e>
ffffffc050209f1a:	fd843783          	ld	a5,-40(s0)
ffffffc050209f1e:	00078023          	sb	zero,0(a5)
ffffffc050209f22:	fe843783          	ld	a5,-24(s0)
ffffffc050209f26:	853e                	mv	a0,a5
ffffffc050209f28:	7422                	ld	s0,40(sp)
ffffffc050209f2a:	6145                	addi	sp,sp,48
ffffffc050209f2c:	8082                	ret
