
build/2048:     file format elf64-littleriscv


Disassembly of section .text:

0000000052030000 <_start>:
    52030000:	1161                	addi	sp,sp,-8
    52030002:	e006                	sd	ra,0(sp)
    52030004:	00001417          	auipc	s0,0x1
    52030008:	6fc40413          	addi	s0,s0,1788 # 52031700 <__BSS_END__>
    5203000c:	00001497          	auipc	s1,0x1
    52030010:	6f448493          	addi	s1,s1,1780 # 52031700 <__BSS_END__>
    52030014:	4901                	li	s2,0

0000000052030016 <bss_clear_loop>:
    52030016:	01242023          	sw	s2,0(s0)
    5203001a:	0405                	addi	s0,s0,1
    5203001c:	fe944de3          	blt	s0,s1,52030016 <bss_clear_loop>

0000000052030020 <bss_clear_end>:
    52030020:	33a010ef          	jal	ra,5203135a <main>

0000000052030024 <ret_kernel>:
    52030024:	6082                	ld	ra,0(sp)
    52030026:	0121                	addi	sp,sp,8
    52030028:	8082                	ret

000000005203002a <loop>:
    5203002a:	10500073          	wfi
    5203002e:	bff5                	j	5203002a <loop>
	...

0000000052030032 <call_jmptab>:
    52030032:	7139                	addi	sp,sp,-64
    52030034:	fc06                	sd	ra,56(sp)
    52030036:	f822                	sd	s0,48(sp)
    52030038:	0080                	addi	s0,sp,64
    5203003a:	fca43c23          	sd	a0,-40(s0)
    5203003e:	fcb43823          	sd	a1,-48(s0)
    52030042:	fcc43423          	sd	a2,-56(s0)
    52030046:	fcd43023          	sd	a3,-64(s0)
    5203004a:	fd843703          	ld	a4,-40(s0)
    5203004e:	0a4007b7          	lui	a5,0xa400
    52030052:	1781                	addi	a5,a5,-32
    52030054:	97ba                	add	a5,a5,a4
    52030056:	078e                	slli	a5,a5,0x3
    52030058:	639c                	ld	a5,0(a5)
    5203005a:	fef43423          	sd	a5,-24(s0)
    5203005e:	fe843783          	ld	a5,-24(s0)
    52030062:	fef43023          	sd	a5,-32(s0)
    52030066:	fe043783          	ld	a5,-32(s0)
    5203006a:	fc043603          	ld	a2,-64(s0)
    5203006e:	fc843583          	ld	a1,-56(s0)
    52030072:	fd043503          	ld	a0,-48(s0)
    52030076:	9782                	jalr	a5
    52030078:	87aa                	mv	a5,a0
    5203007a:	853e                	mv	a0,a5
    5203007c:	70e2                	ld	ra,56(sp)
    5203007e:	7442                	ld	s0,48(sp)
    52030080:	6121                	addi	sp,sp,64
    52030082:	8082                	ret

0000000052030084 <bios_putstr>:
    52030084:	1101                	addi	sp,sp,-32
    52030086:	ec06                	sd	ra,24(sp)
    52030088:	e822                	sd	s0,16(sp)
    5203008a:	1000                	addi	s0,sp,32
    5203008c:	fea43423          	sd	a0,-24(s0)
    52030090:	fe843783          	ld	a5,-24(s0)
    52030094:	4681                	li	a3,0
    52030096:	4601                	li	a2,0
    52030098:	85be                	mv	a1,a5
    5203009a:	4501                	li	a0,0
    5203009c:	f97ff0ef          	jal	ra,52030032 <call_jmptab>
    520300a0:	0001                	nop
    520300a2:	60e2                	ld	ra,24(sp)
    520300a4:	6442                	ld	s0,16(sp)
    520300a6:	6105                	addi	sp,sp,32
    520300a8:	8082                	ret

00000000520300aa <bios_getchar>:
    520300aa:	1141                	addi	sp,sp,-16
    520300ac:	e406                	sd	ra,8(sp)
    520300ae:	e022                	sd	s0,0(sp)
    520300b0:	0800                	addi	s0,sp,16
    520300b2:	4681                	li	a3,0
    520300b4:	4601                	li	a2,0
    520300b6:	4581                	li	a1,0
    520300b8:	4509                	li	a0,2
    520300ba:	f79ff0ef          	jal	ra,52030032 <call_jmptab>
    520300be:	87aa                	mv	a5,a0
    520300c0:	2781                	sext.w	a5,a5
    520300c2:	853e                	mv	a0,a5
    520300c4:	60a2                	ld	ra,8(sp)
    520300c6:	6402                	ld	s0,0(sp)
    520300c8:	0141                	addi	sp,sp,16
    520300ca:	8082                	ret

00000000520300cc <simple_itoa>:
    520300cc:	715d                	addi	sp,sp,-80
    520300ce:	e4a2                	sd	s0,72(sp)
    520300d0:	0880                	addi	s0,sp,80
    520300d2:	fca43423          	sd	a0,-56(s0)
    520300d6:	fae43823          	sd	a4,-80(s0)
    520300da:	873e                	mv	a4,a5
    520300dc:	87ae                	mv	a5,a1
    520300de:	fcf42223          	sw	a5,-60(s0)
    520300e2:	87b2                	mv	a5,a2
    520300e4:	fcf42023          	sw	a5,-64(s0)
    520300e8:	87b6                	mv	a5,a3
    520300ea:	faf42e23          	sw	a5,-68(s0)
    520300ee:	87ba                	mv	a5,a4
    520300f0:	faf42c23          	sw	a5,-72(s0)
    520300f4:	fb043783          	ld	a5,-80(s0)
    520300f8:	fef43423          	sd	a5,-24(s0)
    520300fc:	fe042223          	sw	zero,-28(s0)
    52030100:	fc442783          	lw	a5,-60(s0)
    52030104:	0007871b          	sext.w	a4,a5
    52030108:	47c1                	li	a5,16
    5203010a:	00e7f463          	bgeu	a5,a4,52030112 <simple_itoa+0x46>
    5203010e:	4781                	li	a5,0
    52030110:	a255                	j	520302b4 <simple_itoa+0x1e8>
    52030112:	fc843783          	ld	a5,-56(s0)
    52030116:	0007df63          	bgez	a5,52030134 <simple_itoa+0x68>
    5203011a:	fbc42783          	lw	a5,-68(s0)
    5203011e:	2781                	sext.w	a5,a5
    52030120:	eb91                	bnez	a5,52030134 <simple_itoa+0x68>
    52030122:	4785                	li	a5,1
    52030124:	fef42223          	sw	a5,-28(s0)
    52030128:	fc843783          	ld	a5,-56(s0)
    5203012c:	40f007b3          	neg	a5,a5
    52030130:	fcf43423          	sd	a5,-56(s0)
    52030134:	fc446783          	lwu	a5,-60(s0)
    52030138:	fc843703          	ld	a4,-56(s0)
    5203013c:	02f767b3          	rem	a5,a4,a5
    52030140:	fcf42e23          	sw	a5,-36(s0)
    52030144:	fdc42783          	lw	a5,-36(s0)
    52030148:	0007871b          	sext.w	a4,a5
    5203014c:	47a5                	li	a5,9
    5203014e:	00e7cb63          	blt	a5,a4,52030164 <simple_itoa+0x98>
    52030152:	fdc42783          	lw	a5,-36(s0)
    52030156:	0ff7f793          	andi	a5,a5,255
    5203015a:	0307879b          	addiw	a5,a5,48
    5203015e:	0ff7f713          	andi	a4,a5,255
    52030162:	a025                	j	5203018a <simple_itoa+0xbe>
    52030164:	fc042783          	lw	a5,-64(s0)
    52030168:	2781                	sext.w	a5,a5
    5203016a:	c781                	beqz	a5,52030172 <simple_itoa+0xa6>
    5203016c:	04100793          	li	a5,65
    52030170:	a019                	j	52030176 <simple_itoa+0xaa>
    52030172:	06100793          	li	a5,97
    52030176:	fdc42703          	lw	a4,-36(s0)
    5203017a:	0ff77713          	andi	a4,a4,255
    5203017e:	9fb9                	addw	a5,a5,a4
    52030180:	0ff7f793          	andi	a5,a5,255
    52030184:	37d9                	addiw	a5,a5,-10
    52030186:	0ff7f713          	andi	a4,a5,255
    5203018a:	fe843783          	ld	a5,-24(s0)
    5203018e:	00178693          	addi	a3,a5,1 # a400001 <TEXT_START-0x47c2ffff>
    52030192:	fed43423          	sd	a3,-24(s0)
    52030196:	00e78023          	sb	a4,0(a5)
    5203019a:	fc446783          	lwu	a5,-60(s0)
    5203019e:	fc843703          	ld	a4,-56(s0)
    520301a2:	02f747b3          	div	a5,a4,a5
    520301a6:	fcf43423          	sd	a5,-56(s0)
    520301aa:	fc843783          	ld	a5,-56(s0)
    520301ae:	f8f043e3          	bgtz	a5,52030134 <simple_itoa+0x68>
    520301b2:	fe843703          	ld	a4,-24(s0)
    520301b6:	fb043783          	ld	a5,-80(s0)
    520301ba:	40f707b3          	sub	a5,a4,a5
    520301be:	fef42023          	sw	a5,-32(s0)
    520301c2:	a005                	j	520301e2 <simple_itoa+0x116>
    520301c4:	fe843783          	ld	a5,-24(s0)
    520301c8:	00178713          	addi	a4,a5,1
    520301cc:	fee43423          	sd	a4,-24(s0)
    520301d0:	03000713          	li	a4,48
    520301d4:	00e78023          	sb	a4,0(a5)
    520301d8:	fe042783          	lw	a5,-32(s0)
    520301dc:	2785                	addiw	a5,a5,1
    520301de:	fef42023          	sw	a5,-32(s0)
    520301e2:	fe042703          	lw	a4,-32(s0)
    520301e6:	fb842783          	lw	a5,-72(s0)
    520301ea:	2701                	sext.w	a4,a4
    520301ec:	2781                	sext.w	a5,a5
    520301ee:	fcf76be3          	bltu	a4,a5,520301c4 <simple_itoa+0xf8>
    520301f2:	fe442783          	lw	a5,-28(s0)
    520301f6:	2781                	sext.w	a5,a5
    520301f8:	cb99                	beqz	a5,5203020e <simple_itoa+0x142>
    520301fa:	fe843783          	ld	a5,-24(s0)
    520301fe:	00178713          	addi	a4,a5,1
    52030202:	fee43423          	sd	a4,-24(s0)
    52030206:	02d00713          	li	a4,45
    5203020a:	00e78023          	sb	a4,0(a5)
    5203020e:	fe843783          	ld	a5,-24(s0)
    52030212:	00078023          	sb	zero,0(a5)
    52030216:	fe843703          	ld	a4,-24(s0)
    5203021a:	fb043783          	ld	a5,-80(s0)
    5203021e:	40f707b3          	sub	a5,a4,a5
    52030222:	fcf42c23          	sw	a5,-40(s0)
    52030226:	fe042023          	sw	zero,-32(s0)
    5203022a:	a885                	j	5203029a <simple_itoa+0x1ce>
    5203022c:	fe046783          	lwu	a5,-32(s0)
    52030230:	fb043703          	ld	a4,-80(s0)
    52030234:	97ba                	add	a5,a5,a4
    52030236:	0007c783          	lbu	a5,0(a5)
    5203023a:	fcf40ba3          	sb	a5,-41(s0)
    5203023e:	fd842703          	lw	a4,-40(s0)
    52030242:	fe042783          	lw	a5,-32(s0)
    52030246:	40f707bb          	subw	a5,a4,a5
    5203024a:	2781                	sext.w	a5,a5
    5203024c:	37fd                	addiw	a5,a5,-1
    5203024e:	2781                	sext.w	a5,a5
    52030250:	1782                	slli	a5,a5,0x20
    52030252:	9381                	srli	a5,a5,0x20
    52030254:	fb043703          	ld	a4,-80(s0)
    52030258:	973e                	add	a4,a4,a5
    5203025a:	fe046783          	lwu	a5,-32(s0)
    5203025e:	fb043683          	ld	a3,-80(s0)
    52030262:	97b6                	add	a5,a5,a3
    52030264:	00074703          	lbu	a4,0(a4)
    52030268:	00e78023          	sb	a4,0(a5)
    5203026c:	fd842703          	lw	a4,-40(s0)
    52030270:	fe042783          	lw	a5,-32(s0)
    52030274:	40f707bb          	subw	a5,a4,a5
    52030278:	2781                	sext.w	a5,a5
    5203027a:	37fd                	addiw	a5,a5,-1
    5203027c:	2781                	sext.w	a5,a5
    5203027e:	1782                	slli	a5,a5,0x20
    52030280:	9381                	srli	a5,a5,0x20
    52030282:	fb043703          	ld	a4,-80(s0)
    52030286:	97ba                	add	a5,a5,a4
    52030288:	fd744703          	lbu	a4,-41(s0)
    5203028c:	00e78023          	sb	a4,0(a5)
    52030290:	fe042783          	lw	a5,-32(s0)
    52030294:	2785                	addiw	a5,a5,1
    52030296:	fef42023          	sw	a5,-32(s0)
    5203029a:	fd842783          	lw	a5,-40(s0)
    5203029e:	0017d79b          	srliw	a5,a5,0x1
    520302a2:	0007871b          	sext.w	a4,a5
    520302a6:	fe042783          	lw	a5,-32(s0)
    520302aa:	2781                	sext.w	a5,a5
    520302ac:	f8e7e0e3          	bltu	a5,a4,5203022c <simple_itoa+0x160>
    520302b0:	fd842783          	lw	a5,-40(s0)
    520302b4:	853e                	mv	a0,a5
    520302b6:	6426                	ld	s0,72(sp)
    520302b8:	6161                	addi	sp,sp,80
    520302ba:	8082                	ret

00000000520302bc <print_value>:
    520302bc:	711d                	addi	sp,sp,-96
    520302be:	ec86                	sd	ra,88(sp)
    520302c0:	e8a2                	sd	s0,80(sp)
    520302c2:	1080                	addi	s0,sp,96
    520302c4:	faa43423          	sd	a0,-88(s0)
    520302c8:	fb840713          	addi	a4,s0,-72
    520302cc:	4781                	li	a5,0
    520302ce:	4681                	li	a3,0
    520302d0:	4601                	li	a2,0
    520302d2:	45a9                	li	a1,10
    520302d4:	fa843503          	ld	a0,-88(s0)
    520302d8:	df5ff0ef          	jal	ra,520300cc <simple_itoa>
    520302dc:	fb840793          	addi	a5,s0,-72
    520302e0:	853e                	mv	a0,a5
    520302e2:	da3ff0ef          	jal	ra,52030084 <bios_putstr>
    520302e6:	0001                	nop
    520302e8:	60e6                	ld	ra,88(sp)
    520302ea:	6446                	ld	s0,80(sp)
    520302ec:	6125                	addi	sp,sp,96
    520302ee:	8082                	ret

00000000520302f0 <clear>:
    520302f0:	1141                	addi	sp,sp,-16
    520302f2:	e406                	sd	ra,8(sp)
    520302f4:	e022                	sd	s0,0(sp)
    520302f6:	0800                	addi	s0,sp,16
    520302f8:	00001517          	auipc	a0,0x1
    520302fc:	19050513          	addi	a0,a0,400 # 52031488 <main+0x12e>
    52030300:	d85ff0ef          	jal	ra,52030084 <bios_putstr>
    52030304:	0001                	nop
    52030306:	60a2                	ld	ra,8(sp)
    52030308:	6402                	ld	s0,0(sp)
    5203030a:	0141                	addi	sp,sp,16
    5203030c:	8082                	ret

000000005203030e <getchar>:
    5203030e:	1101                	addi	sp,sp,-32
    52030310:	ec06                	sd	ra,24(sp)
    52030312:	e822                	sd	s0,16(sp)
    52030314:	1000                	addi	s0,sp,32
    52030316:	57fd                	li	a5,-1
    52030318:	fef42623          	sw	a5,-20(s0)
    5203031c:	a031                	j	52030328 <getchar+0x1a>
    5203031e:	d8dff0ef          	jal	ra,520300aa <bios_getchar>
    52030322:	87aa                	mv	a5,a0
    52030324:	fef42623          	sw	a5,-20(s0)
    52030328:	fec42783          	lw	a5,-20(s0)
    5203032c:	0007871b          	sext.w	a4,a5
    52030330:	57fd                	li	a5,-1
    52030332:	fef706e3          	beq	a4,a5,5203031e <getchar+0x10>
    52030336:	fec42783          	lw	a5,-20(s0)
    5203033a:	853e                	mv	a0,a5
    5203033c:	60e2                	ld	ra,24(sp)
    5203033e:	6442                	ld	s0,16(sp)
    52030340:	6105                	addi	sp,sp,32
    52030342:	8082                	ret

0000000052030344 <rand>:
    52030344:	1141                	addi	sp,sp,-16
    52030346:	e422                	sd	s0,8(sp)
    52030348:	0800                	addi	s0,sp,16
    5203034a:	00001797          	auipc	a5,0x1
    5203034e:	3b278793          	addi	a5,a5,946 # 520316fc <__DATA_BEGIN__>
    52030352:	4398                	lw	a4,0(a5)
    52030354:	41c657b7          	lui	a5,0x41c65
    52030358:	e6d7879b          	addiw	a5,a5,-403
    5203035c:	02f707bb          	mulw	a5,a4,a5
    52030360:	0007871b          	sext.w	a4,a5
    52030364:	678d                	lui	a5,0x3
    52030366:	0397879b          	addiw	a5,a5,57
    5203036a:	9fb9                	addw	a5,a5,a4
    5203036c:	0007871b          	sext.w	a4,a5
    52030370:	800007b7          	lui	a5,0x80000
    52030374:	fff7c793          	not	a5,a5
    52030378:	8ff9                	and	a5,a5,a4
    5203037a:	2781                	sext.w	a5,a5
    5203037c:	853e                	mv	a0,a5
    5203037e:	6422                	ld	s0,8(sp)
    52030380:	0141                	addi	sp,sp,16
    52030382:	8082                	ret

0000000052030384 <nSpaces>:
    52030384:	1101                	addi	sp,sp,-32
    52030386:	ec22                	sd	s0,24(sp)
    52030388:	1000                	addi	s0,sp,32
    5203038a:	87aa                	mv	a5,a0
    5203038c:	fef42623          	sw	a5,-20(s0)
    52030390:	fec42783          	lw	a5,-20(s0)
    52030394:	0007871b          	sext.w	a4,a5
    52030398:	47a5                	li	a5,9
    5203039a:	00e7c463          	blt	a5,a4,520303a2 <nSpaces+0x1e>
    5203039e:	479d                	li	a5,7
    520303a0:	a089                	j	520303e2 <nSpaces+0x5e>
    520303a2:	fec42783          	lw	a5,-20(s0)
    520303a6:	0007871b          	sext.w	a4,a5
    520303aa:	06300793          	li	a5,99
    520303ae:	00e7c463          	blt	a5,a4,520303b6 <nSpaces+0x32>
    520303b2:	4799                	li	a5,6
    520303b4:	a03d                	j	520303e2 <nSpaces+0x5e>
    520303b6:	fec42783          	lw	a5,-20(s0)
    520303ba:	0007871b          	sext.w	a4,a5
    520303be:	3e700793          	li	a5,999
    520303c2:	00e7c463          	blt	a5,a4,520303ca <nSpaces+0x46>
    520303c6:	4795                	li	a5,5
    520303c8:	a829                	j	520303e2 <nSpaces+0x5e>
    520303ca:	fec42783          	lw	a5,-20(s0)
    520303ce:	0007871b          	sext.w	a4,a5
    520303d2:	6789                	lui	a5,0x2
    520303d4:	70f78793          	addi	a5,a5,1807 # 270f <TEXT_START-0x5202d8f1>
    520303d8:	00e7c463          	blt	a5,a4,520303e0 <nSpaces+0x5c>
    520303dc:	4791                	li	a5,4
    520303de:	a011                	j	520303e2 <nSpaces+0x5e>
    520303e0:	4781                	li	a5,0
    520303e2:	853e                	mv	a0,a5
    520303e4:	6462                	ld	s0,24(sp)
    520303e6:	6105                	addi	sp,sp,32
    520303e8:	8082                	ret

00000000520303ea <printSpaces>:
    520303ea:	7179                	addi	sp,sp,-48
    520303ec:	f406                	sd	ra,40(sp)
    520303ee:	f022                	sd	s0,32(sp)
    520303f0:	1800                	addi	s0,sp,48
    520303f2:	87aa                	mv	a5,a0
    520303f4:	fcf42e23          	sw	a5,-36(s0)
    520303f8:	fe042623          	sw	zero,-20(s0)
    520303fc:	a821                	j	52030414 <printSpaces+0x2a>
    520303fe:	00001517          	auipc	a0,0x1
    52030402:	09250513          	addi	a0,a0,146 # 52031490 <main+0x136>
    52030406:	c7fff0ef          	jal	ra,52030084 <bios_putstr>
    5203040a:	fec42783          	lw	a5,-20(s0)
    5203040e:	2785                	addiw	a5,a5,1
    52030410:	fef42623          	sw	a5,-20(s0)
    52030414:	fec42703          	lw	a4,-20(s0)
    52030418:	fdc42783          	lw	a5,-36(s0)
    5203041c:	2701                	sext.w	a4,a4
    5203041e:	2781                	sext.w	a5,a5
    52030420:	fcf74fe3          	blt	a4,a5,520303fe <printSpaces+0x14>
    52030424:	0001                	nop
    52030426:	0001                	nop
    52030428:	70a2                	ld	ra,40(sp)
    5203042a:	7402                	ld	s0,32(sp)
    5203042c:	6145                	addi	sp,sp,48
    5203042e:	8082                	ret

0000000052030430 <pickColor>:
    52030430:	1101                	addi	sp,sp,-32
    52030432:	ec06                	sd	ra,24(sp)
    52030434:	e822                	sd	s0,16(sp)
    52030436:	1000                	addi	s0,sp,32
    52030438:	87aa                	mv	a5,a0
    5203043a:	fef42623          	sw	a5,-20(s0)
    5203043e:	fec42783          	lw	a5,-20(s0)
    52030442:	0007871b          	sext.w	a4,a5
    52030446:	57fd                	li	a5,-1
    52030448:	00f71863          	bne	a4,a5,52030458 <pickColor+0x28>
    5203044c:	00001517          	auipc	a0,0x1
    52030450:	04c50513          	addi	a0,a0,76 # 52031498 <main+0x13e>
    52030454:	c31ff0ef          	jal	ra,52030084 <bios_putstr>
    52030458:	fec42783          	lw	a5,-20(s0)
    5203045c:	2781                	sext.w	a5,a5
    5203045e:	e799                	bnez	a5,5203046c <pickColor+0x3c>
    52030460:	00001517          	auipc	a0,0x1
    52030464:	04850513          	addi	a0,a0,72 # 520314a8 <main+0x14e>
    52030468:	c1dff0ef          	jal	ra,52030084 <bios_putstr>
    5203046c:	fec42783          	lw	a5,-20(s0)
    52030470:	0007871b          	sext.w	a4,a5
    52030474:	4789                	li	a5,2
    52030476:	00f71863          	bne	a4,a5,52030486 <pickColor+0x56>
    5203047a:	00001517          	auipc	a0,0x1
    5203047e:	03650513          	addi	a0,a0,54 # 520314b0 <main+0x156>
    52030482:	c03ff0ef          	jal	ra,52030084 <bios_putstr>
    52030486:	fec42783          	lw	a5,-20(s0)
    5203048a:	0007871b          	sext.w	a4,a5
    5203048e:	4791                	li	a5,4
    52030490:	00f71863          	bne	a4,a5,520304a0 <pickColor+0x70>
    52030494:	00001517          	auipc	a0,0x1
    52030498:	02c50513          	addi	a0,a0,44 # 520314c0 <main+0x166>
    5203049c:	be9ff0ef          	jal	ra,52030084 <bios_putstr>
    520304a0:	fec42783          	lw	a5,-20(s0)
    520304a4:	0007871b          	sext.w	a4,a5
    520304a8:	47a1                	li	a5,8
    520304aa:	00f71863          	bne	a4,a5,520304ba <pickColor+0x8a>
    520304ae:	00001517          	auipc	a0,0x1
    520304b2:	02250513          	addi	a0,a0,34 # 520314d0 <main+0x176>
    520304b6:	bcfff0ef          	jal	ra,52030084 <bios_putstr>
    520304ba:	fec42783          	lw	a5,-20(s0)
    520304be:	0007871b          	sext.w	a4,a5
    520304c2:	47c1                	li	a5,16
    520304c4:	00f71863          	bne	a4,a5,520304d4 <pickColor+0xa4>
    520304c8:	00001517          	auipc	a0,0x1
    520304cc:	01850513          	addi	a0,a0,24 # 520314e0 <main+0x186>
    520304d0:	bb5ff0ef          	jal	ra,52030084 <bios_putstr>
    520304d4:	fec42783          	lw	a5,-20(s0)
    520304d8:	0007871b          	sext.w	a4,a5
    520304dc:	02000793          	li	a5,32
    520304e0:	00f71863          	bne	a4,a5,520304f0 <pickColor+0xc0>
    520304e4:	00001517          	auipc	a0,0x1
    520304e8:	00c50513          	addi	a0,a0,12 # 520314f0 <main+0x196>
    520304ec:	b99ff0ef          	jal	ra,52030084 <bios_putstr>
    520304f0:	fec42783          	lw	a5,-20(s0)
    520304f4:	0007871b          	sext.w	a4,a5
    520304f8:	04000793          	li	a5,64
    520304fc:	00f71863          	bne	a4,a5,5203050c <pickColor+0xdc>
    52030500:	00001517          	auipc	a0,0x1
    52030504:	00050513          	mv	a0,a0
    52030508:	b7dff0ef          	jal	ra,52030084 <bios_putstr>
    5203050c:	fec42783          	lw	a5,-20(s0)
    52030510:	0007871b          	sext.w	a4,a5
    52030514:	08000793          	li	a5,128
    52030518:	00f71863          	bne	a4,a5,52030528 <pickColor+0xf8>
    5203051c:	00001517          	auipc	a0,0x1
    52030520:	ff450513          	addi	a0,a0,-12 # 52031510 <main+0x1b6>
    52030524:	b61ff0ef          	jal	ra,52030084 <bios_putstr>
    52030528:	fec42783          	lw	a5,-20(s0)
    5203052c:	0007871b          	sext.w	a4,a5
    52030530:	10000793          	li	a5,256
    52030534:	00f71863          	bne	a4,a5,52030544 <pickColor+0x114>
    52030538:	00001517          	auipc	a0,0x1
    5203053c:	fe850513          	addi	a0,a0,-24 # 52031520 <main+0x1c6>
    52030540:	b45ff0ef          	jal	ra,52030084 <bios_putstr>
    52030544:	fec42783          	lw	a5,-20(s0)
    52030548:	0007871b          	sext.w	a4,a5
    5203054c:	20000793          	li	a5,512
    52030550:	00f71863          	bne	a4,a5,52030560 <pickColor+0x130>
    52030554:	00001517          	auipc	a0,0x1
    52030558:	fdc50513          	addi	a0,a0,-36 # 52031530 <main+0x1d6>
    5203055c:	b29ff0ef          	jal	ra,52030084 <bios_putstr>
    52030560:	fec42783          	lw	a5,-20(s0)
    52030564:	0007871b          	sext.w	a4,a5
    52030568:	40000793          	li	a5,1024
    5203056c:	00f71863          	bne	a4,a5,5203057c <pickColor+0x14c>
    52030570:	00001517          	auipc	a0,0x1
    52030574:	fd050513          	addi	a0,a0,-48 # 52031540 <main+0x1e6>
    52030578:	b0dff0ef          	jal	ra,52030084 <bios_putstr>
    5203057c:	fec42783          	lw	a5,-20(s0)
    52030580:	8007879b          	addiw	a5,a5,-2048
    52030584:	2781                	sext.w	a5,a5
    52030586:	e799                	bnez	a5,52030594 <pickColor+0x164>
    52030588:	00001517          	auipc	a0,0x1
    5203058c:	fc850513          	addi	a0,a0,-56 # 52031550 <main+0x1f6>
    52030590:	af5ff0ef          	jal	ra,52030084 <bios_putstr>
    52030594:	0001                	nop
    52030596:	60e2                	ld	ra,24(sp)
    52030598:	6442                	ld	s0,16(sp)
    5203059a:	6105                	addi	sp,sp,32
    5203059c:	8082                	ret

000000005203059e <print>:
    5203059e:	7179                	addi	sp,sp,-48
    520305a0:	f406                	sd	ra,40(sp)
    520305a2:	f022                	sd	s0,32(sp)
    520305a4:	1800                	addi	s0,sp,48
    520305a6:	fca43c23          	sd	a0,-40(s0)
    520305aa:	00001517          	auipc	a0,0x1
    520305ae:	fb650513          	addi	a0,a0,-74 # 52031560 <main+0x206>
    520305b2:	ad3ff0ef          	jal	ra,52030084 <bios_putstr>
    520305b6:	fe042623          	sw	zero,-20(s0)
    520305ba:	a0d1                	j	5203067e <print+0xe0>
    520305bc:	fe042423          	sw	zero,-24(s0)
    520305c0:	a869                	j	5203065a <print+0xbc>
    520305c2:	00001517          	auipc	a0,0x1
    520305c6:	ece50513          	addi	a0,a0,-306 # 52031490 <main+0x136>
    520305ca:	abbff0ef          	jal	ra,52030084 <bios_putstr>
    520305ce:	fec42783          	lw	a5,-20(s0)
    520305d2:	0792                	slli	a5,a5,0x4
    520305d4:	fd843703          	ld	a4,-40(s0)
    520305d8:	973e                	add	a4,a4,a5
    520305da:	fe842783          	lw	a5,-24(s0)
    520305de:	078a                	slli	a5,a5,0x2
    520305e0:	97ba                	add	a5,a5,a4
    520305e2:	439c                	lw	a5,0(a5)
    520305e4:	853e                	mv	a0,a5
    520305e6:	e4bff0ef          	jal	ra,52030430 <pickColor>
    520305ea:	fec42783          	lw	a5,-20(s0)
    520305ee:	0792                	slli	a5,a5,0x4
    520305f0:	fd843703          	ld	a4,-40(s0)
    520305f4:	973e                	add	a4,a4,a5
    520305f6:	fe842783          	lw	a5,-24(s0)
    520305fa:	078a                	slli	a5,a5,0x2
    520305fc:	97ba                	add	a5,a5,a4
    520305fe:	439c                	lw	a5,0(a5)
    52030600:	c3b1                	beqz	a5,52030644 <print+0xa6>
    52030602:	fec42783          	lw	a5,-20(s0)
    52030606:	0792                	slli	a5,a5,0x4
    52030608:	fd843703          	ld	a4,-40(s0)
    5203060c:	973e                	add	a4,a4,a5
    5203060e:	fe842783          	lw	a5,-24(s0)
    52030612:	078a                	slli	a5,a5,0x2
    52030614:	97ba                	add	a5,a5,a4
    52030616:	439c                	lw	a5,0(a5)
    52030618:	853e                	mv	a0,a5
    5203061a:	ca3ff0ef          	jal	ra,520302bc <print_value>
    5203061e:	fec42783          	lw	a5,-20(s0)
    52030622:	0792                	slli	a5,a5,0x4
    52030624:	fd843703          	ld	a4,-40(s0)
    52030628:	973e                	add	a4,a4,a5
    5203062a:	fe842783          	lw	a5,-24(s0)
    5203062e:	078a                	slli	a5,a5,0x2
    52030630:	97ba                	add	a5,a5,a4
    52030632:	439c                	lw	a5,0(a5)
    52030634:	853e                	mv	a0,a5
    52030636:	d4fff0ef          	jal	ra,52030384 <nSpaces>
    5203063a:	87aa                	mv	a5,a0
    5203063c:	853e                	mv	a0,a5
    5203063e:	dadff0ef          	jal	ra,520303ea <printSpaces>
    52030642:	a021                	j	5203064a <print+0xac>
    52030644:	4521                	li	a0,8
    52030646:	da5ff0ef          	jal	ra,520303ea <printSpaces>
    5203064a:	557d                	li	a0,-1
    5203064c:	de5ff0ef          	jal	ra,52030430 <pickColor>
    52030650:	fe842783          	lw	a5,-24(s0)
    52030654:	2785                	addiw	a5,a5,1
    52030656:	fef42423          	sw	a5,-24(s0)
    5203065a:	fe842783          	lw	a5,-24(s0)
    5203065e:	0007871b          	sext.w	a4,a5
    52030662:	478d                	li	a5,3
    52030664:	f4e7dfe3          	bge	a5,a4,520305c2 <print+0x24>
    52030668:	00001517          	auipc	a0,0x1
    5203066c:	ef850513          	addi	a0,a0,-264 # 52031560 <main+0x206>
    52030670:	a15ff0ef          	jal	ra,52030084 <bios_putstr>
    52030674:	fec42783          	lw	a5,-20(s0)
    52030678:	2785                	addiw	a5,a5,1
    5203067a:	fef42623          	sw	a5,-20(s0)
    5203067e:	fec42783          	lw	a5,-20(s0)
    52030682:	0007871b          	sext.w	a4,a5
    52030686:	478d                	li	a5,3
    52030688:	f2e7dae3          	bge	a5,a4,520305bc <print+0x1e>
    5203068c:	0001                	nop
    5203068e:	0001                	nop
    52030690:	70a2                	ld	ra,40(sp)
    52030692:	7402                	ld	s0,32(sp)
    52030694:	6145                	addi	sp,sp,48
    52030696:	8082                	ret

0000000052030698 <countEmpty>:
    52030698:	7179                	addi	sp,sp,-48
    5203069a:	f422                	sd	s0,40(sp)
    5203069c:	1800                	addi	s0,sp,48
    5203069e:	fca43c23          	sd	a0,-40(s0)
    520306a2:	fe042623          	sw	zero,-20(s0)
    520306a6:	57fd                	li	a5,-1
    520306a8:	fef42423          	sw	a5,-24(s0)
    520306ac:	a0b1                	j	520306f8 <countEmpty+0x60>
    520306ae:	fe042223          	sw	zero,-28(s0)
    520306b2:	a03d                	j	520306e0 <countEmpty+0x48>
    520306b4:	fe842783          	lw	a5,-24(s0)
    520306b8:	0792                	slli	a5,a5,0x4
    520306ba:	fd843703          	ld	a4,-40(s0)
    520306be:	973e                	add	a4,a4,a5
    520306c0:	fe442783          	lw	a5,-28(s0)
    520306c4:	078a                	slli	a5,a5,0x2
    520306c6:	97ba                	add	a5,a5,a4
    520306c8:	439c                	lw	a5,0(a5)
    520306ca:	e791                	bnez	a5,520306d6 <countEmpty+0x3e>
    520306cc:	fec42783          	lw	a5,-20(s0)
    520306d0:	2785                	addiw	a5,a5,1
    520306d2:	fef42623          	sw	a5,-20(s0)
    520306d6:	fe442783          	lw	a5,-28(s0)
    520306da:	2785                	addiw	a5,a5,1
    520306dc:	fef42223          	sw	a5,-28(s0)
    520306e0:	fe442783          	lw	a5,-28(s0)
    520306e4:	0007871b          	sext.w	a4,a5
    520306e8:	478d                	li	a5,3
    520306ea:	fce7d5e3          	bge	a5,a4,520306b4 <countEmpty+0x1c>
    520306ee:	fe842783          	lw	a5,-24(s0)
    520306f2:	2785                	addiw	a5,a5,1
    520306f4:	fef42423          	sw	a5,-24(s0)
    520306f8:	fe842783          	lw	a5,-24(s0)
    520306fc:	0007871b          	sext.w	a4,a5
    52030700:	478d                	li	a5,3
    52030702:	fae7d6e3          	bge	a5,a4,520306ae <countEmpty+0x16>
    52030706:	fec42783          	lw	a5,-20(s0)
    5203070a:	853e                	mv	a0,a5
    5203070c:	7422                	ld	s0,40(sp)
    5203070e:	6145                	addi	sp,sp,48
    52030710:	8082                	ret

0000000052030712 <add>:
    52030712:	7139                	addi	sp,sp,-64
    52030714:	fc06                	sd	ra,56(sp)
    52030716:	f822                	sd	s0,48(sp)
    52030718:	f426                	sd	s1,40(sp)
    5203071a:	0080                	addi	s0,sp,64
    5203071c:	fca43423          	sd	a0,-56(s0)
    52030720:	87ae                	mv	a5,a1
    52030722:	fcf42223          	sw	a5,-60(s0)
    52030726:	c1fff0ef          	jal	ra,52030344 <rand>
    5203072a:	87aa                	mv	a5,a0
    5203072c:	84be                	mv	s1,a5
    5203072e:	fc843503          	ld	a0,-56(s0)
    52030732:	f67ff0ef          	jal	ra,52030698 <countEmpty>
    52030736:	87aa                	mv	a5,a0
    52030738:	8726                	mv	a4,s1
    5203073a:	02f767bb          	remw	a5,a4,a5
    5203073e:	fcf42823          	sw	a5,-48(s0)
    52030742:	fc042e23          	sw	zero,-36(s0)
    52030746:	fc042c23          	sw	zero,-40(s0)
    5203074a:	a895                	j	520307be <add+0xac>
    5203074c:	fc042a23          	sw	zero,-44(s0)
    52030750:	a899                	j	520307a6 <add+0x94>
    52030752:	fd842783          	lw	a5,-40(s0)
    52030756:	0792                	slli	a5,a5,0x4
    52030758:	fc843703          	ld	a4,-56(s0)
    5203075c:	973e                	add	a4,a4,a5
    5203075e:	fd442783          	lw	a5,-44(s0)
    52030762:	078a                	slli	a5,a5,0x2
    52030764:	97ba                	add	a5,a5,a4
    52030766:	439c                	lw	a5,0(a5)
    52030768:	eb95                	bnez	a5,5203079c <add+0x8a>
    5203076a:	fdc42783          	lw	a5,-36(s0)
    5203076e:	0017871b          	addiw	a4,a5,1
    52030772:	fce42e23          	sw	a4,-36(s0)
    52030776:	fd042703          	lw	a4,-48(s0)
    5203077a:	2701                	sext.w	a4,a4
    5203077c:	02f71063          	bne	a4,a5,5203079c <add+0x8a>
    52030780:	fd842783          	lw	a5,-40(s0)
    52030784:	0792                	slli	a5,a5,0x4
    52030786:	fc843703          	ld	a4,-56(s0)
    5203078a:	973e                	add	a4,a4,a5
    5203078c:	fd442783          	lw	a5,-44(s0)
    52030790:	078a                	slli	a5,a5,0x2
    52030792:	97ba                	add	a5,a5,a4
    52030794:	fc442703          	lw	a4,-60(s0)
    52030798:	c398                	sw	a4,0(a5)
    5203079a:	a80d                	j	520307cc <add+0xba>
    5203079c:	fd442783          	lw	a5,-44(s0)
    520307a0:	2785                	addiw	a5,a5,1
    520307a2:	fcf42a23          	sw	a5,-44(s0)
    520307a6:	fd442783          	lw	a5,-44(s0)
    520307aa:	0007871b          	sext.w	a4,a5
    520307ae:	478d                	li	a5,3
    520307b0:	fae7d1e3          	bge	a5,a4,52030752 <add+0x40>
    520307b4:	fd842783          	lw	a5,-40(s0)
    520307b8:	2785                	addiw	a5,a5,1
    520307ba:	fcf42c23          	sw	a5,-40(s0)
    520307be:	fd842783          	lw	a5,-40(s0)
    520307c2:	0007871b          	sext.w	a4,a5
    520307c6:	478d                	li	a5,3
    520307c8:	f8e7d2e3          	bge	a5,a4,5203074c <add+0x3a>
    520307cc:	70e2                	ld	ra,56(sp)
    520307ce:	7442                	ld	s0,48(sp)
    520307d0:	74a2                	ld	s1,40(sp)
    520307d2:	6121                	addi	sp,sp,64
    520307d4:	8082                	ret

00000000520307d6 <move>:
    520307d6:	7139                	addi	sp,sp,-64
    520307d8:	fc06                	sd	ra,56(sp)
    520307da:	f822                	sd	s0,48(sp)
    520307dc:	0080                	addi	s0,sp,64
    520307de:	fca43423          	sd	a0,-56(s0)
    520307e2:	fe042623          	sw	zero,-20(s0)
    520307e6:	fe042423          	sw	zero,-24(s0)
    520307ea:	fe042223          	sw	zero,-28(s0)
    520307ee:	a15d                	j	52030c94 <move+0x4be>
    520307f0:	fe042023          	sw	zero,-32(s0)
    520307f4:	a161                	j	52030c7c <move+0x4a6>
    520307f6:	fe042783          	lw	a5,-32(s0)
    520307fa:	2785                	addiw	a5,a5,1
    520307fc:	fcf42e23          	sw	a5,-36(s0)
    52030800:	a185                	j	52030c60 <move+0x48a>
    52030802:	fe442783          	lw	a5,-28(s0)
    52030806:	0792                	slli	a5,a5,0x4
    52030808:	fc843703          	ld	a4,-56(s0)
    5203080c:	973e                	add	a4,a4,a5
    5203080e:	fe042783          	lw	a5,-32(s0)
    52030812:	078a                	slli	a5,a5,0x2
    52030814:	97ba                	add	a5,a5,a4
    52030816:	439c                	lw	a5,0(a5)
    52030818:	c7b1                	beqz	a5,52030864 <move+0x8e>
    5203081a:	fe442783          	lw	a5,-28(s0)
    5203081e:	0792                	slli	a5,a5,0x4
    52030820:	fc843703          	ld	a4,-56(s0)
    52030824:	973e                	add	a4,a4,a5
    52030826:	fdc42783          	lw	a5,-36(s0)
    5203082a:	078a                	slli	a5,a5,0x2
    5203082c:	97ba                	add	a5,a5,a4
    5203082e:	439c                	lw	a5,0(a5)
    52030830:	cb95                	beqz	a5,52030864 <move+0x8e>
    52030832:	fe442783          	lw	a5,-28(s0)
    52030836:	0792                	slli	a5,a5,0x4
    52030838:	fc843703          	ld	a4,-56(s0)
    5203083c:	973e                	add	a4,a4,a5
    5203083e:	fe042783          	lw	a5,-32(s0)
    52030842:	078a                	slli	a5,a5,0x2
    52030844:	97ba                	add	a5,a5,a4
    52030846:	4394                	lw	a3,0(a5)
    52030848:	fe442783          	lw	a5,-28(s0)
    5203084c:	0792                	slli	a5,a5,0x4
    5203084e:	fc843703          	ld	a4,-56(s0)
    52030852:	973e                	add	a4,a4,a5
    52030854:	fdc42783          	lw	a5,-36(s0)
    52030858:	078a                	slli	a5,a5,0x2
    5203085a:	97ba                	add	a5,a5,a4
    5203085c:	439c                	lw	a5,0(a5)
    5203085e:	8736                	mv	a4,a3
    52030860:	40f71863          	bne	a4,a5,52030c70 <move+0x49a>
    52030864:	fe442783          	lw	a5,-28(s0)
    52030868:	0792                	slli	a5,a5,0x4
    5203086a:	fc843703          	ld	a4,-56(s0)
    5203086e:	973e                	add	a4,a4,a5
    52030870:	fe042783          	lw	a5,-32(s0)
    52030874:	078a                	slli	a5,a5,0x2
    52030876:	97ba                	add	a5,a5,a4
    52030878:	439c                	lw	a5,0(a5)
    5203087a:	c3e1                	beqz	a5,5203093a <move+0x164>
    5203087c:	fe442783          	lw	a5,-28(s0)
    52030880:	0792                	slli	a5,a5,0x4
    52030882:	fc843703          	ld	a4,-56(s0)
    52030886:	973e                	add	a4,a4,a5
    52030888:	fdc42783          	lw	a5,-36(s0)
    5203088c:	078a                	slli	a5,a5,0x2
    5203088e:	97ba                	add	a5,a5,a4
    52030890:	439c                	lw	a5,0(a5)
    52030892:	c7c5                	beqz	a5,5203093a <move+0x164>
    52030894:	fe442783          	lw	a5,-28(s0)
    52030898:	0792                	slli	a5,a5,0x4
    5203089a:	fc843703          	ld	a4,-56(s0)
    5203089e:	973e                	add	a4,a4,a5
    520308a0:	fe042783          	lw	a5,-32(s0)
    520308a4:	078a                	slli	a5,a5,0x2
    520308a6:	97ba                	add	a5,a5,a4
    520308a8:	4394                	lw	a3,0(a5)
    520308aa:	fe442783          	lw	a5,-28(s0)
    520308ae:	0792                	slli	a5,a5,0x4
    520308b0:	fc843703          	ld	a4,-56(s0)
    520308b4:	973e                	add	a4,a4,a5
    520308b6:	fdc42783          	lw	a5,-36(s0)
    520308ba:	078a                	slli	a5,a5,0x2
    520308bc:	97ba                	add	a5,a5,a4
    520308be:	439c                	lw	a5,0(a5)
    520308c0:	8736                	mv	a4,a3
    520308c2:	06f71c63          	bne	a4,a5,5203093a <move+0x164>
    520308c6:	fe442783          	lw	a5,-28(s0)
    520308ca:	0792                	slli	a5,a5,0x4
    520308cc:	fc843703          	ld	a4,-56(s0)
    520308d0:	973e                	add	a4,a4,a5
    520308d2:	fe042783          	lw	a5,-32(s0)
    520308d6:	078a                	slli	a5,a5,0x2
    520308d8:	97ba                	add	a5,a5,a4
    520308da:	439c                	lw	a5,0(a5)
    520308dc:	fe442703          	lw	a4,-28(s0)
    520308e0:	0712                	slli	a4,a4,0x4
    520308e2:	fc843683          	ld	a3,-56(s0)
    520308e6:	96ba                	add	a3,a3,a4
    520308e8:	0017979b          	slliw	a5,a5,0x1
    520308ec:	0007871b          	sext.w	a4,a5
    520308f0:	fe042783          	lw	a5,-32(s0)
    520308f4:	078a                	slli	a5,a5,0x2
    520308f6:	97b6                	add	a5,a5,a3
    520308f8:	c398                	sw	a4,0(a5)
    520308fa:	fe442783          	lw	a5,-28(s0)
    520308fe:	0792                	slli	a5,a5,0x4
    52030900:	fc843703          	ld	a4,-56(s0)
    52030904:	973e                	add	a4,a4,a5
    52030906:	fdc42783          	lw	a5,-36(s0)
    5203090a:	078a                	slli	a5,a5,0x2
    5203090c:	97ba                	add	a5,a5,a4
    5203090e:	0007a023          	sw	zero,0(a5)
    52030912:	fe442783          	lw	a5,-28(s0)
    52030916:	0792                	slli	a5,a5,0x4
    52030918:	fc843703          	ld	a4,-56(s0)
    5203091c:	973e                	add	a4,a4,a5
    5203091e:	fe042783          	lw	a5,-32(s0)
    52030922:	078a                	slli	a5,a5,0x2
    52030924:	97ba                	add	a5,a5,a4
    52030926:	439c                	lw	a5,0(a5)
    52030928:	fec42703          	lw	a4,-20(s0)
    5203092c:	9fb9                	addw	a5,a5,a4
    5203092e:	fef42623          	sw	a5,-20(s0)
    52030932:	4785                	li	a5,1
    52030934:	fef42423          	sw	a5,-24(s0)
    52030938:	ae2d                	j	52030c72 <move+0x49c>
    5203093a:	fe442783          	lw	a5,-28(s0)
    5203093e:	0792                	slli	a5,a5,0x4
    52030940:	fc843703          	ld	a4,-56(s0)
    52030944:	973e                	add	a4,a4,a5
    52030946:	fe042783          	lw	a5,-32(s0)
    5203094a:	078a                	slli	a5,a5,0x2
    5203094c:	97ba                	add	a5,a5,a4
    5203094e:	439c                	lw	a5,0(a5)
    52030950:	e3bd                	bnez	a5,520309b6 <move+0x1e0>
    52030952:	fe442783          	lw	a5,-28(s0)
    52030956:	0792                	slli	a5,a5,0x4
    52030958:	fc843703          	ld	a4,-56(s0)
    5203095c:	973e                	add	a4,a4,a5
    5203095e:	fdc42783          	lw	a5,-36(s0)
    52030962:	078a                	slli	a5,a5,0x2
    52030964:	97ba                	add	a5,a5,a4
    52030966:	439c                	lw	a5,0(a5)
    52030968:	c7b9                	beqz	a5,520309b6 <move+0x1e0>
    5203096a:	fe442783          	lw	a5,-28(s0)
    5203096e:	0792                	slli	a5,a5,0x4
    52030970:	fc843703          	ld	a4,-56(s0)
    52030974:	973e                	add	a4,a4,a5
    52030976:	fe442783          	lw	a5,-28(s0)
    5203097a:	0792                	slli	a5,a5,0x4
    5203097c:	fc843683          	ld	a3,-56(s0)
    52030980:	96be                	add	a3,a3,a5
    52030982:	fdc42783          	lw	a5,-36(s0)
    52030986:	078a                	slli	a5,a5,0x2
    52030988:	97ba                	add	a5,a5,a4
    5203098a:	4398                	lw	a4,0(a5)
    5203098c:	fe042783          	lw	a5,-32(s0)
    52030990:	078a                	slli	a5,a5,0x2
    52030992:	97b6                	add	a5,a5,a3
    52030994:	c398                	sw	a4,0(a5)
    52030996:	fe442783          	lw	a5,-28(s0)
    5203099a:	0792                	slli	a5,a5,0x4
    5203099c:	fc843703          	ld	a4,-56(s0)
    520309a0:	973e                	add	a4,a4,a5
    520309a2:	fdc42783          	lw	a5,-36(s0)
    520309a6:	078a                	slli	a5,a5,0x2
    520309a8:	97ba                	add	a5,a5,a4
    520309aa:	0007a023          	sw	zero,0(a5)
    520309ae:	4785                	li	a5,1
    520309b0:	fef42423          	sw	a5,-24(s0)
    520309b4:	a44d                	j	52030c56 <move+0x480>
    520309b6:	fe442783          	lw	a5,-28(s0)
    520309ba:	0792                	slli	a5,a5,0x4
    520309bc:	fc843703          	ld	a4,-56(s0)
    520309c0:	973e                	add	a4,a4,a5
    520309c2:	fe042783          	lw	a5,-32(s0)
    520309c6:	078a                	slli	a5,a5,0x2
    520309c8:	97ba                	add	a5,a5,a4
    520309ca:	439c                	lw	a5,0(a5)
    520309cc:	28078563          	beqz	a5,52030c56 <move+0x480>
    520309d0:	fe442783          	lw	a5,-28(s0)
    520309d4:	0792                	slli	a5,a5,0x4
    520309d6:	fc843703          	ld	a4,-56(s0)
    520309da:	973e                	add	a4,a4,a5
    520309dc:	fdc42783          	lw	a5,-36(s0)
    520309e0:	078a                	slli	a5,a5,0x2
    520309e2:	97ba                	add	a5,a5,a4
    520309e4:	439c                	lw	a5,0(a5)
    520309e6:	26079863          	bnez	a5,52030c56 <move+0x480>
    520309ea:	fe042783          	lw	a5,-32(s0)
    520309ee:	2781                	sext.w	a5,a5
    520309f0:	26079363          	bnez	a5,52030c56 <move+0x480>
    520309f4:	fe442783          	lw	a5,-28(s0)
    520309f8:	0792                	slli	a5,a5,0x4
    520309fa:	fc843703          	ld	a4,-56(s0)
    520309fe:	973e                	add	a4,a4,a5
    52030a00:	fe042783          	lw	a5,-32(s0)
    52030a04:	2789                	addiw	a5,a5,2
    52030a06:	2781                	sext.w	a5,a5
    52030a08:	078a                	slli	a5,a5,0x2
    52030a0a:	97ba                	add	a5,a5,a4
    52030a0c:	4394                	lw	a3,0(a5)
    52030a0e:	fe442783          	lw	a5,-28(s0)
    52030a12:	0792                	slli	a5,a5,0x4
    52030a14:	fc843703          	ld	a4,-56(s0)
    52030a18:	973e                	add	a4,a4,a5
    52030a1a:	fe042783          	lw	a5,-32(s0)
    52030a1e:	278d                	addiw	a5,a5,3
    52030a20:	2781                	sext.w	a5,a5
    52030a22:	078a                	slli	a5,a5,0x2
    52030a24:	97ba                	add	a5,a5,a4
    52030a26:	439c                	lw	a5,0(a5)
    52030a28:	8736                	mv	a4,a3
    52030a2a:	0af70663          	beq	a4,a5,52030ad6 <move+0x300>
    52030a2e:	fe442783          	lw	a5,-28(s0)
    52030a32:	0792                	slli	a5,a5,0x4
    52030a34:	fc843703          	ld	a4,-56(s0)
    52030a38:	973e                	add	a4,a4,a5
    52030a3a:	fe042783          	lw	a5,-32(s0)
    52030a3e:	078a                	slli	a5,a5,0x2
    52030a40:	97ba                	add	a5,a5,a4
    52030a42:	4394                	lw	a3,0(a5)
    52030a44:	fe442783          	lw	a5,-28(s0)
    52030a48:	0792                	slli	a5,a5,0x4
    52030a4a:	fc843703          	ld	a4,-56(s0)
    52030a4e:	973e                	add	a4,a4,a5
    52030a50:	fe042783          	lw	a5,-32(s0)
    52030a54:	2789                	addiw	a5,a5,2
    52030a56:	2781                	sext.w	a5,a5
    52030a58:	078a                	slli	a5,a5,0x2
    52030a5a:	97ba                	add	a5,a5,a4
    52030a5c:	439c                	lw	a5,0(a5)
    52030a5e:	8736                	mv	a4,a3
    52030a60:	06f71b63          	bne	a4,a5,52030ad6 <move+0x300>
    52030a64:	fe442783          	lw	a5,-28(s0)
    52030a68:	0792                	slli	a5,a5,0x4
    52030a6a:	fc843703          	ld	a4,-56(s0)
    52030a6e:	973e                	add	a4,a4,a5
    52030a70:	fe042783          	lw	a5,-32(s0)
    52030a74:	078a                	slli	a5,a5,0x2
    52030a76:	97ba                	add	a5,a5,a4
    52030a78:	439c                	lw	a5,0(a5)
    52030a7a:	fe442703          	lw	a4,-28(s0)
    52030a7e:	0712                	slli	a4,a4,0x4
    52030a80:	fc843683          	ld	a3,-56(s0)
    52030a84:	96ba                	add	a3,a3,a4
    52030a86:	0017979b          	slliw	a5,a5,0x1
    52030a8a:	0007871b          	sext.w	a4,a5
    52030a8e:	fe042783          	lw	a5,-32(s0)
    52030a92:	078a                	slli	a5,a5,0x2
    52030a94:	97b6                	add	a5,a5,a3
    52030a96:	c398                	sw	a4,0(a5)
    52030a98:	fe442783          	lw	a5,-28(s0)
    52030a9c:	0792                	slli	a5,a5,0x4
    52030a9e:	fc843703          	ld	a4,-56(s0)
    52030aa2:	973e                	add	a4,a4,a5
    52030aa4:	fe042783          	lw	a5,-32(s0)
    52030aa8:	2789                	addiw	a5,a5,2
    52030aaa:	2781                	sext.w	a5,a5
    52030aac:	078a                	slli	a5,a5,0x2
    52030aae:	97ba                	add	a5,a5,a4
    52030ab0:	0007a023          	sw	zero,0(a5)
    52030ab4:	fe442783          	lw	a5,-28(s0)
    52030ab8:	0792                	slli	a5,a5,0x4
    52030aba:	fc843703          	ld	a4,-56(s0)
    52030abe:	973e                	add	a4,a4,a5
    52030ac0:	fe042783          	lw	a5,-32(s0)
    52030ac4:	078a                	slli	a5,a5,0x2
    52030ac6:	97ba                	add	a5,a5,a4
    52030ac8:	439c                	lw	a5,0(a5)
    52030aca:	fec42703          	lw	a4,-20(s0)
    52030ace:	9fb9                	addw	a5,a5,a4
    52030ad0:	fef42623          	sw	a5,-20(s0)
    52030ad4:	aaad                	j	52030c4e <move+0x478>
    52030ad6:	fe442783          	lw	a5,-28(s0)
    52030ada:	0792                	slli	a5,a5,0x4
    52030adc:	fc843703          	ld	a4,-56(s0)
    52030ae0:	973e                	add	a4,a4,a5
    52030ae2:	fe042783          	lw	a5,-32(s0)
    52030ae6:	2789                	addiw	a5,a5,2
    52030ae8:	2781                	sext.w	a5,a5
    52030aea:	078a                	slli	a5,a5,0x2
    52030aec:	97ba                	add	a5,a5,a4
    52030aee:	4394                	lw	a3,0(a5)
    52030af0:	fe442783          	lw	a5,-28(s0)
    52030af4:	0792                	slli	a5,a5,0x4
    52030af6:	fc843703          	ld	a4,-56(s0)
    52030afa:	973e                	add	a4,a4,a5
    52030afc:	fe042783          	lw	a5,-32(s0)
    52030b00:	278d                	addiw	a5,a5,3
    52030b02:	2781                	sext.w	a5,a5
    52030b04:	078a                	slli	a5,a5,0x2
    52030b06:	97ba                	add	a5,a5,a4
    52030b08:	439c                	lw	a5,0(a5)
    52030b0a:	8736                	mv	a4,a3
    52030b0c:	08f71063          	bne	a4,a5,52030b8c <move+0x3b6>
    52030b10:	fe442783          	lw	a5,-28(s0)
    52030b14:	0792                	slli	a5,a5,0x4
    52030b16:	fc843703          	ld	a4,-56(s0)
    52030b1a:	973e                	add	a4,a4,a5
    52030b1c:	fe042783          	lw	a5,-32(s0)
    52030b20:	2789                	addiw	a5,a5,2
    52030b22:	2781                	sext.w	a5,a5
    52030b24:	078a                	slli	a5,a5,0x2
    52030b26:	97ba                	add	a5,a5,a4
    52030b28:	4398                	lw	a4,0(a5)
    52030b2a:	fe442783          	lw	a5,-28(s0)
    52030b2e:	0792                	slli	a5,a5,0x4
    52030b30:	fc843683          	ld	a3,-56(s0)
    52030b34:	96be                	add	a3,a3,a5
    52030b36:	fe042783          	lw	a5,-32(s0)
    52030b3a:	2789                	addiw	a5,a5,2
    52030b3c:	2781                	sext.w	a5,a5
    52030b3e:	0017171b          	slliw	a4,a4,0x1
    52030b42:	2701                	sext.w	a4,a4
    52030b44:	078a                	slli	a5,a5,0x2
    52030b46:	97b6                	add	a5,a5,a3
    52030b48:	c398                	sw	a4,0(a5)
    52030b4a:	fe442783          	lw	a5,-28(s0)
    52030b4e:	0792                	slli	a5,a5,0x4
    52030b50:	fc843703          	ld	a4,-56(s0)
    52030b54:	973e                	add	a4,a4,a5
    52030b56:	fe042783          	lw	a5,-32(s0)
    52030b5a:	278d                	addiw	a5,a5,3
    52030b5c:	2781                	sext.w	a5,a5
    52030b5e:	078a                	slli	a5,a5,0x2
    52030b60:	97ba                	add	a5,a5,a4
    52030b62:	0007a023          	sw	zero,0(a5)
    52030b66:	fe442783          	lw	a5,-28(s0)
    52030b6a:	0792                	slli	a5,a5,0x4
    52030b6c:	fc843703          	ld	a4,-56(s0)
    52030b70:	973e                	add	a4,a4,a5
    52030b72:	fe042783          	lw	a5,-32(s0)
    52030b76:	2789                	addiw	a5,a5,2
    52030b78:	2781                	sext.w	a5,a5
    52030b7a:	078a                	slli	a5,a5,0x2
    52030b7c:	97ba                	add	a5,a5,a4
    52030b7e:	439c                	lw	a5,0(a5)
    52030b80:	fec42703          	lw	a4,-20(s0)
    52030b84:	9fb9                	addw	a5,a5,a4
    52030b86:	fef42623          	sw	a5,-20(s0)
    52030b8a:	a0d1                	j	52030c4e <move+0x478>
    52030b8c:	fe442783          	lw	a5,-28(s0)
    52030b90:	0792                	slli	a5,a5,0x4
    52030b92:	fc843703          	ld	a4,-56(s0)
    52030b96:	973e                	add	a4,a4,a5
    52030b98:	fe042783          	lw	a5,-32(s0)
    52030b9c:	2789                	addiw	a5,a5,2
    52030b9e:	2781                	sext.w	a5,a5
    52030ba0:	078a                	slli	a5,a5,0x2
    52030ba2:	97ba                	add	a5,a5,a4
    52030ba4:	439c                	lw	a5,0(a5)
    52030ba6:	e7c5                	bnez	a5,52030c4e <move+0x478>
    52030ba8:	fe442783          	lw	a5,-28(s0)
    52030bac:	0792                	slli	a5,a5,0x4
    52030bae:	fc843703          	ld	a4,-56(s0)
    52030bb2:	973e                	add	a4,a4,a5
    52030bb4:	fe042783          	lw	a5,-32(s0)
    52030bb8:	078a                	slli	a5,a5,0x2
    52030bba:	97ba                	add	a5,a5,a4
    52030bbc:	4394                	lw	a3,0(a5)
    52030bbe:	fe442783          	lw	a5,-28(s0)
    52030bc2:	0792                	slli	a5,a5,0x4
    52030bc4:	fc843703          	ld	a4,-56(s0)
    52030bc8:	973e                	add	a4,a4,a5
    52030bca:	fe042783          	lw	a5,-32(s0)
    52030bce:	278d                	addiw	a5,a5,3
    52030bd0:	2781                	sext.w	a5,a5
    52030bd2:	078a                	slli	a5,a5,0x2
    52030bd4:	97ba                	add	a5,a5,a4
    52030bd6:	439c                	lw	a5,0(a5)
    52030bd8:	8736                	mv	a4,a3
    52030bda:	06f71a63          	bne	a4,a5,52030c4e <move+0x478>
    52030bde:	fe442783          	lw	a5,-28(s0)
    52030be2:	0792                	slli	a5,a5,0x4
    52030be4:	fc843703          	ld	a4,-56(s0)
    52030be8:	973e                	add	a4,a4,a5
    52030bea:	fe042783          	lw	a5,-32(s0)
    52030bee:	078a                	slli	a5,a5,0x2
    52030bf0:	97ba                	add	a5,a5,a4
    52030bf2:	439c                	lw	a5,0(a5)
    52030bf4:	fe442703          	lw	a4,-28(s0)
    52030bf8:	0712                	slli	a4,a4,0x4
    52030bfa:	fc843683          	ld	a3,-56(s0)
    52030bfe:	96ba                	add	a3,a3,a4
    52030c00:	0017979b          	slliw	a5,a5,0x1
    52030c04:	0007871b          	sext.w	a4,a5
    52030c08:	fe042783          	lw	a5,-32(s0)
    52030c0c:	078a                	slli	a5,a5,0x2
    52030c0e:	97b6                	add	a5,a5,a3
    52030c10:	c398                	sw	a4,0(a5)
    52030c12:	fe442783          	lw	a5,-28(s0)
    52030c16:	0792                	slli	a5,a5,0x4
    52030c18:	fc843703          	ld	a4,-56(s0)
    52030c1c:	973e                	add	a4,a4,a5
    52030c1e:	fe042783          	lw	a5,-32(s0)
    52030c22:	278d                	addiw	a5,a5,3
    52030c24:	2781                	sext.w	a5,a5
    52030c26:	078a                	slli	a5,a5,0x2
    52030c28:	97ba                	add	a5,a5,a4
    52030c2a:	0007a023          	sw	zero,0(a5)
    52030c2e:	fe442783          	lw	a5,-28(s0)
    52030c32:	0792                	slli	a5,a5,0x4
    52030c34:	fc843703          	ld	a4,-56(s0)
    52030c38:	973e                	add	a4,a4,a5
    52030c3a:	fe042783          	lw	a5,-32(s0)
    52030c3e:	078a                	slli	a5,a5,0x2
    52030c40:	97ba                	add	a5,a5,a4
    52030c42:	439c                	lw	a5,0(a5)
    52030c44:	fec42703          	lw	a4,-20(s0)
    52030c48:	9fb9                	addw	a5,a5,a4
    52030c4a:	fef42623          	sw	a5,-20(s0)
    52030c4e:	4785                	li	a5,1
    52030c50:	fef42423          	sw	a5,-24(s0)
    52030c54:	a839                	j	52030c72 <move+0x49c>
    52030c56:	fdc42783          	lw	a5,-36(s0)
    52030c5a:	2785                	addiw	a5,a5,1
    52030c5c:	fcf42e23          	sw	a5,-36(s0)
    52030c60:	fdc42783          	lw	a5,-36(s0)
    52030c64:	0007871b          	sext.w	a4,a5
    52030c68:	478d                	li	a5,3
    52030c6a:	b8e7dce3          	bge	a5,a4,52030802 <move+0x2c>
    52030c6e:	a011                	j	52030c72 <move+0x49c>
    52030c70:	0001                	nop
    52030c72:	fe042783          	lw	a5,-32(s0)
    52030c76:	2785                	addiw	a5,a5,1
    52030c78:	fef42023          	sw	a5,-32(s0)
    52030c7c:	fe042783          	lw	a5,-32(s0)
    52030c80:	0007871b          	sext.w	a4,a5
    52030c84:	478d                	li	a5,3
    52030c86:	b6e7d8e3          	bge	a5,a4,520307f6 <move+0x20>
    52030c8a:	fe442783          	lw	a5,-28(s0)
    52030c8e:	2785                	addiw	a5,a5,1
    52030c90:	fef42223          	sw	a5,-28(s0)
    52030c94:	fe442783          	lw	a5,-28(s0)
    52030c98:	0007871b          	sext.w	a4,a5
    52030c9c:	478d                	li	a5,3
    52030c9e:	b4e7d9e3          	bge	a5,a4,520307f0 <move+0x1a>
    52030ca2:	fe842783          	lw	a5,-24(s0)
    52030ca6:	0007871b          	sext.w	a4,a5
    52030caa:	4785                	li	a5,1
    52030cac:	00f71763          	bne	a4,a5,52030cba <move+0x4e4>
    52030cb0:	4589                	li	a1,2
    52030cb2:	fc843503          	ld	a0,-56(s0)
    52030cb6:	a5dff0ef          	jal	ra,52030712 <add>
    52030cba:	fec42783          	lw	a5,-20(s0)
    52030cbe:	853e                	mv	a0,a5
    52030cc0:	70e2                	ld	ra,56(sp)
    52030cc2:	7442                	ld	s0,48(sp)
    52030cc4:	6121                	addi	sp,sp,64
    52030cc6:	8082                	ret

0000000052030cc8 <rotate>:
    52030cc8:	7179                	addi	sp,sp,-48
    52030cca:	f422                	sd	s0,40(sp)
    52030ccc:	1800                	addi	s0,sp,48
    52030cce:	87aa                	mv	a5,a0
    52030cd0:	fcb43823          	sd	a1,-48(s0)
    52030cd4:	fcf42e23          	sw	a5,-36(s0)
    52030cd8:	fe042623          	sw	zero,-20(s0)
    52030cdc:	aab9                	j	52030e3a <rotate+0x172>
    52030cde:	fe042423          	sw	zero,-24(s0)
    52030ce2:	a281                	j	52030e22 <rotate+0x15a>
    52030ce4:	fe842783          	lw	a5,-24(s0)
    52030ce8:	fef42223          	sw	a5,-28(s0)
    52030cec:	aa11                	j	52030e00 <rotate+0x138>
    52030cee:	fe842783          	lw	a5,-24(s0)
    52030cf2:	0792                	slli	a5,a5,0x4
    52030cf4:	fd043703          	ld	a4,-48(s0)
    52030cf8:	973e                	add	a4,a4,a5
    52030cfa:	fe442783          	lw	a5,-28(s0)
    52030cfe:	078a                	slli	a5,a5,0x2
    52030d00:	97ba                	add	a5,a5,a4
    52030d02:	439c                	lw	a5,0(a5)
    52030d04:	fef42023          	sw	a5,-32(s0)
    52030d08:	fe442783          	lw	a5,-28(s0)
    52030d0c:	0792                	slli	a5,a5,0x4
    52030d0e:	fd043703          	ld	a4,-48(s0)
    52030d12:	973e                	add	a4,a4,a5
    52030d14:	468d                	li	a3,3
    52030d16:	fe842783          	lw	a5,-24(s0)
    52030d1a:	40f687bb          	subw	a5,a3,a5
    52030d1e:	2781                	sext.w	a5,a5
    52030d20:	fe842683          	lw	a3,-24(s0)
    52030d24:	0692                	slli	a3,a3,0x4
    52030d26:	fd043603          	ld	a2,-48(s0)
    52030d2a:	96b2                	add	a3,a3,a2
    52030d2c:	078a                	slli	a5,a5,0x2
    52030d2e:	97ba                	add	a5,a5,a4
    52030d30:	4398                	lw	a4,0(a5)
    52030d32:	fe442783          	lw	a5,-28(s0)
    52030d36:	078a                	slli	a5,a5,0x2
    52030d38:	97b6                	add	a5,a5,a3
    52030d3a:	c398                	sw	a4,0(a5)
    52030d3c:	4711                	li	a4,4
    52030d3e:	fe842783          	lw	a5,-24(s0)
    52030d42:	40f707bb          	subw	a5,a4,a5
    52030d46:	2781                	sext.w	a5,a5
    52030d48:	0792                	slli	a5,a5,0x4
    52030d4a:	17c1                	addi	a5,a5,-16
    52030d4c:	fd043703          	ld	a4,-48(s0)
    52030d50:	00f70633          	add	a2,a4,a5
    52030d54:	470d                	li	a4,3
    52030d56:	fe442783          	lw	a5,-28(s0)
    52030d5a:	40f707bb          	subw	a5,a4,a5
    52030d5e:	0007871b          	sext.w	a4,a5
    52030d62:	fe442783          	lw	a5,-28(s0)
    52030d66:	0792                	slli	a5,a5,0x4
    52030d68:	fd043683          	ld	a3,-48(s0)
    52030d6c:	96be                	add	a3,a3,a5
    52030d6e:	458d                	li	a1,3
    52030d70:	fe842783          	lw	a5,-24(s0)
    52030d74:	40f587bb          	subw	a5,a1,a5
    52030d78:	2781                	sext.w	a5,a5
    52030d7a:	070a                	slli	a4,a4,0x2
    52030d7c:	9732                	add	a4,a4,a2
    52030d7e:	4318                	lw	a4,0(a4)
    52030d80:	078a                	slli	a5,a5,0x2
    52030d82:	97b6                	add	a5,a5,a3
    52030d84:	c398                	sw	a4,0(a5)
    52030d86:	4711                	li	a4,4
    52030d88:	fe442783          	lw	a5,-28(s0)
    52030d8c:	40f707bb          	subw	a5,a4,a5
    52030d90:	2781                	sext.w	a5,a5
    52030d92:	0792                	slli	a5,a5,0x4
    52030d94:	17c1                	addi	a5,a5,-16
    52030d96:	fd043703          	ld	a4,-48(s0)
    52030d9a:	00f70633          	add	a2,a4,a5
    52030d9e:	4711                	li	a4,4
    52030da0:	fe842783          	lw	a5,-24(s0)
    52030da4:	40f707bb          	subw	a5,a4,a5
    52030da8:	2781                	sext.w	a5,a5
    52030daa:	0792                	slli	a5,a5,0x4
    52030dac:	17c1                	addi	a5,a5,-16
    52030dae:	fd043703          	ld	a4,-48(s0)
    52030db2:	00f706b3          	add	a3,a4,a5
    52030db6:	470d                	li	a4,3
    52030db8:	fe442783          	lw	a5,-28(s0)
    52030dbc:	40f707bb          	subw	a5,a4,a5
    52030dc0:	2781                	sext.w	a5,a5
    52030dc2:	fe842703          	lw	a4,-24(s0)
    52030dc6:	070a                	slli	a4,a4,0x2
    52030dc8:	9732                	add	a4,a4,a2
    52030dca:	4318                	lw	a4,0(a4)
    52030dcc:	078a                	slli	a5,a5,0x2
    52030dce:	97b6                	add	a5,a5,a3
    52030dd0:	c398                	sw	a4,0(a5)
    52030dd2:	4711                	li	a4,4
    52030dd4:	fe442783          	lw	a5,-28(s0)
    52030dd8:	40f707bb          	subw	a5,a4,a5
    52030ddc:	2781                	sext.w	a5,a5
    52030dde:	0792                	slli	a5,a5,0x4
    52030de0:	17c1                	addi	a5,a5,-16
    52030de2:	fd043703          	ld	a4,-48(s0)
    52030de6:	973e                	add	a4,a4,a5
    52030de8:	fe842783          	lw	a5,-24(s0)
    52030dec:	078a                	slli	a5,a5,0x2
    52030dee:	97ba                	add	a5,a5,a4
    52030df0:	fe042703          	lw	a4,-32(s0)
    52030df4:	c398                	sw	a4,0(a5)
    52030df6:	fe442783          	lw	a5,-28(s0)
    52030dfa:	2785                	addiw	a5,a5,1
    52030dfc:	fef42223          	sw	a5,-28(s0)
    52030e00:	470d                	li	a4,3
    52030e02:	fe842783          	lw	a5,-24(s0)
    52030e06:	40f707bb          	subw	a5,a4,a5
    52030e0a:	0007871b          	sext.w	a4,a5
    52030e0e:	fe442783          	lw	a5,-28(s0)
    52030e12:	2781                	sext.w	a5,a5
    52030e14:	ece7cde3          	blt	a5,a4,52030cee <rotate+0x26>
    52030e18:	fe842783          	lw	a5,-24(s0)
    52030e1c:	2785                	addiw	a5,a5,1
    52030e1e:	fef42423          	sw	a5,-24(s0)
    52030e22:	fe842783          	lw	a5,-24(s0)
    52030e26:	0007871b          	sext.w	a4,a5
    52030e2a:	4785                	li	a5,1
    52030e2c:	eae7dce3          	bge	a5,a4,52030ce4 <rotate+0x1c>
    52030e30:	fec42783          	lw	a5,-20(s0)
    52030e34:	2785                	addiw	a5,a5,1
    52030e36:	fef42623          	sw	a5,-20(s0)
    52030e3a:	fec42703          	lw	a4,-20(s0)
    52030e3e:	fdc42783          	lw	a5,-36(s0)
    52030e42:	2701                	sext.w	a4,a4
    52030e44:	2781                	sext.w	a5,a5
    52030e46:	e8f74ce3          	blt	a4,a5,52030cde <rotate+0x16>
    52030e4a:	0001                	nop
    52030e4c:	0001                	nop
    52030e4e:	7422                	ld	s0,40(sp)
    52030e50:	6145                	addi	sp,sp,48
    52030e52:	8082                	ret

0000000052030e54 <onKeyPress>:
    52030e54:	7179                	addi	sp,sp,-48
    52030e56:	f406                	sd	ra,40(sp)
    52030e58:	f022                	sd	s0,32(sp)
    52030e5a:	1800                	addi	s0,sp,48
    52030e5c:	87aa                	mv	a5,a0
    52030e5e:	feb43023          	sd	a1,-32(s0)
    52030e62:	fcc43c23          	sd	a2,-40(s0)
    52030e66:	fef407a3          	sb	a5,-17(s0)
    52030e6a:	fef44783          	lbu	a5,-17(s0)
    52030e6e:	0ff7f713          	andi	a4,a5,255
    52030e72:	06e00793          	li	a5,110
    52030e76:	00f70a63          	beq	a4,a5,52030e8a <onKeyPress+0x36>
    52030e7a:	fef44783          	lbu	a5,-17(s0)
    52030e7e:	0ff7f713          	andi	a4,a5,255
    52030e82:	04e00793          	li	a5,78
    52030e86:	00f71463          	bne	a4,a5,52030e8e <onKeyPress+0x3a>
    52030e8a:	4789                	li	a5,2
    52030e8c:	aae9                	j	52031066 <onKeyPress+0x212>
    52030e8e:	fef44783          	lbu	a5,-17(s0)
    52030e92:	0ff7f713          	andi	a4,a5,255
    52030e96:	07100793          	li	a5,113
    52030e9a:	00f70a63          	beq	a4,a5,52030eae <onKeyPress+0x5a>
    52030e9e:	fef44783          	lbu	a5,-17(s0)
    52030ea2:	0ff7f713          	andi	a4,a5,255
    52030ea6:	05100793          	li	a5,81
    52030eaa:	00f71463          	bne	a4,a5,52030eb2 <onKeyPress+0x5e>
    52030eae:	478d                	li	a5,3
    52030eb0:	aa5d                	j	52031066 <onKeyPress+0x212>
    52030eb2:	fef44783          	lbu	a5,-17(s0)
    52030eb6:	0ff7f713          	andi	a4,a5,255
    52030eba:	06800793          	li	a5,104
    52030ebe:	02f70a63          	beq	a4,a5,52030ef2 <onKeyPress+0x9e>
    52030ec2:	fef44783          	lbu	a5,-17(s0)
    52030ec6:	0ff7f713          	andi	a4,a5,255
    52030eca:	04800793          	li	a5,72
    52030ece:	02f70263          	beq	a4,a5,52030ef2 <onKeyPress+0x9e>
    52030ed2:	fef44783          	lbu	a5,-17(s0)
    52030ed6:	0ff7f713          	andi	a4,a5,255
    52030eda:	06100793          	li	a5,97
    52030ede:	00f70a63          	beq	a4,a5,52030ef2 <onKeyPress+0x9e>
    52030ee2:	fef44783          	lbu	a5,-17(s0)
    52030ee6:	0ff7f713          	andi	a4,a5,255
    52030eea:	04100793          	li	a5,65
    52030eee:	02f71263          	bne	a4,a5,52030f12 <onKeyPress+0xbe>
    52030ef2:	fe043503          	ld	a0,-32(s0)
    52030ef6:	8e1ff0ef          	jal	ra,520307d6 <move>
    52030efa:	87aa                	mv	a5,a0
    52030efc:	873e                	mv	a4,a5
    52030efe:	fd843783          	ld	a5,-40(s0)
    52030f02:	439c                	lw	a5,0(a5)
    52030f04:	9fb9                	addw	a5,a5,a4
    52030f06:	0007871b          	sext.w	a4,a5
    52030f0a:	fd843783          	ld	a5,-40(s0)
    52030f0e:	c398                	sw	a4,0(a5)
    52030f10:	aa91                	j	52031064 <onKeyPress+0x210>
    52030f12:	fef44783          	lbu	a5,-17(s0)
    52030f16:	0ff7f713          	andi	a4,a5,255
    52030f1a:	06a00793          	li	a5,106
    52030f1e:	02f70a63          	beq	a4,a5,52030f52 <onKeyPress+0xfe>
    52030f22:	fef44783          	lbu	a5,-17(s0)
    52030f26:	0ff7f713          	andi	a4,a5,255
    52030f2a:	04a00793          	li	a5,74
    52030f2e:	02f70263          	beq	a4,a5,52030f52 <onKeyPress+0xfe>
    52030f32:	fef44783          	lbu	a5,-17(s0)
    52030f36:	0ff7f713          	andi	a4,a5,255
    52030f3a:	07300793          	li	a5,115
    52030f3e:	00f70a63          	beq	a4,a5,52030f52 <onKeyPress+0xfe>
    52030f42:	fef44783          	lbu	a5,-17(s0)
    52030f46:	0ff7f713          	andi	a4,a5,255
    52030f4a:	05300793          	li	a5,83
    52030f4e:	02f71c63          	bne	a4,a5,52030f86 <onKeyPress+0x132>
    52030f52:	fe043583          	ld	a1,-32(s0)
    52030f56:	450d                	li	a0,3
    52030f58:	d71ff0ef          	jal	ra,52030cc8 <rotate>
    52030f5c:	fe043503          	ld	a0,-32(s0)
    52030f60:	877ff0ef          	jal	ra,520307d6 <move>
    52030f64:	87aa                	mv	a5,a0
    52030f66:	873e                	mv	a4,a5
    52030f68:	fd843783          	ld	a5,-40(s0)
    52030f6c:	439c                	lw	a5,0(a5)
    52030f6e:	9fb9                	addw	a5,a5,a4
    52030f70:	0007871b          	sext.w	a4,a5
    52030f74:	fd843783          	ld	a5,-40(s0)
    52030f78:	c398                	sw	a4,0(a5)
    52030f7a:	fe043583          	ld	a1,-32(s0)
    52030f7e:	4505                	li	a0,1
    52030f80:	d49ff0ef          	jal	ra,52030cc8 <rotate>
    52030f84:	a0c5                	j	52031064 <onKeyPress+0x210>
    52030f86:	fef44783          	lbu	a5,-17(s0)
    52030f8a:	0ff7f713          	andi	a4,a5,255
    52030f8e:	06b00793          	li	a5,107
    52030f92:	02f70a63          	beq	a4,a5,52030fc6 <onKeyPress+0x172>
    52030f96:	fef44783          	lbu	a5,-17(s0)
    52030f9a:	0ff7f713          	andi	a4,a5,255
    52030f9e:	04b00793          	li	a5,75
    52030fa2:	02f70263          	beq	a4,a5,52030fc6 <onKeyPress+0x172>
    52030fa6:	fef44783          	lbu	a5,-17(s0)
    52030faa:	0ff7f713          	andi	a4,a5,255
    52030fae:	07700793          	li	a5,119
    52030fb2:	00f70a63          	beq	a4,a5,52030fc6 <onKeyPress+0x172>
    52030fb6:	fef44783          	lbu	a5,-17(s0)
    52030fba:	0ff7f713          	andi	a4,a5,255
    52030fbe:	05700793          	li	a5,87
    52030fc2:	02f71863          	bne	a4,a5,52030ff2 <onKeyPress+0x19e>
    52030fc6:	fe043583          	ld	a1,-32(s0)
    52030fca:	4505                	li	a0,1
    52030fcc:	cfdff0ef          	jal	ra,52030cc8 <rotate>
    52030fd0:	fe043503          	ld	a0,-32(s0)
    52030fd4:	803ff0ef          	jal	ra,520307d6 <move>
    52030fd8:	87aa                	mv	a5,a0
    52030fda:	078a                	slli	a5,a5,0x2
    52030fdc:	fd843703          	ld	a4,-40(s0)
    52030fe0:	97ba                	add	a5,a5,a4
    52030fe2:	fcf43c23          	sd	a5,-40(s0)
    52030fe6:	fe043583          	ld	a1,-32(s0)
    52030fea:	450d                	li	a0,3
    52030fec:	cddff0ef          	jal	ra,52030cc8 <rotate>
    52030ff0:	a895                	j	52031064 <onKeyPress+0x210>
    52030ff2:	fef44783          	lbu	a5,-17(s0)
    52030ff6:	0ff7f713          	andi	a4,a5,255
    52030ffa:	06c00793          	li	a5,108
    52030ffe:	02f70a63          	beq	a4,a5,52031032 <onKeyPress+0x1de>
    52031002:	fef44783          	lbu	a5,-17(s0)
    52031006:	0ff7f713          	andi	a4,a5,255
    5203100a:	04c00793          	li	a5,76
    5203100e:	02f70263          	beq	a4,a5,52031032 <onKeyPress+0x1de>
    52031012:	fef44783          	lbu	a5,-17(s0)
    52031016:	0ff7f713          	andi	a4,a5,255
    5203101a:	06400793          	li	a5,100
    5203101e:	00f70a63          	beq	a4,a5,52031032 <onKeyPress+0x1de>
    52031022:	fef44783          	lbu	a5,-17(s0)
    52031026:	0ff7f713          	andi	a4,a5,255
    5203102a:	04400793          	li	a5,68
    5203102e:	02f71b63          	bne	a4,a5,52031064 <onKeyPress+0x210>
    52031032:	fe043583          	ld	a1,-32(s0)
    52031036:	4509                	li	a0,2
    52031038:	c91ff0ef          	jal	ra,52030cc8 <rotate>
    5203103c:	fe043503          	ld	a0,-32(s0)
    52031040:	f96ff0ef          	jal	ra,520307d6 <move>
    52031044:	87aa                	mv	a5,a0
    52031046:	873e                	mv	a4,a5
    52031048:	fd843783          	ld	a5,-40(s0)
    5203104c:	439c                	lw	a5,0(a5)
    5203104e:	9fb9                	addw	a5,a5,a4
    52031050:	0007871b          	sext.w	a4,a5
    52031054:	fd843783          	ld	a5,-40(s0)
    52031058:	c398                	sw	a4,0(a5)
    5203105a:	fe043583          	ld	a1,-32(s0)
    5203105e:	4509                	li	a0,2
    52031060:	c69ff0ef          	jal	ra,52030cc8 <rotate>
    52031064:	4781                	li	a5,0
    52031066:	853e                	mv	a0,a5
    52031068:	70a2                	ld	ra,40(sp)
    5203106a:	7402                	ld	s0,32(sp)
    5203106c:	6145                	addi	sp,sp,48
    5203106e:	8082                	ret

0000000052031070 <check>:
    52031070:	7179                	addi	sp,sp,-48
    52031072:	f422                	sd	s0,40(sp)
    52031074:	1800                	addi	s0,sp,48
    52031076:	fca43c23          	sd	a0,-40(s0)
    5203107a:	fe042623          	sw	zero,-20(s0)
    5203107e:	fe042423          	sw	zero,-24(s0)
    52031082:	a275                	j	5203122e <check+0x1be>
    52031084:	fe042223          	sw	zero,-28(s0)
    52031088:	a279                	j	52031216 <check+0x1a6>
    5203108a:	fe842783          	lw	a5,-24(s0)
    5203108e:	0792                	slli	a5,a5,0x4
    52031090:	fd843703          	ld	a4,-40(s0)
    52031094:	973e                	add	a4,a4,a5
    52031096:	fe442783          	lw	a5,-28(s0)
    5203109a:	078a                	slli	a5,a5,0x2
    5203109c:	97ba                	add	a5,a5,a4
    5203109e:	439c                	lw	a5,0(a5)
    520310a0:	8007879b          	addiw	a5,a5,-2048
    520310a4:	2781                	sext.w	a5,a5
    520310a6:	e399                	bnez	a5,520310ac <check+0x3c>
    520310a8:	57fd                	li	a5,-1
    520310aa:	aa59                	j	52031240 <check+0x1d0>
    520310ac:	fec42783          	lw	a5,-20(s0)
    520310b0:	2781                	sext.w	a5,a5
    520310b2:	14079d63          	bnez	a5,5203120c <check+0x19c>
    520310b6:	fe842783          	lw	a5,-24(s0)
    520310ba:	0792                	slli	a5,a5,0x4
    520310bc:	fd843703          	ld	a4,-40(s0)
    520310c0:	973e                	add	a4,a4,a5
    520310c2:	fe442783          	lw	a5,-28(s0)
    520310c6:	078a                	slli	a5,a5,0x2
    520310c8:	97ba                	add	a5,a5,a4
    520310ca:	439c                	lw	a5,0(a5)
    520310cc:	e799                	bnez	a5,520310da <check+0x6a>
    520310ce:	fec42783          	lw	a5,-20(s0)
    520310d2:	2785                	addiw	a5,a5,1
    520310d4:	fef42623          	sw	a5,-20(s0)
    520310d8:	aa15                	j	5203120c <check+0x19c>
    520310da:	fe842783          	lw	a5,-24(s0)
    520310de:	0007871b          	sext.w	a4,a5
    520310e2:	4789                	li	a5,2
    520310e4:	04e7c263          	blt	a5,a4,52031128 <check+0xb8>
    520310e8:	fe842783          	lw	a5,-24(s0)
    520310ec:	0785                	addi	a5,a5,1
    520310ee:	0792                	slli	a5,a5,0x4
    520310f0:	fd843703          	ld	a4,-40(s0)
    520310f4:	973e                	add	a4,a4,a5
    520310f6:	fe442783          	lw	a5,-28(s0)
    520310fa:	078a                	slli	a5,a5,0x2
    520310fc:	97ba                	add	a5,a5,a4
    520310fe:	4394                	lw	a3,0(a5)
    52031100:	fe842783          	lw	a5,-24(s0)
    52031104:	0792                	slli	a5,a5,0x4
    52031106:	fd843703          	ld	a4,-40(s0)
    5203110a:	973e                	add	a4,a4,a5
    5203110c:	fe442783          	lw	a5,-28(s0)
    52031110:	078a                	slli	a5,a5,0x2
    52031112:	97ba                	add	a5,a5,a4
    52031114:	439c                	lw	a5,0(a5)
    52031116:	8736                	mv	a4,a3
    52031118:	00f71863          	bne	a4,a5,52031128 <check+0xb8>
    5203111c:	fec42783          	lw	a5,-20(s0)
    52031120:	2785                	addiw	a5,a5,1
    52031122:	fef42623          	sw	a5,-20(s0)
    52031126:	a0dd                	j	5203120c <check+0x19c>
    52031128:	fe442783          	lw	a5,-28(s0)
    5203112c:	0007871b          	sext.w	a4,a5
    52031130:	4789                	li	a5,2
    52031132:	04e7c363          	blt	a5,a4,52031178 <check+0x108>
    52031136:	fe842783          	lw	a5,-24(s0)
    5203113a:	0792                	slli	a5,a5,0x4
    5203113c:	fd843703          	ld	a4,-40(s0)
    52031140:	973e                	add	a4,a4,a5
    52031142:	fe442783          	lw	a5,-28(s0)
    52031146:	2785                	addiw	a5,a5,1
    52031148:	2781                	sext.w	a5,a5
    5203114a:	078a                	slli	a5,a5,0x2
    5203114c:	97ba                	add	a5,a5,a4
    5203114e:	4394                	lw	a3,0(a5)
    52031150:	fe842783          	lw	a5,-24(s0)
    52031154:	0792                	slli	a5,a5,0x4
    52031156:	fd843703          	ld	a4,-40(s0)
    5203115a:	973e                	add	a4,a4,a5
    5203115c:	fe442783          	lw	a5,-28(s0)
    52031160:	078a                	slli	a5,a5,0x2
    52031162:	97ba                	add	a5,a5,a4
    52031164:	439c                	lw	a5,0(a5)
    52031166:	8736                	mv	a4,a3
    52031168:	00f71863          	bne	a4,a5,52031178 <check+0x108>
    5203116c:	fec42783          	lw	a5,-20(s0)
    52031170:	2785                	addiw	a5,a5,1
    52031172:	fef42623          	sw	a5,-20(s0)
    52031176:	a859                	j	5203120c <check+0x19c>
    52031178:	fe842783          	lw	a5,-24(s0)
    5203117c:	2781                	sext.w	a5,a5
    5203117e:	04f05263          	blez	a5,520311c2 <check+0x152>
    52031182:	fe842783          	lw	a5,-24(s0)
    52031186:	0792                	slli	a5,a5,0x4
    52031188:	17c1                	addi	a5,a5,-16
    5203118a:	fd843703          	ld	a4,-40(s0)
    5203118e:	973e                	add	a4,a4,a5
    52031190:	fe442783          	lw	a5,-28(s0)
    52031194:	078a                	slli	a5,a5,0x2
    52031196:	97ba                	add	a5,a5,a4
    52031198:	4394                	lw	a3,0(a5)
    5203119a:	fe842783          	lw	a5,-24(s0)
    5203119e:	0792                	slli	a5,a5,0x4
    520311a0:	fd843703          	ld	a4,-40(s0)
    520311a4:	973e                	add	a4,a4,a5
    520311a6:	fe442783          	lw	a5,-28(s0)
    520311aa:	078a                	slli	a5,a5,0x2
    520311ac:	97ba                	add	a5,a5,a4
    520311ae:	439c                	lw	a5,0(a5)
    520311b0:	8736                	mv	a4,a3
    520311b2:	00f71863          	bne	a4,a5,520311c2 <check+0x152>
    520311b6:	fec42783          	lw	a5,-20(s0)
    520311ba:	2785                	addiw	a5,a5,1
    520311bc:	fef42623          	sw	a5,-20(s0)
    520311c0:	a0b1                	j	5203120c <check+0x19c>
    520311c2:	fe442783          	lw	a5,-28(s0)
    520311c6:	2781                	sext.w	a5,a5
    520311c8:	04f05263          	blez	a5,5203120c <check+0x19c>
    520311cc:	fe842783          	lw	a5,-24(s0)
    520311d0:	0792                	slli	a5,a5,0x4
    520311d2:	fd843703          	ld	a4,-40(s0)
    520311d6:	973e                	add	a4,a4,a5
    520311d8:	fe442783          	lw	a5,-28(s0)
    520311dc:	37fd                	addiw	a5,a5,-1
    520311de:	2781                	sext.w	a5,a5
    520311e0:	078a                	slli	a5,a5,0x2
    520311e2:	97ba                	add	a5,a5,a4
    520311e4:	4394                	lw	a3,0(a5)
    520311e6:	fe842783          	lw	a5,-24(s0)
    520311ea:	0792                	slli	a5,a5,0x4
    520311ec:	fd843703          	ld	a4,-40(s0)
    520311f0:	973e                	add	a4,a4,a5
    520311f2:	fe442783          	lw	a5,-28(s0)
    520311f6:	078a                	slli	a5,a5,0x2
    520311f8:	97ba                	add	a5,a5,a4
    520311fa:	439c                	lw	a5,0(a5)
    520311fc:	8736                	mv	a4,a3
    520311fe:	00f71763          	bne	a4,a5,5203120c <check+0x19c>
    52031202:	fec42783          	lw	a5,-20(s0)
    52031206:	2785                	addiw	a5,a5,1
    52031208:	fef42623          	sw	a5,-20(s0)
    5203120c:	fe442783          	lw	a5,-28(s0)
    52031210:	2785                	addiw	a5,a5,1
    52031212:	fef42223          	sw	a5,-28(s0)
    52031216:	fe442783          	lw	a5,-28(s0)
    5203121a:	0007871b          	sext.w	a4,a5
    5203121e:	478d                	li	a5,3
    52031220:	e6e7d5e3          	bge	a5,a4,5203108a <check+0x1a>
    52031224:	fe842783          	lw	a5,-24(s0)
    52031228:	2785                	addiw	a5,a5,1
    5203122a:	fef42423          	sw	a5,-24(s0)
    5203122e:	fe842783          	lw	a5,-24(s0)
    52031232:	0007871b          	sext.w	a4,a5
    52031236:	478d                	li	a5,3
    52031238:	e4e7d6e3          	bge	a5,a4,52031084 <check+0x14>
    5203123c:	fec42783          	lw	a5,-20(s0)
    52031240:	853e                	mv	a0,a5
    52031242:	7422                	ld	s0,40(sp)
    52031244:	6145                	addi	sp,sp,48
    52031246:	8082                	ret

0000000052031248 <initialize>:
    52031248:	7179                	addi	sp,sp,-48
    5203124a:	f406                	sd	ra,40(sp)
    5203124c:	f022                	sd	s0,32(sp)
    5203124e:	1800                	addi	s0,sp,48
    52031250:	fca43c23          	sd	a0,-40(s0)
    52031254:	fe042623          	sw	zero,-20(s0)
    52031258:	a089                	j	5203129a <initialize+0x52>
    5203125a:	fe042423          	sw	zero,-24(s0)
    5203125e:	a015                	j	52031282 <initialize+0x3a>
    52031260:	fec42783          	lw	a5,-20(s0)
    52031264:	0792                	slli	a5,a5,0x4
    52031266:	fd843703          	ld	a4,-40(s0)
    5203126a:	973e                	add	a4,a4,a5
    5203126c:	fe842783          	lw	a5,-24(s0)
    52031270:	078a                	slli	a5,a5,0x2
    52031272:	97ba                	add	a5,a5,a4
    52031274:	0007a023          	sw	zero,0(a5)
    52031278:	fe842783          	lw	a5,-24(s0)
    5203127c:	2785                	addiw	a5,a5,1
    5203127e:	fef42423          	sw	a5,-24(s0)
    52031282:	fe842783          	lw	a5,-24(s0)
    52031286:	0007871b          	sext.w	a4,a5
    5203128a:	478d                	li	a5,3
    5203128c:	fce7dae3          	bge	a5,a4,52031260 <initialize+0x18>
    52031290:	fec42783          	lw	a5,-20(s0)
    52031294:	2785                	addiw	a5,a5,1
    52031296:	fef42623          	sw	a5,-20(s0)
    5203129a:	fec42783          	lw	a5,-20(s0)
    5203129e:	0007871b          	sext.w	a4,a5
    520312a2:	478d                	li	a5,3
    520312a4:	fae7dbe3          	bge	a5,a4,5203125a <initialize+0x12>
    520312a8:	4589                	li	a1,2
    520312aa:	fd843503          	ld	a0,-40(s0)
    520312ae:	c64ff0ef          	jal	ra,52030712 <add>
    520312b2:	4589                	li	a1,2
    520312b4:	fd843503          	ld	a0,-40(s0)
    520312b8:	c5aff0ef          	jal	ra,52030712 <add>
    520312bc:	0001                	nop
    520312be:	70a2                	ld	ra,40(sp)
    520312c0:	7402                	ld	s0,32(sp)
    520312c2:	6145                	addi	sp,sp,48
    520312c4:	8082                	ret

00000000520312c6 <menu>:
    520312c6:	1101                	addi	sp,sp,-32
    520312c8:	ec06                	sd	ra,24(sp)
    520312ca:	e822                	sd	s0,16(sp)
    520312cc:	1000                	addi	s0,sp,32
    520312ce:	00000517          	auipc	a0,0x0
    520312d2:	29a50513          	addi	a0,a0,666 # 52031568 <main+0x20e>
    520312d6:	daffe0ef          	jal	ra,52030084 <bios_putstr>
    520312da:	0001                	nop
    520312dc:	832ff0ef          	jal	ra,5203030e <getchar>
    520312e0:	87aa                	mv	a5,a0
    520312e2:	fef42623          	sw	a5,-20(s0)
    520312e6:	fec42783          	lw	a5,-20(s0)
    520312ea:	0007871b          	sext.w	a4,a5
    520312ee:	47a9                	li	a5,10
    520312f0:	00f70963          	beq	a4,a5,52031302 <menu+0x3c>
    520312f4:	fec42783          	lw	a5,-20(s0)
    520312f8:	0007871b          	sext.w	a4,a5
    520312fc:	47b5                	li	a5,13
    520312fe:	fcf71fe3          	bne	a4,a5,520312dc <menu+0x16>
    52031302:	0001                	nop
    52031304:	60e2                	ld	ra,24(sp)
    52031306:	6442                	ld	s0,16(sp)
    52031308:	6105                	addi	sp,sp,32
    5203130a:	8082                	ret

000000005203130c <print_scores>:
    5203130c:	1101                	addi	sp,sp,-32
    5203130e:	ec06                	sd	ra,24(sp)
    52031310:	e822                	sd	s0,16(sp)
    52031312:	1000                	addi	s0,sp,32
    52031314:	fea43423          	sd	a0,-24(s0)
    52031318:	feb43023          	sd	a1,-32(s0)
    5203131c:	00000517          	auipc	a0,0x0
    52031320:	39c50513          	addi	a0,a0,924 # 520316b8 <main+0x35e>
    52031324:	d61fe0ef          	jal	ra,52030084 <bios_putstr>
    52031328:	fe843503          	ld	a0,-24(s0)
    5203132c:	f91fe0ef          	jal	ra,520302bc <print_value>
    52031330:	00000517          	auipc	a0,0x0
    52031334:	39850513          	addi	a0,a0,920 # 520316c8 <main+0x36e>
    52031338:	d4dfe0ef          	jal	ra,52030084 <bios_putstr>
    5203133c:	fe043503          	ld	a0,-32(s0)
    52031340:	f7dfe0ef          	jal	ra,520302bc <print_value>
    52031344:	00000517          	auipc	a0,0x0
    52031348:	39450513          	addi	a0,a0,916 # 520316d8 <main+0x37e>
    5203134c:	d39fe0ef          	jal	ra,52030084 <bios_putstr>
    52031350:	0001                	nop
    52031352:	60e2                	ld	ra,24(sp)
    52031354:	6442                	ld	s0,16(sp)
    52031356:	6105                	addi	sp,sp,32
    52031358:	8082                	ret

000000005203135a <main>:
    5203135a:	711d                	addi	sp,sp,-96
    5203135c:	ec86                	sd	ra,88(sp)
    5203135e:	e8a2                	sd	s0,80(sp)
    52031360:	1080                	addi	s0,sp,96
    52031362:	f65ff0ef          	jal	ra,520312c6 <menu>
    52031366:	fa042223          	sw	zero,-92(s0)
    5203136a:	fe042623          	sw	zero,-20(s0)
    5203136e:	fa840793          	addi	a5,s0,-88
    52031372:	853e                	mv	a0,a5
    52031374:	ed5ff0ef          	jal	ra,52031248 <initialize>
    52031378:	f79fe0ef          	jal	ra,520302f0 <clear>
    5203137c:	fa840793          	addi	a5,s0,-88
    52031380:	853e                	mv	a0,a5
    52031382:	a1cff0ef          	jal	ra,5203059e <print>
    52031386:	fec42783          	lw	a5,-20(s0)
    5203138a:	fa442703          	lw	a4,-92(s0)
    5203138e:	85ba                	mv	a1,a4
    52031390:	853e                	mv	a0,a5
    52031392:	f7bff0ef          	jal	ra,5203130c <print_scores>
    52031396:	f79fe0ef          	jal	ra,5203030e <getchar>
    5203139a:	87aa                	mv	a5,a0
    5203139c:	0ff7f793          	andi	a5,a5,255
    520313a0:	fa440693          	addi	a3,s0,-92
    520313a4:	fa840713          	addi	a4,s0,-88
    520313a8:	8636                	mv	a2,a3
    520313aa:	85ba                	mv	a1,a4
    520313ac:	853e                	mv	a0,a5
    520313ae:	aa7ff0ef          	jal	ra,52030e54 <onKeyPress>
    520313b2:	87aa                	mv	a5,a0
    520313b4:	fef42423          	sw	a5,-24(s0)
    520313b8:	fe842783          	lw	a5,-24(s0)
    520313bc:	0007871b          	sext.w	a4,a5
    520313c0:	478d                	li	a5,3
    520313c2:	00f71963          	bne	a4,a5,520313d4 <main+0x7a>
    520313c6:	00000517          	auipc	a0,0x0
    520313ca:	31a50513          	addi	a0,a0,794 # 520316e0 <main+0x386>
    520313ce:	cb7fe0ef          	jal	ra,52030084 <bios_putstr>
    520313d2:	a06d                	j	5203147c <main+0x122>
    520313d4:	fe842783          	lw	a5,-24(s0)
    520313d8:	0007871b          	sext.w	a4,a5
    520313dc:	4789                	li	a5,2
    520313de:	00f71a63          	bne	a4,a5,520313f2 <main+0x98>
    520313e2:	fa042223          	sw	zero,-92(s0)
    520313e6:	fa840793          	addi	a5,s0,-88
    520313ea:	853e                	mv	a0,a5
    520313ec:	e5dff0ef          	jal	ra,52031248 <initialize>
    520313f0:	a069                	j	5203147a <main+0x120>
    520313f2:	fa442703          	lw	a4,-92(s0)
    520313f6:	fec42783          	lw	a5,-20(s0)
    520313fa:	2781                	sext.w	a5,a5
    520313fc:	00e7d663          	bge	a5,a4,52031408 <main+0xae>
    52031400:	fa442783          	lw	a5,-92(s0)
    52031404:	fef42623          	sw	a5,-20(s0)
    52031408:	fa840793          	addi	a5,s0,-88
    5203140c:	853e                	mv	a0,a5
    5203140e:	c63ff0ef          	jal	ra,52031070 <check>
    52031412:	87aa                	mv	a5,a0
    52031414:	fef42423          	sw	a5,-24(s0)
    52031418:	fe842783          	lw	a5,-24(s0)
    5203141c:	0007871b          	sext.w	a4,a5
    52031420:	57fd                	li	a5,-1
    52031422:	02f71263          	bne	a4,a5,52031446 <main+0xec>
    52031426:	ecbfe0ef          	jal	ra,520302f0 <clear>
    5203142a:	fa840793          	addi	a5,s0,-88
    5203142e:	853e                	mv	a0,a5
    52031430:	96eff0ef          	jal	ra,5203059e <print>
    52031434:	fec42783          	lw	a5,-20(s0)
    52031438:	fa442703          	lw	a4,-92(s0)
    5203143c:	85ba                	mv	a1,a4
    5203143e:	853e                	mv	a0,a5
    52031440:	ecdff0ef          	jal	ra,5203130c <print_scores>
    52031444:	a825                	j	5203147c <main+0x122>
    52031446:	fe842783          	lw	a5,-24(s0)
    5203144a:	2781                	sext.w	a5,a5
    5203144c:	e38d                	bnez	a5,5203146e <main+0x114>
    5203144e:	ea3fe0ef          	jal	ra,520302f0 <clear>
    52031452:	fa840793          	addi	a5,s0,-88
    52031456:	853e                	mv	a0,a5
    52031458:	946ff0ef          	jal	ra,5203059e <print>
    5203145c:	fec42783          	lw	a5,-20(s0)
    52031460:	fa442703          	lw	a4,-92(s0)
    52031464:	85ba                	mv	a1,a4
    52031466:	853e                	mv	a0,a5
    52031468:	ea5ff0ef          	jal	ra,5203130c <print_scores>
    5203146c:	a801                	j	5203147c <main+0x122>
    5203146e:	00000517          	auipc	a0,0x0
    52031472:	0f250513          	addi	a0,a0,242 # 52031560 <main+0x206>
    52031476:	c0ffe0ef          	jal	ra,52030084 <bios_putstr>
    5203147a:	bdfd                	j	52031378 <main+0x1e>
    5203147c:	4781                	li	a5,0
    5203147e:	853e                	mv	a0,a5
    52031480:	60e6                	ld	ra,88(sp)
    52031482:	6446                	ld	s0,80(sp)
    52031484:	6125                	addi	sp,sp,96
    52031486:	8082                	ret
